EXPORTS 
	??_R0?AU?$output_adapter_protocol@D@detail@json_abi_v3_11_2@nlohmann@@@8 	 DATA
	??_R0?AU_Crt_new_delete@std@@@8 	 DATA
	??_R0?AV<lambda_1>@?0??connect_with_proxy@SSLClient@httplib@@AEAA_NAEAUSocket@ClientImpl@3@V?$time_point@Usteady_clock@chrono@std@@V?$duration@_JU?$ratio@$00$0DLJKMKAA@@std@@@23@@chrono@std@@AEAUResponse@3@AEA_NAEAW4Error@3@@Z@@8 	 DATA
	??_R0?AV<lambda_1>@?1???$create_socket@V<lambda_1>@?1??create_client_socket@detail@httplib@@YA_KAEBV?$basic_string@DU?$char_traits@D@std@@V?$allocator@D@2@@std@@0HH_N1V?$function@$$A6AX_K@Z@6@_J333330AEAW4Error@4@@Z@@detail@httplib@@YA_KAEBV?$basic_string@DU?$char_traits@D@std@@V?$allocator@D@2@@std@@0HHH_N1V?$function@$$A6AX_K@Z@4@V0?1??create_client_socket@12@YA_K00HH112_J333330AEAW4Error@2@@Z@3@Z@@8 	 DATA
	??_R0?AV<lambda_1>@?1???$write_content_chunked@V<lambda_1>@?1??write_content_with_provider@ClientImpl@httplib@@IEBA_NAEAVStream@4@AEBURequest@4@AEAW4Error@4@@Z@Vcompressor@detail@4@@detail@httplib@@YA_NAEAVStream@2@AEBV?$function@$$A6A_N_K0AEAVDataSink@httplib@@@Z@std@@AEBV0?1??write_content_with_provider@ClientImpl@2@IEBA_N0AEBURequest@2@AEAW4Error@2@@Z@AEAVcompressor@12@3@Z@@8 	 DATA
	??_R0?AV<lambda_1>@?1???$write_content_with_progress@V<lambda_1>@?1??write_content_with_provider@ClientImpl@httplib@@IEBA_NAEAVStream@4@AEBURequest@4@AEAW4Error@4@@Z@@detail@httplib@@YA_NAEAVStream@2@AEBV?$function@$$A6A_N_K0AEAVDataSink@httplib@@@Z@std@@_K2V0?1??write_content_with_provider@ClientImpl@2@IEBA_N0AEBURequest@2@AEAW4Error@2@@Z@AEBV?$function@$$A6A_N_K0@Z@5@4@Z@@8 	 DATA
	??_R0?AV<lambda_1>@?1???R0?1??normalize_query_string@detail@httplib@@YA?AV?$basic_string@DU?$char_traits@D@std@@V?$allocator@D@2@@std@@AEBV45@@Z@QEBA@PEBD1@Z@@8 	 DATA
	??_R0?AV<lambda_1>@?1???R0?1??parse_query_text@detail@httplib@@YAXPEBD_KAEAV?$multimap@V?$basic_string@DU?$char_traits@D@std@@V?$allocator@D@2@@std@@V12@U?$less@V?$basic_string@DU?$char_traits@D@std@@V?$allocator@D@2@@std@@@2@V?$allocator@U?$pair@$$CBV?$basic_string@DU?$char_traits@D@std@@V?$allocator@D@2@@std@@V12@@std@@@2@@std@@@Z@QEBA@00@Z@@8 	 DATA
	??_R0?AV<lambda_1>@?1???R0?BB@???$prepare_content_receiver@UResponse@httplib@@V<lambda_1>@?1???$read_content@UResponse@httplib@@@detail@2@YA_NAEAVStream@2@AEAU12@_KAEAHV?$function@$$A6A_N_K0@Z@std@@V?$function@$$A6A_NPEBD_K11@Z@7@_N@Z@@detail@httplib@@YA_NAEAUResponse@2@AEAHV?$function@$$A6A_NPEBD_K11@Z@std@@_N_KAEA_NV0?1???$read_content@UResponse@httplib@@@12@YA_NAEAVStream@2@041V?$function@$$A6A_N_K0@Z@5@23@Z@@Z@QEBA@PEBD444@Z@@8 	 DATA
	??_R0?AV<lambda_1>@?1???R<lambda_3>@?1???$write_content_chunked@V<lambda_1>@?1??write_content_with_provider@ClientImpl@httplib@@IEBA_NAEAVStream@4@AEBURequest@4@AEAW4Error@4@@Z@Vcompressor@detail@4@@detail@httplib@@YA_NAEAVStream@3@AEBV?$function@$$A6A_N_K0AEAVDataSink@httplib@@@Z@std@@AEBV0?1??write_content_with_provider@ClientImpl@3@IEBA_N0AEBURequest@3@AEAW4Error@3@@Z@AEAVcompressor@23@3@Z@QEBA@PEBV?$unordered_multimap@V?$basic_string@DU?$char_traits@D@std@@V?$allocator@D@2@@std@@V12@Uhash@case_ignore@detail@httplib@@Uequal_to@456@V?$allocator@U?$pair@$$CBV?$basic_string@DU?$char_traits@D@std@@V?$allocator@D@2@@std@@V12@@std@@@2@@6@@Z@@8 	 DATA
	??_R0?AV<lambda_1>@?1??connect_nonblocking@tls@httplib@@YA_NPEAX_K_J2PEAUTlsError@23@@Z@@8 	 DATA
	??_R0?AV<lambda_1>@?1??initialize_ssl@SSLClient@httplib@@AEAA_NAEAUSocket@ClientImpl@3@AEAW4Error@3@@Z@@8 	 DATA
	??_R0?AV<lambda_1>@?1??is_peer_closed@tls@httplib@@YA_NPEAX_K@Z@@8 	 DATA
	??_R0?AV<lambda_1>@?1??normalize_query_string@detail@httplib@@YA?AV?$basic_string@DU?$char_traits@D@std@@V?$allocator@D@2@@std@@AEBV45@@Z@@8 	 DATA
	??_R0?AV<lambda_1>@?1??parse_query_text@detail@httplib@@YAXPEBD_KAEAV?$multimap@V?$basic_string@DU?$char_traits@D@std@@V?$allocator@D@2@@std@@V12@U?$less@V?$basic_string@DU?$char_traits@D@std@@V?$allocator@D@2@@std@@@2@V?$allocator@U?$pair@$$CBV?$basic_string@DU?$char_traits@D@std@@V?$allocator@D@2@@std@@V12@@std@@@2@@std@@@Z@@8 	 DATA
	??_R0?AV<lambda_1>@?1??send_@ClientImpl@httplib@@AEAA_NAEAURequest@3@AEAUResponse@3@AEAW4Error@3@@Z@@8 	 DATA
	??_R0?AV<lambda_1>@?1??set_server_certificate_verifier@SSLClient@httplib@@UEAAXV?$function@$$A6A?AW4SSLVerifierResponse@httplib@@PEAUssl_st@@@Z@std@@@Z@@8 	 DATA
	??_R0?AV<lambda_1>@?1??verify_cert_with_windows_schannel@detail@httplib@@YA_NAEBV?$vector@EV?$allocator@E@std@@@std@@AEBV?$basic_string@DU?$char_traits@D@std@@V?$allocator@D@2@@5@_NAEA_K@Z@@8 	 DATA
	??_R0?AV<lambda_1>@?4???R0?1???$write_content_chunked@V<lambda_1>@?1??write_content_with_provider@ClientImpl@httplib@@IEBA_NAEAVStream@4@AEBURequest@4@AEAW4Error@4@@Z@Vcompressor@detail@4@@detail@httplib@@YA_NAEAVStream@2@AEBV?$function@$$A6A_N_K0AEAVDataSink@httplib@@@Z@std@@AEBV0?1??write_content_with_provider@ClientImpl@2@IEBA_N0AEBURequest@2@AEAW4Error@2@@Z@AEAVcompressor@12@3@Z@QEBA_NPEBD_K@Z@@8 	 DATA
	??_R0?AV<lambda_1>@?4???R0?O@??send_with_content_provider_and_receiver@ClientImpl@httplib@@AEAA?AV?$unique_ptr@UResponse@httplib@@U?$default_delete@UResponse@httplib@@@std@@@std@@AEAURequest@3@PEBD_KV?$function@$$A6A_N_K0AEAVDataSink@httplib@@@Z@5@V?$function@$$A6A_N_KAEAVDataSink@httplib@@@Z@5@AEBV?$basic_string@DU?$char_traits@D@std@@V?$allocator@D@2@@5@V?$function@$$A6A_NPEBD_K@Z@5@AEAW4Error@3@@Z@QEBA_N12@Z@@8 	 DATA
	??_R0?AV<lambda_1>@?4??parse_trailers@detail@httplib@@YA_NAEAVstream_line_reader@23@AEAV?$unordered_multimap@V?$basic_string@DU?$char_traits@D@std@@V?$allocator@D@2@@std@@V12@Uhash@case_ignore@detail@httplib@@Uequal_to@456@V?$allocator@U?$pair@$$CBV?$basic_string@DU?$char_traits@D@std@@V?$allocator@D@2@@std@@V12@@std@@@2@@std@@AEBV56@@Z@@8 	 DATA
	??_R0?AV<lambda_1>@?BB@???$prepare_content_receiver@UResponse@httplib@@V<lambda_1>@?1???$read_content@UResponse@httplib@@@detail@2@YA_NAEAVStream@2@AEAU12@_KAEAHV?$function@$$A6A_N_K0@Z@std@@V?$function@$$A6A_NPEBD_K11@Z@7@_N@Z@@detail@httplib@@YA_NAEAUResponse@2@AEAHV?$function@$$A6A_NPEBD_K11@Z@std@@_N_KAEA_NV0?1???$read_content@UResponse@httplib@@@12@YA_NAEAVStream@2@041V?$function@$$A6A_N_K0@Z@5@23@Z@@Z@@8 	 DATA
	??_R0?AV<lambda_1>@?DC@??process_request@ClientImpl@httplib@@IEAA_NAEAVStream@3@AEAURequest@3@AEAUResponse@3@_NAEAW4Error@3@@Z@@8 	 DATA
	??_R0?AV<lambda_1>@?O@??send_with_content_provider_and_receiver@ClientImpl@httplib@@AEAA?AV?$unique_ptr@UResponse@httplib@@U?$default_delete@UResponse@httplib@@@std@@@std@@AEAURequest@3@PEBD_KV?$function@$$A6A_N_K0AEAVDataSink@httplib@@@Z@5@V?$function@$$A6A_N_KAEAVDataSink@httplib@@@Z@5@AEBV?$basic_string@DU?$char_traits@D@std@@V?$allocator@D@2@@5@V?$function@$$A6A_NPEBD_K@Z@5@AEAW4Error@3@@Z@@8 	 DATA
	??_R0?AV<lambda_2>@?0??connect_with_proxy@SSLClient@httplib@@AEAA_NAEAUSocket@ClientImpl@3@V?$time_point@Usteady_clock@chrono@std@@V?$duration@_JU?$ratio@$00$0DLJKMKAA@@std@@@23@@chrono@std@@AEAUResponse@3@AEA_NAEAW4Error@3@@Z@@8 	 DATA
	??_R0?AV<lambda_2>@?0??send_with_content_provider_and_receiver@ClientImpl@httplib@@AEAA?AV?$unique_ptr@UResponse@httplib@@U?$default_delete@UResponse@httplib@@@std@@@std@@AEAURequest@3@PEBD_KV?$function@$$A6A_N_K0AEAVDataSink@httplib@@@Z@5@V?$function@$$A6A_N_KAEAVDataSink@httplib@@@Z@5@AEBV?$basic_string@DU?$char_traits@D@std@@V?$allocator@D@2@@5@V?$function@$$A6A_NPEBD_K@Z@5@AEAW4Error@3@@Z@@8 	 DATA
	??_R0?AV<lambda_2>@?1???$prepare_content_receiver@UResponse@httplib@@V<lambda_1>@?1???$read_content@UResponse@httplib@@@detail@2@YA_NAEAVStream@2@AEAU12@_KAEAHV?$function@$$A6A_N_K0@Z@std@@V?$function@$$A6A_NPEBD_K11@Z@7@_N@Z@@detail@httplib@@YA_NAEAUResponse@2@AEAHV?$function@$$A6A_NPEBD_K11@Z@std@@_N_KAEA_NV<lambda_1>@?1???$read_content@UResponse@httplib@@@12@YA_NAEAVStream@2@041V?$function@$$A6A_N_K0@Z@5@23@Z@@Z@@8 	 DATA
	??_R0?AV<lambda_2>@?1???$write_content_chunked@V<lambda_1>@?1??write_content_with_provider@ClientImpl@httplib@@IEBA_NAEAVStream@4@AEBURequest@4@AEAW4Error@4@@Z@Vcompressor@detail@4@@detail@httplib@@YA_NAEAVStream@2@AEBV?$function@$$A6A_N_K0AEAVDataSink@httplib@@@Z@std@@AEBV<lambda_1>@?1??write_content_with_provider@ClientImpl@2@IEBA_N0AEBURequest@2@AEAW4Error@2@@Z@AEAVcompressor@12@3@Z@@8 	 DATA
	??_R0?AV<lambda_2>@?1???$write_content_with_progress@V<lambda_1>@?1??write_content_with_provider@ClientImpl@httplib@@IEBA_NAEAVStream@4@AEBURequest@4@AEAW4Error@4@@Z@@detail@httplib@@YA_NAEAVStream@2@AEBV?$function@$$A6A_N_K0AEAVDataSink@httplib@@@Z@std@@_K2V<lambda_1>@?1??write_content_with_provider@ClientImpl@2@IEBA_N0AEBURequest@2@AEAW4Error@2@@Z@AEBV?$function@$$A6A_N_K0@Z@5@4@Z@@8 	 DATA
	??_R0?AV<lambda_2>@?1??send_@ClientImpl@httplib@@AEAA_NAEAURequest@3@AEAUResponse@3@AEAW4Error@3@@Z@@8 	 DATA
	??_R0?AV<lambda_2>@?1??verify_cert_with_windows_schannel@detail@httplib@@YA_NAEBV?$vector@EV?$allocator@E@std@@@std@@AEBV?$basic_string@DU?$char_traits@D@std@@V?$allocator@D@2@@5@_NAEA_K@Z@@8 	 DATA
	??_R0?AV<lambda_2>@?CH@??initialize_ssl@SSLClient@httplib@@AEAA_NAEAUSocket@ClientImpl@3@AEAW4Error@3@@Z@@8 	 DATA
	??_R0?AV<lambda_2>@?DC@??process_request@ClientImpl@httplib@@IEAA_NAEAVStream@3@AEAURequest@3@AEAUResponse@3@_NAEAW4Error@3@@Z@@8 	 DATA
	??_R0?AV<lambda_2_>@Request@httplib@@@8 	 DATA
	??_R0?AV<lambda_3>@?CG@??send_with_content_provider_and_receiver@ClientImpl@httplib@@AEAA?AV?$unique_ptr@UResponse@httplib@@U?$default_delete@UResponse@httplib@@@std@@@std@@AEAURequest@3@PEBD_KV?$function@$$A6A_N_K0AEAVDataSink@httplib@@@Z@5@V?$function@$$A6A_N_KAEAVDataSink@httplib@@@Z@5@AEBV?$basic_string@DU?$char_traits@D@std@@V?$allocator@D@2@@5@V?$function@$$A6A_NPEBD_K@Z@5@AEAW4Error@3@@Z@@8 	 DATA
	??_R0?AV<lambda_3>@?DC@??process_request@ClientImpl@httplib@@IEAA_NAEAVStream@3@AEAURequest@3@AEAUResponse@3@_NAEAW4Error@3@@Z@@8 	 DATA
	??_R0?AV<lambda_4>@?1???$write_content_chunked@V<lambda_1>@?1??write_content_with_provider@ClientImpl@httplib@@IEBA_NAEAVStream@4@AEBURequest@4@AEAW4Error@4@@Z@Vcompressor@detail@4@@detail@httplib@@YA_NAEAVStream@2@AEBV?$function@$$A6A_N_K0AEAVDataSink@httplib@@@Z@std@@AEBV<lambda_1>@?1??write_content_with_provider@ClientImpl@2@IEBA_N0AEBURequest@2@AEAW4Error@2@@Z@AEAVcompressor@12@3@Z@@8 	 DATA
	??_R0?AV<lambda_5>@?1???$write_content_chunked@V<lambda_1>@?1??write_content_with_provider@ClientImpl@httplib@@IEBA_NAEAVStream@4@AEBURequest@4@AEAW4Error@4@@Z@Vcompressor@detail@4@@detail@httplib@@YA_NAEAVStream@2@AEBV?$function@$$A6A_N_K0AEAVDataSink@httplib@@@Z@std@@AEBV<lambda_1>@?1??write_content_with_provider@ClientImpl@2@IEBA_N0AEBURequest@2@AEAW4Error@2@@Z@AEAVcompressor@12@3@Z@@8 	 DATA
	??_R0?AV?$_Func_base@W4SSLVerifierResponse@httplib@@PEAX@std@@@8 	 DATA
	??_R0?AV?$_Func_base@X$$V@std@@@8 	 DATA
	??_R0?AV?$_Func_base@XAEBV?$basic_string@DU?$char_traits@D@std@@V?$allocator@D@2@@std@@@std@@@8 	 DATA
	??_R0?AV?$_Func_base@XAEBV?$unordered_multimap@V?$basic_string@DU?$char_traits@D@std@@V?$allocator@D@2@@std@@V12@Uhash@case_ignore@detail@httplib@@Uequal_to@456@V?$allocator@U?$pair@$$CBV?$basic_string@DU?$char_traits@D@std@@V?$allocator@D@2@@std@@V12@@std@@@2@@std@@@std@@@8 	 DATA
	??_R0?AV?$_Func_base@XI@std@@@8 	 DATA
	??_R0?AV?$_Func_base@XPEBDPEBD@std@@@8 	 DATA
	??_R0?AV?$_Func_base@XPEBD_KPEBD_K@std@@@8 	 DATA
	??_R0?AV?$_Func_base@_JAEAVStream@httplib@@AEAV?$unordered_multimap@V?$basic_string@DU?$char_traits@D@std@@V?$allocator@D@2@@std@@V12@Uhash@case_ignore@detail@httplib@@Uequal_to@456@V?$allocator@U?$pair@$$CBV?$basic_string@DU?$char_traits@D@std@@V?$allocator@D@2@@std@@V12@@std@@@2@@std@@@std@@@8 	 DATA
	??_R0?AV?$_Func_base@_N$$V@std@@@8 	 DATA
	??_R0?AV?$_Func_base@_NAEAVStream@httplib@@@std@@@8 	 DATA
	??_R0?AV?$_Func_base@_NPEBD_K@std@@@8 	 DATA
	??_R0?AV?$_Func_base@_NPEBD_K_K_K@std@@@8 	 DATA
	??_R0?AV?$_Func_base@_N_K_K@std@@@8 	 DATA
	??_R0?AV?$_Func_base@_N_K_KAEAVDataSink@httplib@@@std@@@8 	 DATA
	??_R0?AV?$_Func_impl_no_alloc@P6A_JAEAVStream@httplib@@AEBV?$unordered_multimap@V?$basic_string@DU?$char_traits@D@std@@V?$allocator@D@2@@std@@V12@Uhash@case_ignore@detail@httplib@@Uequal_to@456@V?$allocator@U?$pair@$$CBV?$basic_string@DU?$char_traits@D@std@@V?$allocator@D@2@@std@@V12@@std@@@2@@std@@@Z_JAEAV12@AEAV34@@std@@@8 	 DATA
	??_R0?AV?$_Func_impl_no_alloc@V<lambda_1>@?0??connect_with_proxy@SSLClient@httplib@@AEAA_NAEAUSocket@ClientImpl@4@V?$time_point@Usteady_clock@chrono@std@@V?$duration@_JU?$ratio@$00$0DLJKMKAA@@std@@@23@@chrono@std@@AEAUResponse@4@AEA_NAEAW4Error@4@@Z@_NAEAVStream@4@@std@@@8 	 DATA
	??_R0?AV?$_Func_impl_no_alloc@V<lambda_1>@?1???$create_socket@V<lambda_1>@?1??create_client_socket@detail@httplib@@YA_KAEBV?$basic_string@DU?$char_traits@D@std@@V?$allocator@D@2@@std@@0HH_N1V?$function@$$A6AX_K@Z@6@_J333330AEAW4Error@4@@Z@@detail@httplib@@YA_KAEBV?$basic_string@DU?$char_traits@D@std@@V?$allocator@D@2@@std@@0HHH_N1V?$function@$$A6AX_K@Z@5@V1?1??create_client_socket@23@YA_K00HH112_J333330AEAW4Error@3@@Z@3@Z@X$$V@std@@@8 	 DATA
	??_R0?AV?$_Func_impl_no_alloc@V<lambda_1>@?1???$write_content_chunked@V<lambda_1>@?1??write_content_with_provider@ClientImpl@httplib@@IEBA_NAEAVStream@4@AEBURequest@4@AEAW4Error@4@@Z@Vcompressor@detail@4@@detail@httplib@@YA_NAEAVStream@3@AEBV?$function@$$A6A_N_K0AEAVDataSink@httplib@@@Z@std@@AEBV1?1??write_content_with_provider@ClientImpl@3@IEBA_N0AEBURequest@3@AEAW4Error@3@@Z@AEAVcompressor@23@3@Z@_NPEBD_K@std@@@8 	 DATA
	??_R0?AV?$_Func_impl_no_alloc@V<lambda_1>@?1???$write_content_with_progress@V<lambda_1>@?1??write_content_with_provider@ClientImpl@httplib@@IEBA_NAEAVStream@4@AEBURequest@4@AEAW4Error@4@@Z@@detail@httplib@@YA_NAEAVStream@3@AEBV?$function@$$A6A_N_K0AEAVDataSink@httplib@@@Z@std@@_K2V1?1??write_content_with_provider@ClientImpl@3@IEBA_N0AEBURequest@3@AEAW4Error@3@@Z@AEBV?$function@$$A6A_N_K0@Z@6@4@Z@_NPEBD_K@std@@@8 	 DATA
	??_R0?AV?$_Func_impl_no_alloc@V<lambda_1>@?1???R1?1??normalize_query_string@detail@httplib@@YA?AV?$basic_string@DU?$char_traits@D@std@@V?$allocator@D@2@@std@@AEBV56@@Z@QEBA@PEBD1@Z@XPEBD_KPEBD_K@std@@@8 	 DATA
	??_R0?AV?$_Func_impl_no_alloc@V<lambda_1>@?1???R1?1??parse_query_text@detail@httplib@@YAXPEBD_KAEAV?$multimap@V?$basic_string@DU?$char_traits@D@std@@V?$allocator@D@2@@std@@V12@U?$less@V?$basic_string@DU?$char_traits@D@std@@V?$allocator@D@2@@std@@@2@V?$allocator@U?$pair@$$CBV?$basic_string@DU?$char_traits@D@std@@V?$allocator@D@2@@std@@V12@@std@@@2@@std@@@Z@QEBA@00@Z@XPEBD_KPEBD_K@std@@@8 	 DATA
	??_R0?AV?$_Func_impl_no_alloc@V<lambda_1>@?1???R1?BB@???$prepare_content_receiver@UResponse@httplib@@V<lambda_1>@?1???$read_content@UResponse@httplib@@@detail@2@YA_NAEAVStream@2@AEAU12@_KAEAHV?$function@$$A6A_N_K0@Z@std@@V?$function@$$A6A_NPEBD_K11@Z@7@_N@Z@@detail@httplib@@YA_NAEAUResponse@3@AEAHV?$function@$$A6A_NPEBD_K11@Z@std@@_N_KAEA_NV1?1???$read_content@UResponse@httplib@@@23@YA_NAEAVStream@3@041V?$function@$$A6A_N_K0@Z@6@23@Z@@Z@QEBA@PEBD444@Z@_NPEBD_K@std@@@8 	 DATA
	??_R0?AV?$_Func_impl_no_alloc@V<lambda_1>@?1???R<lambda_3>@?1???$write_content_chunked@V<lambda_1>@?1??write_content_with_provider@ClientImpl@httplib@@IEBA_NAEAVStream@4@AEBURequest@4@AEAW4Error@4@@Z@Vcompressor@detail@4@@detail@httplib@@YA_NAEAVStream@4@AEBV?$function@$$A6A_N_K0AEAVDataSink@httplib@@@Z@std@@AEBV1?1??write_content_with_provider@ClientImpl@4@IEBA_N0AEBURequest@4@AEAW4Error@4@@Z@AEAVcompressor@34@3@Z@QEBA@PEBV?$unordered_multimap@V?$basic_string@DU?$char_traits@D@std@@V?$allocator@D@2@@std@@V12@Uhash@case_ignore@detail@httplib@@Uequal_to@456@V?$allocator@U?$pair@$$CBV?$basic_string@DU?$char_traits@D@std@@V?$allocator@D@2@@std@@V12@@std@@@2@@7@@Z@_NPEBD_K@std@@@8 	 DATA
	??_R0?AV?$_Func_impl_no_alloc@V<lambda_1>@?1??connect_nonblocking@tls@httplib@@YA_NPEAX_K_J2PEAUTlsError@34@@Z@X$$V@std@@@8 	 DATA
	??_R0?AV?$_Func_impl_no_alloc@V<lambda_1>@?1??initialize_ssl@SSLClient@httplib@@AEAA_NAEAUSocket@ClientImpl@4@AEAW4Error@4@@Z@X$$V@std@@@8 	 DATA
	??_R0?AV?$_Func_impl_no_alloc@V<lambda_1>@?1??is_peer_closed@tls@httplib@@YA_NPEAX_K@Z@X$$V@std@@@8 	 DATA
	??_R0?AV?$_Func_impl_no_alloc@V<lambda_1>@?1??normalize_query_string@detail@httplib@@YA?AV?$basic_string@DU?$char_traits@D@std@@V?$allocator@D@2@@std@@AEBV56@@Z@XPEBDPEBD@std@@@8 	 DATA
	??_R0?AV?$_Func_impl_no_alloc@V<lambda_1>@?1??parse_query_text@detail@httplib@@YAXPEBD_KAEAV?$multimap@V?$basic_string@DU?$char_traits@D@std@@V?$allocator@D@2@@std@@V12@U?$less@V?$basic_string@DU?$char_traits@D@std@@V?$allocator@D@2@@std@@@2@V?$allocator@U?$pair@$$CBV?$basic_string@DU?$char_traits@D@std@@V?$allocator@D@2@@std@@V12@@std@@@2@@std@@@Z@XPEBDPEBD@std@@@8 	 DATA
	??_R0?AV?$_Func_impl_no_alloc@V<lambda_1>@?1??send_@ClientImpl@httplib@@AEAA_NAEAURequest@4@AEAUResponse@4@AEAW4Error@4@@Z@X$$V@std@@@8 	 DATA
	??_R0?AV?$_Func_impl_no_alloc@V<lambda_1>@?1??set_server_certificate_verifier@SSLClient@httplib@@UEAAXV?$function@$$A6A?AW4SSLVerifierResponse@httplib@@PEAUssl_st@@@Z@std@@@Z@W4SSLVerifierResponse@4@PEAX@std@@@8 	 DATA
	??_R0?AV?$_Func_impl_no_alloc@V<lambda_1>@?1??verify_cert_with_windows_schannel@detail@httplib@@YA_NAEBV?$vector@EV?$allocator@E@std@@@std@@AEBV?$basic_string@DU?$char_traits@D@std@@V?$allocator@D@2@@6@_NAEA_K@Z@X$$V@std@@@8 	 DATA
	??_R0?AV?$_Func_impl_no_alloc@V<lambda_1>@?4???R1?1???$write_content_chunked@V<lambda_1>@?1??write_content_with_provider@ClientImpl@httplib@@IEBA_NAEAVStream@4@AEBURequest@4@AEAW4Error@4@@Z@Vcompressor@detail@4@@detail@httplib@@YA_NAEAVStream@3@AEBV?$function@$$A6A_N_K0AEAVDataSink@httplib@@@Z@std@@AEBV1?1??write_content_with_provider@ClientImpl@3@IEBA_N0AEBURequest@3@AEAW4Error@3@@Z@AEAVcompressor@23@3@Z@QEBA_NPEBD_K@Z@_NPEBD_K@std@@@8 	 DATA
	??_R0?AV?$_Func_impl_no_alloc@V<lambda_1>@?4???R1?O@??send_with_content_provider_and_receiver@ClientImpl@httplib@@AEAA?AV?$unique_ptr@UResponse@httplib@@U?$default_delete@UResponse@httplib@@@std@@@std@@AEAURequest@4@PEBD_KV?$function@$$A6A_N_K0AEAVDataSink@httplib@@@Z@6@V?$function@$$A6A_N_KAEAVDataSink@httplib@@@Z@6@AEBV?$basic_string@DU?$char_traits@D@std@@V?$allocator@D@2@@6@V?$function@$$A6A_NPEBD_K@Z@6@AEAW4Error@4@@Z@QEBA_N12@Z@_NPEBD_K@std@@@8 	 DATA
	??_R0?AV?$_Func_impl_no_alloc@V<lambda_1>@?4??parse_trailers@detail@httplib@@YA_NAEAVstream_line_reader@34@AEAV?$unordered_multimap@V?$basic_string@DU?$char_traits@D@std@@V?$allocator@D@2@@std@@V12@Uhash@case_ignore@detail@httplib@@Uequal_to@456@V?$allocator@U?$pair@$$CBV?$basic_string@DU?$char_traits@D@std@@V?$allocator@D@2@@std@@V12@@std@@@2@@std@@AEBV67@@Z@XPEBDPEBD@std@@@8 	 DATA
	??_R0?AV?$_Func_impl_no_alloc@V<lambda_1>@?BB@???$prepare_content_receiver@UResponse@httplib@@V<lambda_1>@?1???$read_content@UResponse@httplib@@@detail@2@YA_NAEAVStream@2@AEAU12@_KAEAHV?$function@$$A6A_N_K0@Z@std@@V?$function@$$A6A_NPEBD_K11@Z@7@_N@Z@@detail@httplib@@YA_NAEAUResponse@3@AEAHV?$function@$$A6A_NPEBD_K11@Z@std@@_N_KAEA_NV1?1???$read_content@UResponse@httplib@@@23@YA_NAEAVStream@3@041V?$function@$$A6A_N_K0@Z@6@23@Z@@Z@_NPEBD_K_K_K@std@@@8 	 DATA
	??_R0?AV?$_Func_impl_no_alloc@V<lambda_1>@?DC@??process_request@ClientImpl@httplib@@IEAA_NAEAVStream@4@AEAURequest@4@AEAUResponse@4@_NAEAW4Error@4@@Z@_NPEBD_K_K_K@std@@@8 	 DATA
	??_R0?AV?$_Func_impl_no_alloc@V<lambda_1>@?O@??send_with_content_provider_and_receiver@ClientImpl@httplib@@AEAA?AV?$unique_ptr@UResponse@httplib@@U?$default_delete@UResponse@httplib@@@std@@@std@@AEAURequest@4@PEBD_KV?$function@$$A6A_N_K0AEAVDataSink@httplib@@@Z@6@V?$function@$$A6A_N_KAEAVDataSink@httplib@@@Z@6@AEBV?$basic_string@DU?$char_traits@D@std@@V?$allocator@D@2@@6@V?$function@$$A6A_NPEBD_K@Z@6@AEAW4Error@4@@Z@_NPEBD_K@std@@@8 	 DATA
	??_R0?AV?$_Func_impl_no_alloc@V<lambda_2>@?0??connect_with_proxy@SSLClient@httplib@@AEAA_NAEAUSocket@ClientImpl@4@V?$time_point@Usteady_clock@chrono@std@@V?$duration@_JU?$ratio@$00$0DLJKMKAA@@std@@@23@@chrono@std@@AEAUResponse@4@AEA_NAEAW4Error@4@@Z@_NAEAVStream@4@@std@@@8 	 DATA
	??_R0?AV?$_Func_impl_no_alloc@V<lambda_2>@?0??send_with_content_provider_and_receiver@ClientImpl@httplib@@AEAA?AV?$unique_ptr@UResponse@httplib@@U?$default_delete@UResponse@httplib@@@std@@@std@@AEAURequest@4@PEBD_KV?$function@$$A6A_N_K0AEAVDataSink@httplib@@@Z@6@V?$function@$$A6A_N_KAEAVDataSink@httplib@@@Z@6@AEBV?$basic_string@DU?$char_traits@D@std@@V?$allocator@D@2@@6@V?$function@$$A6A_NPEBD_K@Z@6@AEAW4Error@4@@Z@_NPEBD_K@std@@@8 	 DATA
	??_R0?AV?$_Func_impl_no_alloc@V<lambda_2>@?1???$prepare_content_receiver@UResponse@httplib@@V<lambda_1>@?1???$read_content@UResponse@httplib@@@detail@2@YA_NAEAVStream@2@AEAU12@_KAEAHV?$function@$$A6A_N_K0@Z@std@@V?$function@$$A6A_NPEBD_K11@Z@7@_N@Z@@detail@httplib@@YA_NAEAUResponse@3@AEAHV?$function@$$A6A_NPEBD_K11@Z@std@@_N_KAEA_NV<lambda_1>@?1???$read_content@UResponse@httplib@@@23@YA_NAEAVStream@3@041V?$function@$$A6A_N_K0@Z@6@23@Z@@Z@_NPEBD_K_K_K@std@@@8 	 DATA
	??_R0?AV?$_Func_impl_no_alloc@V<lambda_2>@?1???$write_content_chunked@V<lambda_1>@?1??write_content_with_provider@ClientImpl@httplib@@IEBA_NAEAVStream@4@AEBURequest@4@AEAW4Error@4@@Z@Vcompressor@detail@4@@detail@httplib@@YA_NAEAVStream@3@AEBV?$function@$$A6A_N_K0AEAVDataSink@httplib@@@Z@std@@AEBV<lambda_1>@?1??write_content_with_provider@ClientImpl@3@IEBA_N0AEBURequest@3@AEAW4Error@3@@Z@AEAVcompressor@23@3@Z@_N$$V@std@@@8 	 DATA
	??_R0?AV?$_Func_impl_no_alloc@V<lambda_2>@?1???$write_content_with_progress@V<lambda_1>@?1??write_content_with_provider@ClientImpl@httplib@@IEBA_NAEAVStream@4@AEBURequest@4@AEAW4Error@4@@Z@@detail@httplib@@YA_NAEAVStream@3@AEBV?$function@$$A6A_N_K0AEAVDataSink@httplib@@@Z@std@@_K2V<lambda_1>@?1??write_content_with_provider@ClientImpl@3@IEBA_N0AEBURequest@3@AEAW4Error@3@@Z@AEBV?$function@$$A6A_N_K0@Z@6@4@Z@_N$$V@std@@@8 	 DATA
	??_R0?AV?$_Func_impl_no_alloc@V<lambda_2>@?1??send_@ClientImpl@httplib@@AEAA_NAEAURequest@4@AEAUResponse@4@AEAW4Error@4@@Z@_NAEAVStream@4@@std@@@8 	 DATA
	??_R0?AV?$_Func_impl_no_alloc@V<lambda_2>@?1??verify_cert_with_windows_schannel@detail@httplib@@YA_NAEBV?$vector@EV?$allocator@E@std@@@std@@AEBV?$basic_string@DU?$char_traits@D@std@@V?$allocator@D@2@@6@_NAEA_K@Z@X$$V@std@@@8 	 DATA
	??_R0?AV?$_Func_impl_no_alloc@V<lambda_2>@?CH@??initialize_ssl@SSLClient@httplib@@AEAA_NAEAUSocket@ClientImpl@4@AEAW4Error@4@@Z@X$$V@std@@@8 	 DATA
	??_R0?AV?$_Func_impl_no_alloc@V<lambda_2>@?DC@??process_request@ClientImpl@httplib@@IEAA_NAEAVStream@4@AEAURequest@4@AEAUResponse@4@_NAEAW4Error@4@@Z@_NPEBD_K_K_K@std@@@8 	 DATA
	??_R0?AV?$_Func_impl_no_alloc@V<lambda_2_>@Request@httplib@@_N$$V@std@@@8 	 DATA
	??_R0?AV?$_Func_impl_no_alloc@V<lambda_3>@?CG@??send_with_content_provider_and_receiver@ClientImpl@httplib@@AEAA?AV?$unique_ptr@UResponse@httplib@@U?$default_delete@UResponse@httplib@@@std@@@std@@AEAURequest@4@PEBD_KV?$function@$$A6A_N_K0AEAVDataSink@httplib@@@Z@6@V?$function@$$A6A_N_KAEAVDataSink@httplib@@@Z@6@AEBV?$basic_string@DU?$char_traits@D@std@@V?$allocator@D@2@@6@V?$function@$$A6A_NPEBD_K@Z@6@AEAW4Error@4@@Z@_NPEBD_K_K_K@std@@@8 	 DATA
	??_R0?AV?$_Func_impl_no_alloc@V<lambda_3>@?DC@??process_request@ClientImpl@httplib@@IEAA_NAEAVStream@4@AEAURequest@4@AEAUResponse@4@_NAEAW4Error@4@@Z@_N_K_K@std@@@8 	 DATA
	??_R0?AV?$_Func_impl_no_alloc@V<lambda_4>@?1???$write_content_chunked@V<lambda_1>@?1??write_content_with_provider@ClientImpl@httplib@@IEBA_NAEAVStream@4@AEBURequest@4@AEAW4Error@4@@Z@Vcompressor@detail@4@@detail@httplib@@YA_NAEAVStream@3@AEBV?$function@$$A6A_N_K0AEAVDataSink@httplib@@@Z@std@@AEBV<lambda_1>@?1??write_content_with_provider@ClientImpl@3@IEBA_N0AEBURequest@3@AEAW4Error@3@@Z@AEAVcompressor@23@3@Z@X$$V@std@@@8 	 DATA
	??_R0?AV?$_Func_impl_no_alloc@V<lambda_5>@?1???$write_content_chunked@V<lambda_1>@?1??write_content_with_provider@ClientImpl@httplib@@IEBA_NAEAVStream@4@AEBURequest@4@AEAW4Error@4@@Z@Vcompressor@detail@4@@detail@httplib@@YA_NAEAVStream@3@AEBV?$function@$$A6A_N_K0AEAVDataSink@httplib@@@Z@std@@AEBV<lambda_1>@?1??write_content_with_provider@ClientImpl@3@IEBA_N0AEBURequest@3@AEAW4Error@3@@Z@AEAVcompressor@23@3@Z@XAEBV?$unordered_multimap@V?$basic_string@DU?$char_traits@D@std@@V?$allocator@D@2@@std@@V12@Uhash@case_ignore@detail@httplib@@Uequal_to@456@V?$allocator@U?$pair@$$CBV?$basic_string@DU?$char_traits@D@std@@V?$allocator@D@2@@std@@V12@@std@@@2@@6@@std@@@8 	 DATA
	??_R0?AV?$_Func_impl_no_alloc@VContentProviderAdapter@detail@httplib@@_N_K_KAEAVDataSink@3@@std@@@8 	 DATA
	??_R0?AV?$_Iosb@H@std@@@8 	 DATA
	??_R0?AV?$_Node_class@DV?$regex_traits@D@std@@@std@@@8 	 DATA
	??_R0?AV?$_Node_str@D@std@@@8 	 DATA
	??_R0?AV?$_Ref_count_obj2@V?$function@$$A6A?AW4SSLVerifierResponse@httplib@@PEAUssl_st@@@Z@std@@@std@@@8 	 DATA
	??_R0?AV?$_Ref_count_obj2@V?$output_string_adapter@DV?$basic_string@DU?$char_traits@D@std@@V?$allocator@D@2@@std@@@detail@json_abi_v3_11_2@nlohmann@@@std@@@8 	 DATA
	??_R0?AV?$_Ref_count_obj2@VBlock@blockchain@midnight@@@std@@@8 	 DATA
	??_R0?AV?$_Ref_count_obj2@VConfig@midnight@@@std@@@8 	 DATA
	??_R0?AV?$_Ref_count_obj2@VConsoleLogger@midnight@@@std@@@8 	 DATA
	??_R0?AV?$_Ref_count_obj2@VLedgerStateSyncManager@zk@midnight@@@std@@@8 	 DATA
	??_R0?AV?$_Ref_count_obj2@VNetworkClient@network@midnight@@@std@@@8 	 DATA
	??_R0?AV?$_Ref_count_obj2@VProofServerClient@zk@midnight@@@std@@@8 	 DATA
	??_R0?AV?$_Ref_count_obj2@VProofServerResilientClient@zk@midnight@@@std@@@8 	 DATA
	??_R0?AV?$basic_filebuf@DU?$char_traits@D@std@@@std@@@8 	 DATA
	??_R0?AV?$basic_ifstream@DU?$char_traits@D@std@@@std@@@8 	 DATA
	??_R0?AV?$basic_ios@DU?$char_traits@D@std@@@std@@@8 	 DATA
	??_R0?AV?$basic_iostream@DU?$char_traits@D@std@@@std@@@8 	 DATA
	??_R0?AV?$basic_istream@DU?$char_traits@D@std@@@std@@@8 	 DATA
	??_R0?AV?$basic_istringstream@DU?$char_traits@D@std@@V?$allocator@D@2@@std@@@8 	 DATA
	??_R0?AV?$basic_ostream@DU?$char_traits@D@std@@@std@@@8 	 DATA
	??_R0?AV?$basic_ostringstream@DU?$char_traits@D@std@@V?$allocator@D@2@@std@@@8 	 DATA
	??_R0?AV?$basic_streambuf@DU?$char_traits@D@std@@@std@@@8 	 DATA
	??_R0?AV?$basic_stringbuf@DU?$char_traits@D@std@@V?$allocator@D@2@@std@@@8 	 DATA
	??_R0?AV?$basic_stringstream@DU?$char_traits@D@std@@V?$allocator@D@2@@std@@@8 	 DATA
	??_R0?AV?$collate@D@std@@@8 	 DATA
	??_R0?AV?$collate_byname@D@std@@@8 	 DATA
	??_R0?AV?$output_string_adapter@DV?$basic_string@DU?$char_traits@D@std@@V?$allocator@D@2@@std@@@detail@json_abi_v3_11_2@nlohmann@@@8 	 DATA
	??_R0?AVBufferStream@detail@httplib@@@8 	 DATA
	??_R0?AVClientImpl@httplib@@@8 	 DATA
	??_R0?AVConsoleLogger@midnight@@@8 	 DATA
	??_R0?AVContentProviderAdapter@detail@httplib@@@8 	 DATA
	??_R0?AVLedgerStateSyncManager@zk@midnight@@@8 	 DATA
	??_R0?AVLogger@midnight@@@8 	 DATA
	??_R0?AVSSLClient@httplib@@@8 	 DATA
	??_R0?AVSSLSocketStream@detail@httplib@@@8 	 DATA
	??_R0?AVSocketStream@detail@httplib@@@8 	 DATA
	??_R0?AVStream@httplib@@@8 	 DATA
	??_R0?AV_Facet_base@std@@@8 	 DATA
	??_R0?AV_Node_assert@std@@@8 	 DATA
	??_R0?AV_Node_back@std@@@8 	 DATA
	??_R0?AV_Node_base@std@@@8 	 DATA
	??_R0?AV_Node_capture@std@@@8 	 DATA
	??_R0?AV_Node_end_group@std@@@8 	 DATA
	??_R0?AV_Node_end_rep@std@@@8 	 DATA
	??_R0?AV_Node_endif@std@@@8 	 DATA
	??_R0?AV_Node_if@std@@@8 	 DATA
	??_R0?AV_Node_rep@std@@@8 	 DATA
	??_R0?AV_Ref_count_base@std@@@8 	 DATA
	??_R0?AV_Root_node@std@@@8 	 DATA
	??_R0?AVbad_alloc@std@@@8 	 DATA
	??_R0?AVbad_array_new_length@std@@@8 	 DATA
	??_R0?AVbad_cast@std@@@8 	 DATA
	??_R0?AVcompressor@detail@httplib@@@8 	 DATA
	??_R0?AVdata_sink_streambuf@DataSink@httplib@@@8 	 DATA
	??_R0?AVexception@detail@json_abi_v3_11_2@nlohmann@@@8 	 DATA
	??_R0?AVexception@std@@@8 	 DATA
	??_R0?AVfacet@locale@std@@@8 	 DATA
	??_R0?AVinvalid_argument@std@@@8 	 DATA
	??_R0?AVinvalid_iterator@detail@json_abi_v3_11_2@nlohmann@@@8 	 DATA
	??_R0?AVios_base@std@@@8 	 DATA
	??_R0?AVlogic_error@std@@@8 	 DATA
	??_R0?AVnocompressor@detail@httplib@@@8 	 DATA
	??_R0?AVother_error@detail@json_abi_v3_11_2@nlohmann@@@8 	 DATA
	??_R0?AVout_of_range@detail@json_abi_v3_11_2@nlohmann@@@8 	 DATA
	??_R0?AVparse_error@detail@json_abi_v3_11_2@nlohmann@@@8 	 DATA
	??_R0?AVruntime_error@std@@@8 	 DATA
	??_R0?AVtype_error@detail@json_abi_v3_11_2@nlohmann@@@8 	 DATA
	??_R0P6A_JAEAVStream@httplib@@AEBV?$unordered_multimap@V?$basic_string@DU?$char_traits@D@std@@V?$allocator@D@2@@std@@V12@Uhash@case_ignore@detail@httplib@@Uequal_to@456@V?$allocator@U?$pair@$$CBV?$basic_string@DU?$char_traits@D@std@@V?$allocator@D@2@@std@@V12@@std@@@2@@std@@@Z@8 	 DATA
	??__J?1??append_query_params@httplib@@YA?AV?$basic_string@DU?$char_traits@D@std@@V?$allocator@D@2@@std@@AEBV23@AEBV?$multimap@V?$basic_string@DU?$char_traits@D@std@@V?$allocator@D@2@@std@@V12@U?$less@V?$basic_string@DU?$char_traits@D@std@@V?$allocator@D@2@@std@@@2@V?$allocator@U?$pair@$$CBV?$basic_string@DU?$char_traits@D@std@@V?$allocator@D@2@@std@@V12@@std@@@2@@3@@Z@51 	 DATA
	??__J?1??parse_trailers@detail@httplib@@YA_NAEAVstream_line_reader@12@AEAV?$unordered_multimap@V?$basic_string@DU?$char_traits@D@std@@V?$allocator@D@2@@std@@V12@Uhash@case_ignore@detail@httplib@@Uequal_to@456@V?$allocator@U?$pair@$$CBV?$basic_string@DU?$char_traits@D@std@@V?$allocator@D@2@@std@@V12@@std@@@2@@std@@AEBV45@@Z@51 	 DATA
	??__J?1??random_string@detail@httplib@@YA?AV?$basic_string@DU?$char_traits@D@std@@V?$allocator@D@2@@std@@_K@Z@51 	 DATA
	??__J?1??read_response_line@ClientImpl@httplib@@AEBA_NAEAVStream@2@AEBURequest@2@AEAUResponse@2@_N@Z@51 	 DATA
	??__J?4??parse_www_authenticate@detail@httplib@@YA_NAEBUResponse@2@AEAV?$map@V?$basic_string@DU?$char_traits@D@std@@V?$allocator@D@2@@std@@V12@U?$less@V?$basic_string@DU?$char_traits@D@std@@V?$allocator@D@2@@std@@@2@V?$allocator@U?$pair@$$CBV?$basic_string@DU?$char_traits@D@std@@V?$allocator@D@2@@std@@V12@@std@@@2@@std@@_N@Z@54 	 DATA
	?_OptionsStorage@?1??__local_stdio_printf_options@@9@4_KA 	 DATA
	?_Psave@?$_Facetptr@V?$codecvt@DDU_Mbstatet@@@std@@@std@@2PEBVfacet@locale@2@EB 	 DATA
	?_Psave@?$_Facetptr@V?$collate@D@std@@@std@@2PEBVfacet@locale@2@EB 	 DATA
	?_Psave@?$_Facetptr@V?$ctype@D@std@@@std@@2PEBVfacet@locale@2@EB 	 DATA
	?_Psave@?$_Facetptr@V?$time_put@DV?$ostreambuf_iterator@DU?$char_traits@D@std@@@std@@@std@@@std@@2PEBVfacet@locale@2@EB 	 DATA
	?_Stinit@?1??_Init@?$basic_filebuf@DU?$char_traits@D@std@@@std@@IEAAXPEAU_iobuf@@W4_Initfl@23@@Z@4U_Mbstatet@@A 	 DATA
	?cache_@ProofCache@phase4@midnight@@0V?$map@V?$basic_string@DU?$char_traits@D@std@@V?$allocator@D@2@@std@@U?$pair@UZkProof@phase4@midnight@@_K@2@U?$less@V?$basic_string@DU?$char_traits@D@std@@V?$allocator@D@2@@std@@@2@V?$allocator@U?$pair@$$CBV?$basic_string@DU?$char_traits@D@std@@V?$allocator@D@2@@std@@U?$pair@UZkProof@phase4@midnight@@_K@2@@std@@@2@@std@@A 	 DATA
	?engine@?1??random_string@detail@httplib@@YA?AV?$basic_string@DU?$char_traits@D@std@@V?$allocator@D@2@@std@@_K@Z@4V?$mersenne_twister_engine@I$0CA@$0CHA@$0BIN@$0BP@$0JJAILANP@$0L@$0PPPPPPPP@$06$0JNCMFGIA@$0P@$0OPMGAAAA@$0BC@$0GMAHIJGF@@5@A 	 DATA
	?from_json@json_abi_v3_11_2@nlohmann@@3AEBUfrom_json_fn@detail@12@EB 	 DATA
	?g_config@midnight@@3V?$shared_ptr@VConfig@midnight@@@std@@A 	 DATA
	?g_logger@midnight@@3V?$shared_ptr@VLogger@midnight@@@std@@A 	 DATA
	?generation_times_@ProofPerformanceMonitor@phase4@midnight@@0V?$vector@_KV?$allocator@_K@std@@@std@@A 	 DATA
	?prohibited_trailers@?1??parse_trailers@detail@httplib@@YA_NAEAVstream_line_reader@23@AEAV?$unordered_multimap@V?$basic_string@DU?$char_traits@D@std@@V?$allocator@D@2@@std@@V12@Uhash@case_ignore@detail@httplib@@Uequal_to@456@V?$allocator@U?$pair@$$CBV?$basic_string@DU?$char_traits@D@std@@V?$allocator@D@2@@std@@V12@@std@@@2@@std@@AEBV56@@Z@4V?$unordered_set@V?$basic_string@DU?$char_traits@D@std@@V?$allocator@D@2@@std@@Uhash@case_ignore@detail@httplib@@Uequal_to@456@V?$allocator@V?$basic_string@DU?$char_traits@D@std@@V?$allocator@D@2@@std@@@2@@6@A 	 DATA
	?re@?1??append_query_params@httplib@@YA?AV?$basic_string@DU?$char_traits@D@std@@V?$allocator@D@2@@std@@AEBV34@AEBV?$multimap@V?$basic_string@DU?$char_traits@D@std@@V?$allocator@D@2@@std@@V12@U?$less@V?$basic_string@DU?$char_traits@D@std@@V?$allocator@D@2@@std@@@2@V?$allocator@U?$pair@$$CBV?$basic_string@DU?$char_traits@D@std@@V?$allocator@D@2@@std@@V12@@std@@@2@@4@@Z@4V?$basic_regex@DV?$regex_traits@D@std@@@4@B 	 DATA
	?re@?1??read_response_line@ClientImpl@httplib@@AEBA_NAEAVStream@3@AEBURequest@3@AEAUResponse@3@_N@Z@4V?$basic_regex@DV?$regex_traits@D@std@@@std@@B 	 DATA
	?re@?4??parse_www_authenticate@detail@httplib@@YA_NAEBUResponse@3@AEAV?$map@V?$basic_string@DU?$char_traits@D@std@@V?$allocator@D@2@@std@@V12@U?$less@V?$basic_string@DU?$char_traits@D@std@@V?$allocator@D@2@@std@@@2@V?$allocator@U?$pair@$$CBV?$basic_string@DU?$char_traits@D@std@@V?$allocator@D@2@@std@@V12@@std@@@2@@std@@_N@Z@4V?$basic_regex@DV?$regex_traits@D@std@@@6@A 	 DATA
	?store_names@?1??load_system_certs@tls@httplib@@YA_NPEAX@Z@4PAPEB_WA 	 DATA
	?to_json@json_abi_v3_11_2@nlohmann@@3AEBUto_json_fn@detail@12@EB 	 DATA
	?verification_times_@ProofPerformanceMonitor@phase4@midnight@@0V?$vector@_KV?$allocator@_K@std@@@std@@A 	 DATA
	_Avx2WmemEnabledWeakValue 	 DATA
	??$?0$$CBV?$basic_string@DU?$char_traits@D@std@@V?$allocator@D@2@@std@@V01@$0A@@?$pair@$$CBV?$basic_string@DU?$char_traits@D@std@@V?$allocator@D@2@@std@@V12@@std@@QEAA@AEBV?$basic_string@DU?$char_traits@D@std@@V?$allocator@D@2@@1@0@Z
	??$?0$$QEAV?$basic_string@DU?$char_traits@D@std@@V?$allocator@D@2@@std@@$$Z$$V@?$pair@$$CBV?$basic_string@DU?$char_traits@D@std@@V?$allocator@D@2@@std@@V12@@std@@QEAA@Upiecewise_construct_t@1@V?$tuple@$$QEAV?$basic_string@DU?$char_traits@D@std@@V?$allocator@D@2@@std@@@1@V?$tuple@$$V@1@@Z
	??$?0$$T$$T$0A@@?$pair@V?$unique_ptr@Vcompressor@detail@httplib@@U?$default_delete@Vcompressor@detail@httplib@@@std@@@std@@PEBD@std@@QEAA@$$QEA$$T0@Z
	??$?0$$V@?$_Compressed_pair@U?$default_delete@UChunkedDecoder@detail@httplib@@@std@@PEAUChunkedDecoder@detail@httplib@@$00@std@@QEAA@U_Zero_then_variadic_args_t@1@@Z
	??$?0$$V@?$_Compressed_pair@U?$default_delete@UResponse@httplib@@@std@@PEAUResponse@httplib@@$00@std@@QEAA@U_Zero_then_variadic_args_t@1@@Z
	??$?0$$V@?$_Compressed_pair@U?$default_delete@VMidnightNodeRPC@network@midnight@@@std@@PEAVMidnightNodeRPC@network@midnight@@$00@std@@QEAA@U_Zero_then_variadic_args_t@1@@Z
	??$?0$$V@?$_Compressed_pair@U?$default_delete@Vcompressor@detail@httplib@@@std@@PEAVcompressor@detail@httplib@@$00@std@@QEAA@U_Zero_then_variadic_args_t@1@@Z
	??$?0$$V@?$_Compressed_pair@U?$default_delete@Vdecompressor@detail@httplib@@@std@@PEAVdecompressor@detail@httplib@@$00@std@@QEAA@U_Zero_then_variadic_args_t@1@@Z
	??$?0$$V@?$_Compressed_pair@V?$allocator@D@std@@V?$_String_val@U?$_Simple_types@D@std@@@2@$00@std@@QEAA@U_Zero_then_variadic_args_t@1@@Z
	??$?0$$V@?$_Compressed_pair@V?$allocator@D@std@@V?$_Vector_val@U?$_Simple_types@D@std@@@2@$00@std@@QEAA@U_Zero_then_variadic_args_t@1@@Z
	??$?0$$V@?$_Compressed_pair@V?$allocator@E@std@@V?$_Vector_val@U?$_Simple_types@E@std@@@2@$00@std@@QEAA@U_Zero_then_variadic_args_t@1@@Z
	??$?0$$V@?$_Compressed_pair@V?$allocator@I@std@@V?$_Vector_val@U?$_Simple_types@I@std@@@2@$00@std@@QEAA@U_Zero_then_variadic_args_t@1@@Z
	??$?0$$V@?$_Compressed_pair@V?$allocator@PEAV?$basic_json@Vmap@std@@Vvector@2@V?$basic_string@DU?$char_traits@D@std@@V?$allocator@D@2@@2@_N_J_KNVallocator@2@Uadl_serializer@json_abi_v3_11_2@nlohmann@@V?$vector@EV?$allocator@E@std@@@2@@json_abi_v3_11_2@nlohmann@@@std@@V?$_Vector_val@U?$_Simple_types@PEAV?$basic_json@Vmap@std@@Vvector@2@V?$basic_string@DU?$char_traits@D@std@@V?$allocator@D@2@@2@_N_J_KNVallocator@2@Uadl_serializer@json_abi_v3_11_2@nlohmann@@V?$vector@EV?$allocator@E@std@@@2@@json_abi_v3_11_2@nlohmann@@@std@@@2@$00@std@@QEAA@U_Zero_then_variadic_args_t@1@@Z
	??$?0$$V@?$_Compressed_pair@V?$allocator@U?$_Tree_node@U?$pair@$$CBV?$basic_string@DU?$char_traits@D@std@@V?$allocator@D@2@@std@@U?$pair@UZkProof@phase4@midnight@@_K@2@@std@@PEAX@std@@@std@@V?$_Tree_val@U?$_Tree_simple_types@U?$pair@$$CBV?$basic_string@DU?$char_traits@D@std@@V?$allocator@D@2@@std@@U?$pair@UZkProof@phase4@midnight@@_K@2@@std@@@std@@@2@$00@std@@QEAA@U_Zero_then_variadic_args_t@1@@Z
	??$?0$$V@?$_Compressed_pair@V?$allocator@U?$_Tree_node@U?$pair@$$CBV?$basic_string@DU?$char_traits@D@std@@V?$allocator@D@2@@std@@UContractState@zk@midnight@@@std@@PEAX@std@@@std@@V?$_Tree_val@U?$_Tree_simple_types@U?$pair@$$CBV?$basic_string@DU?$char_traits@D@std@@V?$allocator@D@2@@std@@UContractState@zk@midnight@@@std@@@std@@@2@$00@std@@QEAA@U_Zero_then_variadic_args_t@1@@Z
	??$?0$$V@?$_Compressed_pair@V?$allocator@U?$_Tree_node@U?$pair@$$CBV?$basic_string@DU?$char_traits@D@std@@V?$allocator@D@2@@std@@UFormData@httplib@@@std@@PEAX@std@@@std@@V?$_Tree_val@U?$_Tree_simple_types@U?$pair@$$CBV?$basic_string@DU?$char_traits@D@std@@V?$allocator@D@2@@std@@UFormData@httplib@@@std@@@std@@@2@$00@std@@QEAA@U_Zero_then_variadic_args_t@1@@Z
	??$?0$$V@?$_Compressed_pair@V?$allocator@U?$_Tree_node@U?$pair@$$CBV?$basic_string@DU?$char_traits@D@std@@V?$allocator@D@2@@std@@UFormField@httplib@@@std@@PEAX@std@@@std@@V?$_Tree_val@U?$_Tree_simple_types@U?$pair@$$CBV?$basic_string@DU?$char_traits@D@std@@V?$allocator@D@2@@std@@UFormField@httplib@@@std@@@std@@@2@$00@std@@QEAA@U_Zero_then_variadic_args_t@1@@Z
	??$?0$$V@?$_Compressed_pair@V?$allocator@U?$_Tree_node@U?$pair@$$CBV?$basic_string@DU?$char_traits@D@std@@V?$allocator@D@2@@std@@USubmissionResult@phase5@midnight@@@std@@PEAX@std@@@std@@V?$_Tree_val@U?$_Tree_simple_types@U?$pair@$$CBV?$basic_string@DU?$char_traits@D@std@@V?$allocator@D@2@@std@@USubmissionResult@phase5@midnight@@@std@@@std@@@2@$00@std@@QEAA@U_Zero_then_variadic_args_t@1@@Z
	??$?0$$V@?$_Compressed_pair@V?$allocator@U?$_Tree_node@U?$pair@$$CBV?$basic_string@DU?$char_traits@D@std@@V?$allocator@D@2@@std@@UTransactionStatusUpdate@phase6@midnight@@@std@@PEAX@std@@@std@@V?$_Tree_val@U?$_Tree_simple_types@U?$pair@$$CBV?$basic_string@DU?$char_traits@D@std@@V?$allocator@D@2@@std@@UTransactionStatusUpdate@phase6@midnight@@@std@@@std@@@2@$00@std@@QEAA@U_Zero_then_variadic_args_t@1@@Z
	??$?0$$V@?$_Compressed_pair@V?$allocator@U?$_Tree_node@U?$pair@$$CBV?$basic_string@DU?$char_traits@D@std@@V?$allocator@D@2@@std@@UWitnessOutput@zk@midnight@@@std@@PEAX@std@@@std@@V?$_Tree_val@U?$_Tree_simple_types@U?$pair@$$CBV?$basic_string@DU?$char_traits@D@std@@V?$allocator@D@2@@std@@UWitnessOutput@zk@midnight@@@std@@@std@@@2@$00@std@@QEAA@U_Zero_then_variadic_args_t@1@@Z
	??$?0$$V@?$_Compressed_pair@V?$allocator@U?$_Tree_node@U?$pair@$$CBV?$basic_string@DU?$char_traits@D@std@@V?$allocator@D@2@@std@@V12@@std@@PEAX@std@@@std@@V?$_Tree_val@U?$_Tree_simple_types@U?$pair@$$CBV?$basic_string@DU?$char_traits@D@std@@V?$allocator@D@2@@std@@V12@@std@@@std@@@2@$00@std@@QEAA@U_Zero_then_variadic_args_t@1@@Z
	??$?0$$V@?$_Compressed_pair@V?$allocator@U?$_Tree_node@U?$pair@$$CBV?$basic_string@DU?$char_traits@D@std@@V?$allocator@D@2@@std@@V?$basic_json@Vmap@std@@Vvector@2@V?$basic_string@DU?$char_traits@D@std@@V?$allocator@D@2@@2@_N_J_KNVallocator@2@Uadl_serializer@json_abi_v3_11_2@nlohmann@@V?$vector@EV?$allocator@E@std@@@2@@json_abi_v3_11_2@nlohmann@@@std@@PEAX@std@@@std@@V?$_Tree_val@U?$_Tree_simple_types@U?$pair@$$CBV?$basic_string@DU?$char_traits@D@std@@V?$allocator@D@2@@std@@V?$basic_json@Vmap@std@@Vvector@2@V?$basic_string@DU?$char_traits@D@std@@V?$allocator@D@2@@2@_N_J_KNVallocator@2@Uadl_serializer@json_abi_v3_11_2@nlohmann@@V?$vector@EV?$allocator@E@std@@@2@@json_abi_v3_11_2@nlohmann@@@std@@@std@@@2@$00@std@@QEAA@U_Zero_then_variadic_args_t@1@@Z
	??$?0$$V@?$_Compressed_pair@V?$allocator@U?$_Tree_node@U?$pair@$$CBV?$basic_string@DU?$char_traits@D@std@@V?$allocator@D@2@@std@@V?$vector@EV?$allocator@E@std@@@2@@std@@PEAX@std@@@std@@V?$_Tree_val@U?$_Tree_simple_types@U?$pair@$$CBV?$basic_string@DU?$char_traits@D@std@@V?$allocator@D@2@@std@@V?$vector@EV?$allocator@E@std@@@2@@std@@@std@@@2@$00@std@@QEAA@U_Zero_then_variadic_args_t@1@@Z
	??$?0$$V@?$_Compressed_pair@V?$allocator@U?$_Tree_node@U?$pair@$$CBV?$basic_string@DU?$char_traits@D@std@@V?$allocator@D@2@@std@@V?$vector@UContractState@zk@midnight@@V?$allocator@UContractState@zk@midnight@@@std@@@2@@std@@PEAX@std@@@std@@V?$_Tree_val@U?$_Tree_simple_types@U?$pair@$$CBV?$basic_string@DU?$char_traits@D@std@@V?$allocator@D@2@@std@@V?$vector@UContractState@zk@midnight@@V?$allocator@UContractState@zk@midnight@@@std@@@2@@std@@@std@@@2@$00@std@@QEAA@U_Zero_then_variadic_args_t@1@@Z
	??$?0$$V@?$_Compressed_pair@V?$allocator@U?$_Tree_node@U?$pair@$$CBV?$basic_string@DU?$char_traits@D@std@@V?$allocator@D@2@@std@@_K@std@@PEAX@std@@@std@@V?$_Tree_val@U?$_Tree_simple_types@U?$pair@$$CBV?$basic_string@DU?$char_traits@D@std@@V?$allocator@D@2@@std@@_K@std@@@std@@@2@$00@std@@QEAA@U_Zero_then_variadic_args_t@1@@Z
	??$?0$$V@?$_Compressed_pair@V?$allocator@U?$_Tree_node@V?$basic_string@DU?$char_traits@D@std@@V?$allocator@D@2@@std@@PEAX@std@@@std@@V?$_Tree_val@U?$_Tree_simple_types@V?$basic_string@DU?$char_traits@D@std@@V?$allocator@D@2@@std@@@std@@@2@$00@std@@QEAA@U_Zero_then_variadic_args_t@1@@Z
	??$?0$$V@?$_Compressed_pair@V?$allocator@U?$pair@_J_J@std@@@std@@V?$_Vector_val@U?$_Simple_types@U?$pair@_J_J@std@@@std@@@2@$00@std@@QEAA@U_Zero_then_variadic_args_t@1@@Z
	??$?0$$V@?$_Compressed_pair@V?$allocator@UAbiFunction@phase2@midnight@@@std@@V?$_Vector_val@U?$_Simple_types@UAbiFunction@phase2@midnight@@@std@@@2@$00@std@@QEAA@U_Zero_then_variadic_args_t@1@@Z
	??$?0$$V@?$_Compressed_pair@V?$allocator@UAbiParam@phase2@midnight@@@std@@V?$_Vector_val@U?$_Simple_types@UAbiParam@phase2@midnight@@@std@@@2@$00@std@@QEAA@U_Zero_then_variadic_args_t@1@@Z
	??$?0$$V@?$_Compressed_pair@V?$allocator@UBlockEvent@zk@midnight@@@std@@V?$_Vector_val@U?$_Simple_types@UBlockEvent@zk@midnight@@@std@@@2@$00@std@@QEAA@U_Zero_then_variadic_args_t@1@@Z
	??$?0$$V@?$_Compressed_pair@V?$allocator@UCertificate@Transaction@blockchain@midnight@@@std@@V?$_Vector_val@U?$_Simple_types@UCertificate@Transaction@blockchain@midnight@@@std@@@2@$00@std@@QEAA@U_Zero_then_variadic_args_t@1@@Z
	??$?0$$V@?$_Compressed_pair@V?$allocator@UContractState@zk@midnight@@@std@@V?$_Vector_val@U?$_Simple_types@UContractState@zk@midnight@@@std@@@2@$00@std@@QEAA@U_Zero_then_variadic_args_t@1@@Z
	??$?0$$V@?$_Compressed_pair@V?$allocator@UInput@Transaction@blockchain@midnight@@@std@@V?$_Vector_val@U?$_Simple_types@UInput@Transaction@blockchain@midnight@@@std@@@2@$00@std@@QEAA@U_Zero_then_variadic_args_t@1@@Z
	??$?0$$V@?$_Compressed_pair@V?$allocator@UOutput@Transaction@blockchain@midnight@@@std@@V?$_Vector_val@U?$_Simple_types@UOutput@Transaction@blockchain@midnight@@@std@@@2@$00@std@@QEAA@U_Zero_then_variadic_args_t@1@@Z
	??$?0$$V@?$_Compressed_pair@V?$allocator@UQueuedRequest@ProofServerResilientClient@zk@midnight@@@std@@V?$_Deque_val@U?$_Deque_simple_types@UQueuedRequest@ProofServerResilientClient@zk@midnight@@@std@@@2@$00@std@@QEAA@U_Zero_then_variadic_args_t@1@@Z
	??$?0$$V@?$_Compressed_pair@V?$allocator@USubmissionResult@phase5@midnight@@@std@@V?$_Vector_val@U?$_Simple_types@USubmissionResult@phase5@midnight@@@std@@@2@$00@std@@QEAA@U_Zero_then_variadic_args_t@1@@Z
	??$?0$$V@?$_Compressed_pair@V?$allocator@USyncResult@zk@midnight@@@std@@V?$_Vector_val@U?$_Simple_types@USyncResult@zk@midnight@@@std@@@2@$00@std@@QEAA@U_Zero_then_variadic_args_t@1@@Z
	??$?0$$V@?$_Compressed_pair@V?$allocator@UUTXO@blockchain@midnight@@@std@@V?$_Vector_val@U?$_Simple_types@UUTXO@blockchain@midnight@@@std@@@2@$00@std@@QEAA@U_Zero_then_variadic_args_t@1@@Z
	??$?0$$V@?$_Compressed_pair@V?$allocator@UUtxo@phase3@midnight@@@std@@V?$_Vector_val@U?$_Simple_types@UUtxo@phase3@midnight@@@std@@@2@$00@std@@QEAA@U_Zero_then_variadic_args_t@1@@Z
	??$?0$$V@?$_Compressed_pair@V?$allocator@UUtxoInput@phase3@midnight@@@std@@V?$_Vector_val@U?$_Simple_types@UUtxoInput@phase3@midnight@@@std@@@2@$00@std@@QEAA@U_Zero_then_variadic_args_t@1@@Z
	??$?0$$V@?$_Compressed_pair@V?$allocator@UUtxoOutput@phase3@midnight@@@std@@V?$_Vector_val@U?$_Simple_types@UUtxoOutput@phase3@midnight@@@std@@@2@$00@std@@QEAA@U_Zero_then_variadic_args_t@1@@Z
	??$?0$$V@?$_Compressed_pair@V?$allocator@U_Grp_t@?$_Tgt_state_t@PEBD@std@@@std@@V?$_Vector_val@U?$_Simple_types@U_Grp_t@?$_Tgt_state_t@PEBD@std@@@std@@@2@$00@std@@QEAA@U_Zero_then_variadic_args_t@1@@Z
	??$?0$$V@?$_Compressed_pair@V?$allocator@U_Grp_t@?$_Tgt_state_t@V?$_String_const_iterator@V?$_String_val@U?$_Simple_types@D@std@@@std@@@std@@@std@@@std@@V?$_Vector_val@U?$_Simple_types@U_Grp_t@?$_Tgt_state_t@V?$_String_const_iterator@V?$_String_val@U?$_Simple_types@D@std@@@std@@@std@@@std@@@std@@@2@$00@std@@QEAA@U_Zero_then_variadic_args_t@1@@Z
	??$?0$$V@?$_Compressed_pair@V?$allocator@U_Loop_vals_v2_t@std@@@std@@V?$_Vector_val@U?$_Simple_types@U_Loop_vals_v2_t@std@@@std@@@2@$00@std@@QEAA@U_Zero_then_variadic_args_t@1@@Z
	??$?0$$V@?$_Compressed_pair@V?$allocator@V?$_Tgt_state_t@PEBD@std@@@std@@V?$_Vector_val@U?$_Simple_types@V?$_Tgt_state_t@PEBD@std@@@std@@@2@$00@std@@QEAA@U_Zero_then_variadic_args_t@1@@Z
	??$?0$$V@?$_Compressed_pair@V?$allocator@V?$_Tgt_state_t@V?$_String_const_iterator@V?$_String_val@U?$_Simple_types@D@std@@@std@@@std@@@std@@@std@@V?$_Vector_val@U?$_Simple_types@V?$_Tgt_state_t@V?$_String_const_iterator@V?$_String_val@U?$_Simple_types@D@std@@@std@@@std@@@std@@@std@@@2@$00@std@@QEAA@U_Zero_then_variadic_args_t@1@@Z
	??$?0$$V@?$_Compressed_pair@V?$allocator@V?$basic_json@Vmap@std@@Vvector@2@V?$basic_string@DU?$char_traits@D@std@@V?$allocator@D@2@@2@_N_J_KNVallocator@2@Uadl_serializer@json_abi_v3_11_2@nlohmann@@V?$vector@EV?$allocator@E@std@@@2@@json_abi_v3_11_2@nlohmann@@@std@@V?$_Vector_val@U?$_Simple_types@V?$basic_json@Vmap@std@@Vvector@2@V?$basic_string@DU?$char_traits@D@std@@V?$allocator@D@2@@2@_N_J_KNVallocator@2@Uadl_serializer@json_abi_v3_11_2@nlohmann@@V?$vector@EV?$allocator@E@std@@@2@@json_abi_v3_11_2@nlohmann@@@std@@@2@$00@std@@QEAA@U_Zero_then_variadic_args_t@1@@Z
	??$?0$$V@?$_Compressed_pair@V?$allocator@V?$basic_string@DU?$char_traits@D@std@@V?$allocator@D@2@@std@@@std@@V?$_Vector_val@U?$_Simple_types@V?$basic_string@DU?$char_traits@D@std@@V?$allocator@D@2@@std@@@std@@@2@$00@std@@QEAA@U_Zero_then_variadic_args_t@1@@Z
	??$?0$$V@?$_Compressed_pair@V?$allocator@V?$sub_match@PEBD@std@@@std@@V?$_Vector_val@U?$_Simple_types@V?$sub_match@PEBD@std@@@std@@@2@$00@std@@QEAA@U_Zero_then_variadic_args_t@1@@Z
	??$?0$$V@?$_Compressed_pair@V?$allocator@V?$sub_match@V?$_String_const_iterator@V?$_String_val@U?$_Simple_types@D@std@@@std@@@std@@@std@@@std@@V?$_Vector_val@U?$_Simple_types@V?$sub_match@V?$_String_const_iterator@V?$_String_val@U?$_Simple_types@D@std@@@std@@@std@@@std@@@std@@@2@$00@std@@QEAA@U_Zero_then_variadic_args_t@1@@Z
	??$?0$$V@?$_Compressed_pair@V?$allocator@_K@std@@V?$_Vector_val@U?$_Simple_types@_K@std@@@2@$00@std@@QEAA@U_Zero_then_variadic_args_t@1@@Z
	??$?0$$V@?$_Compressed_pair@V?$allocator@_W@std@@V?$_String_val@U?$_Simple_types@_W@std@@@2@$00@std@@QEAA@U_Zero_then_variadic_args_t@1@@Z
	??$?0$$V@?$_Ref_count_obj2@VConfig@midnight@@@std@@QEAA@XZ
	??$?0$$V@?$_Ref_count_obj2@VConsoleLogger@midnight@@@std@@QEAA@XZ
	??$?0$$V@?$_Ref_count_obj2@VProofServerClient@zk@midnight@@@std@@QEAA@XZ
	??$?0A6A_JAEAVStream@httplib@@AEBV?$unordered_multimap@V?$basic_string@DU?$char_traits@D@std@@V?$allocator@D@2@@std@@V12@Uhash@case_ignore@detail@httplib@@Uequal_to@456@V?$allocator@U?$pair@$$CBV?$basic_string@DU?$char_traits@D@std@@V?$allocator@D@2@@std@@V12@@std@@@2@@std@@@Z$0A@@?$_Func_impl_no_alloc@P6A_JAEAVStream@httplib@@AEBV?$unordered_multimap@V?$basic_string@DU?$char_traits@D@std@@V?$allocator@D@2@@std@@V12@Uhash@case_ignore@detail@httplib@@Uequal_to@456@V?$allocator@U?$pair@$$CBV?$basic_string@DU?$char_traits@D@std@@V?$allocator@D@2@@std@@V12@@std@@@2@@std@@@Z_JAEAV12@AEAV34@@std@@QEAA@A6A_JAEAVStream@httplib@@AEBV?$unordered_multimap@V?$basic_string@DU?$char_traits@D@std@@V?$allocator@D@2@@std@@V12@Uhash@case_ignore@detail@httplib@@Uequal_to@456@V?$allocator@U?$pair@$$CBV?$basic_string@DU?$char_traits@D@std@@V?$allocator@D@2@@std@@V12@@std@@@2@@1@@Z@Z
	??$?0A6A_JAEAVStream@httplib@@AEBV?$unordered_multimap@V?$basic_string@DU?$char_traits@D@std@@V?$allocator@D@2@@std@@V12@Uhash@case_ignore@detail@httplib@@Uequal_to@456@V?$allocator@U?$pair@$$CBV?$basic_string@DU?$char_traits@D@std@@V?$allocator@D@2@@std@@V12@@std@@@2@@std@@@Z$0A@@?$function@$$A6A_JAEAVStream@httplib@@AEAV?$unordered_multimap@V?$basic_string@DU?$char_traits@D@std@@V?$allocator@D@2@@std@@V12@Uhash@case_ignore@detail@httplib@@Uequal_to@456@V?$allocator@U?$pair@$$CBV?$basic_string@DU?$char_traits@D@std@@V?$allocator@D@2@@std@@V12@@std@@@2@@std@@@Z@std@@QEAA@A6A_JAEAVStream@httplib@@AEBV?$unordered_multimap@V?$basic_string@DU?$char_traits@D@std@@V?$allocator@D@2@@std@@V12@Uhash@case_ignore@detail@httplib@@Uequal_to@456@V?$allocator@U?$pair@$$CBV?$basic_string@DU?$char_traits@D@std@@V?$allocator@D@2@@std@@V12@@std@@@2@@1@@Z@Z
	??$?0AEANN$0A@@?$basic_json@Vmap@std@@Vvector@2@V?$basic_string@DU?$char_traits@D@std@@V?$allocator@D@2@@2@_N_J_KNVallocator@2@Uadl_serializer@json_abi_v3_11_2@nlohmann@@V?$vector@EV?$allocator@E@std@@@2@@json_abi_v3_11_2@nlohmann@@QEAA@AEAN@Z
	??$?0AEAPEAU?$_Tree_node@U?$pair@$$CBV?$basic_string@DU?$char_traits@D@std@@V?$allocator@D@2@@std@@UContractState@zk@midnight@@@std@@PEAX@std@@AEAPEAU01@$0A@@?$pair@PEAU?$_Tree_node@U?$pair@$$CBV?$basic_string@DU?$char_traits@D@std@@V?$allocator@D@2@@std@@UContractState@zk@midnight@@@std@@PEAX@std@@PEAU12@@std@@QEAA@AEAPEAU?$_Tree_node@U?$pair@$$CBV?$basic_string@DU?$char_traits@D@std@@V?$allocator@D@2@@std@@UContractState@zk@midnight@@@std@@PEAX@1@0@Z
	??$?0AEAPEAU?$_Tree_node@U?$pair@$$CBV?$basic_string@DU?$char_traits@D@std@@V?$allocator@D@2@@std@@V?$basic_json@Vmap@std@@Vvector@2@V?$basic_string@DU?$char_traits@D@std@@V?$allocator@D@2@@2@_N_J_KNVallocator@2@Uadl_serializer@json_abi_v3_11_2@nlohmann@@V?$vector@EV?$allocator@E@std@@@2@@json_abi_v3_11_2@nlohmann@@@std@@PEAX@std@@_N$0A@@?$pair@PEAU?$_Tree_node@U?$pair@$$CBV?$basic_string@DU?$char_traits@D@std@@V?$allocator@D@2@@std@@V?$basic_json@Vmap@std@@Vvector@2@V?$basic_string@DU?$char_traits@D@std@@V?$allocator@D@2@@2@_N_J_KNVallocator@2@Uadl_serializer@json_abi_v3_11_2@nlohmann@@V?$vector@EV?$allocator@E@std@@@2@@json_abi_v3_11_2@nlohmann@@@std@@PEAX@std@@_N@std@@QEAA@AEAPEAU?$_Tree_node@U?$pair@$$CBV?$basic_string@DU?$char_traits@D@std@@V?$allocator@D@2@@std@@V?$basic_json@Vmap@std@@Vvector@2@V?$basic_string@DU?$char_traits@D@std@@V?$allocator@D@2@@2@_N_J_KNVallocator@2@Uadl_serializer@json_abi_v3_11_2@nlohmann@@V?$vector@EV?$allocator@E@std@@@2@@json_abi_v3_11_2@nlohmann@@@std@@PEAX@1@$$QEA_N@Z
	??$?0AEAPEAU?$_Tree_node@U?$pair@$$CBV?$basic_string@DU?$char_traits@D@std@@V?$allocator@D@2@@std@@V?$function@$$A6AXAEBV?$basic_string@DU?$char_traits@D@std@@V?$allocator@D@2@@std@@@Z@2@@std@@PEAX@std@@AEAPEAU01@$0A@@?$pair@PEAU?$_Tree_node@U?$pair@$$CBV?$basic_string@DU?$char_traits@D@std@@V?$allocator@D@2@@std@@V?$function@$$A6AXAEBV?$basic_string@DU?$char_traits@D@std@@V?$allocator@D@2@@std@@@Z@2@@std@@PEAX@std@@PEAU12@@std@@QEAA@AEAPEAU?$_Tree_node@U?$pair@$$CBV?$basic_string@DU?$char_traits@D@std@@V?$allocator@D@2@@std@@V?$function@$$A6AXAEBV?$basic_string@DU?$char_traits@D@std@@V?$allocator@D@2@@std@@@Z@2@@std@@PEAX@1@0@Z
	??$?0AEAPEAU?$_Tree_node@V?$basic_string@DU?$char_traits@D@std@@V?$allocator@D@2@@std@@PEAX@std@@AEAPEAU01@$0A@@?$pair@PEAU?$_Tree_node@V?$basic_string@DU?$char_traits@D@std@@V?$allocator@D@2@@std@@PEAX@std@@PEAU12@@std@@QEAA@AEAPEAU?$_Tree_node@V?$basic_string@DU?$char_traits@D@std@@V?$allocator@D@2@@std@@PEAX@1@0@Z
	??$?0AEAPEAU?$_Tree_node@V?$basic_string@DU?$char_traits@D@std@@V?$allocator@D@2@@std@@PEAX@std@@_N$0A@@?$pair@PEAU?$_Tree_node@V?$basic_string@DU?$char_traits@D@std@@V?$allocator@D@2@@std@@PEAX@std@@_N@std@@QEAA@AEAPEAU?$_Tree_node@V?$basic_string@DU?$char_traits@D@std@@V?$allocator@D@2@@std@@PEAX@1@$$QEA_N@Z
	??$?0AEAPEAUResponse@httplib@@@?$_Compressed_pair@U?$default_delete@UResponse@httplib@@@std@@PEAUResponse@httplib@@$00@std@@QEAA@U_Zero_then_variadic_args_t@1@AEAPEAUResponse@httplib@@@Z
	??$?0AEAPEAVClientImpl@httplib@@@?$_Compressed_pair@U?$default_delete@VClientImpl@httplib@@@std@@PEAVClientImpl@httplib@@$00@std@@QEAA@U_Zero_then_variadic_args_t@1@AEAPEAVClientImpl@httplib@@@Z
	??$?0AEAPEAVMidnightNodeRPC@network@midnight@@@?$_Compressed_pair@U?$default_delete@VMidnightNodeRPC@network@midnight@@@std@@PEAVMidnightNodeRPC@network@midnight@@$00@std@@QEAA@U_Zero_then_variadic_args_t@1@AEAPEAVMidnightNodeRPC@network@midnight@@@Z
	??$?0AEAPEAVNetworkClient@network@midnight@@@?$_Compressed_pair@U?$default_delete@VNetworkClient@network@midnight@@@std@@PEAVNetworkClient@network@midnight@@$00@std@@QEAA@U_Zero_then_variadic_args_t@1@AEAPEAVNetworkClient@network@midnight@@@Z
	??$?0AEAPEAV_Facet_base@std@@@?$_Compressed_pair@U?$default_delete@V_Facet_base@std@@@std@@PEAV_Facet_base@2@$00@std@@QEAA@U_Zero_then_variadic_args_t@1@AEAPEAV_Facet_base@1@@Z
	??$?0AEAPEAV_Node_assert@std@@@?$_Compressed_pair@U?$default_delete@V_Node_assert@std@@@std@@PEAV_Node_assert@2@$00@std@@QEAA@U_Zero_then_variadic_args_t@1@AEAPEAV_Node_assert@1@@Z
	??$?0AEAPEAVnocompressor@detail@httplib@@@?$_Compressed_pair@U?$default_delete@Vnocompressor@detail@httplib@@@std@@PEAVnocompressor@detail@httplib@@$00@std@@QEAA@U_Zero_then_variadic_args_t@1@AEAPEAVnocompressor@detail@httplib@@@Z
	??$?0AEAPEBD@?$format_arg_store@V?$basic_format_context@Vappender@v9@fmt@@D@v9@fmt@@PEBD@v9@fmt@@QEAA@AEAPEBD@Z
	??$?0AEAPEBDAEAV?$basic_string@DU?$char_traits@D@std@@V?$allocator@D@2@@std@@$0A@@?$pair@PEBDV?$basic_string@DU?$char_traits@D@std@@V?$allocator@D@2@@std@@@std@@QEAA@AEAPEBDAEAV?$basic_string@DU?$char_traits@D@std@@V?$allocator@D@2@@1@@Z
	??$?0AEAPEBDV?$basic_string@DU?$char_traits@D@std@@V?$allocator@D@2@@std@@$0A@@?$pair@PEBDV?$basic_string@DU?$char_traits@D@std@@V?$allocator@D@2@@std@@@std@@QEAA@AEAPEBD$$QEAV?$basic_string@DU?$char_traits@D@std@@V?$allocator@D@2@@1@@Z
	??$?0AEAUTransaction@phase3@midnight@@$0A@@?$optional@UTransaction@phase3@midnight@@@std@@QEAA@AEAUTransaction@phase3@midnight@@@Z
	??$?0AEAUTransaction@phase3@midnight@@@?$_Non_trivial_copy@U?$_Optional_construct_base@UTransaction@phase3@midnight@@@std@@@std@@QEAA@Uin_place_t@1@AEAUTransaction@phase3@midnight@@@Z
	??$?0AEAUTransaction@phase3@midnight@@@?$_Non_trivial_copy_assign@U?$_Optional_construct_base@UTransaction@phase3@midnight@@@std@@UTransaction@phase3@midnight@@@std@@QEAA@Uin_place_t@1@AEAUTransaction@phase3@midnight@@@Z
	??$?0AEAUTransaction@phase3@midnight@@@?$_Non_trivial_move@U?$_Optional_construct_base@UTransaction@phase3@midnight@@@std@@UTransaction@phase3@midnight@@@std@@QEAA@Uin_place_t@1@AEAUTransaction@phase3@midnight@@@Z
	??$?0AEAUTransaction@phase3@midnight@@@?$_Non_trivial_move_assign@U?$_Optional_construct_base@UTransaction@phase3@midnight@@@std@@UTransaction@phase3@midnight@@@std@@QEAA@Uin_place_t@1@AEAUTransaction@phase3@midnight@@@Z
	??$?0AEAUTransaction@phase3@midnight@@@?$_Optional_construct_base@UTransaction@phase3@midnight@@@std@@QEAA@Uin_place_t@1@AEAUTransaction@phase3@midnight@@@Z
	??$?0AEAUTransaction@phase3@midnight@@@?$_Optional_destruct_base@UTransaction@phase3@midnight@@$0A@@std@@QEAA@Uin_place_t@1@AEAUTransaction@phase3@midnight@@@Z
	??$?0AEAUWitness@phase4@midnight@@$0A@@?$optional@UWitness@phase4@midnight@@@std@@QEAA@AEAUWitness@phase4@midnight@@@Z
	??$?0AEAUWitness@phase4@midnight@@@?$_Non_trivial_copy@U?$_Optional_construct_base@UWitness@phase4@midnight@@@std@@@std@@QEAA@Uin_place_t@1@AEAUWitness@phase4@midnight@@@Z
	??$?0AEAUWitness@phase4@midnight@@@?$_Non_trivial_copy_assign@U?$_Optional_construct_base@UWitness@phase4@midnight@@@std@@UWitness@phase4@midnight@@@std@@QEAA@Uin_place_t@1@AEAUWitness@phase4@midnight@@@Z
	??$?0AEAUWitness@phase4@midnight@@@?$_Non_trivial_move@U?$_Optional_construct_base@UWitness@phase4@midnight@@@std@@UWitness@phase4@midnight@@@std@@QEAA@Uin_place_t@1@AEAUWitness@phase4@midnight@@@Z
	??$?0AEAUWitness@phase4@midnight@@@?$_Non_trivial_move_assign@U?$_Optional_construct_base@UWitness@phase4@midnight@@@std@@UWitness@phase4@midnight@@@std@@QEAA@Uin_place_t@1@AEAUWitness@phase4@midnight@@@Z
	??$?0AEAUWitness@phase4@midnight@@@?$_Optional_construct_base@UWitness@phase4@midnight@@@std@@QEAA@Uin_place_t@1@AEAUWitness@phase4@midnight@@@Z
	??$?0AEAUWitness@phase4@midnight@@@?$_Optional_destruct_base@UWitness@phase4@midnight@@$0A@@std@@QEAA@Uin_place_t@1@AEAUWitness@phase4@midnight@@@Z
	??$?0AEAUZkProof@phase4@midnight@@$0A@@?$optional@UZkProof@phase4@midnight@@@std@@QEAA@AEAUZkProof@phase4@midnight@@@Z
	??$?0AEAUZkProof@phase4@midnight@@@?$_Non_trivial_copy@U?$_Optional_construct_base@UZkProof@phase4@midnight@@@std@@@std@@QEAA@Uin_place_t@1@AEAUZkProof@phase4@midnight@@@Z
	??$?0AEAUZkProof@phase4@midnight@@@?$_Non_trivial_copy_assign@U?$_Optional_construct_base@UZkProof@phase4@midnight@@@std@@UZkProof@phase4@midnight@@@std@@QEAA@Uin_place_t@1@AEAUZkProof@phase4@midnight@@@Z
	??$?0AEAUZkProof@phase4@midnight@@@?$_Non_trivial_move@U?$_Optional_construct_base@UZkProof@phase4@midnight@@@std@@UZkProof@phase4@midnight@@@std@@QEAA@Uin_place_t@1@AEAUZkProof@phase4@midnight@@@Z
	??$?0AEAUZkProof@phase4@midnight@@@?$_Non_trivial_move_assign@U?$_Optional_construct_base@UZkProof@phase4@midnight@@@std@@UZkProof@phase4@midnight@@@std@@QEAA@Uin_place_t@1@AEAUZkProof@phase4@midnight@@@Z
	??$?0AEAUZkProof@phase4@midnight@@@?$_Optional_construct_base@UZkProof@phase4@midnight@@@std@@QEAA@Uin_place_t@1@AEAUZkProof@phase4@midnight@@@Z
	??$?0AEAUZkProof@phase4@midnight@@@?$_Optional_destruct_base@UZkProof@phase4@midnight@@$0A@@std@@QEAA@Uin_place_t@1@AEAUZkProof@phase4@midnight@@@Z
	??$?0AEAV?$allocator@D@std@@$$V@?$_Compressed_pair@V?$allocator@D@std@@V?$_String_val@U?$_Simple_types@D@std@@@2@$00@std@@QEAA@U_One_then_variadic_args_t@1@AEAV?$allocator@D@1@@Z
	??$?0AEAV?$array@E$0CA@@std@@AEAV?$array@E$0EA@@1@$0A@@?$pair@V?$array@E$0CA@@std@@V?$array@E$0EA@@2@@std@@QEAA@AEAV?$array@E$0CA@@1@AEAV?$array@E$0EA@@1@@Z
	??$?0AEAV?$basic_string@DU?$char_traits@D@std@@V?$allocator@D@2@@std@@$0A@@?$json_ref@V?$basic_json@Vmap@std@@Vvector@2@V?$basic_string@DU?$char_traits@D@std@@V?$allocator@D@2@@2@_N_J_KNVallocator@2@Uadl_serializer@json_abi_v3_11_2@nlohmann@@V?$vector@EV?$allocator@E@std@@@2@@json_abi_v3_11_2@nlohmann@@@detail@json_abi_v3_11_2@nlohmann@@QEAA@AEAV?$basic_string@DU?$char_traits@D@std@@V?$allocator@D@2@@std@@@Z
	??$?0AEAV?$basic_string@DU?$char_traits@D@std@@V?$allocator@D@2@@std@@@?$_Ref_count_obj2@V?$output_string_adapter@DV?$basic_string@DU?$char_traits@D@std@@V?$allocator@D@2@@std@@@detail@json_abi_v3_11_2@nlohmann@@@std@@QEAA@AEAV?$basic_string@DU?$char_traits@D@std@@V?$allocator@D@2@@1@@Z
	??$?0AEAV?$basic_string@DU?$char_traits@D@std@@V?$allocator@D@2@@std@@@?$format_arg_store@V?$basic_format_context@Vappender@v9@fmt@@D@v9@fmt@@V?$basic_string@DU?$char_traits@D@std@@V?$allocator@D@2@@std@@@v9@fmt@@QEAA@AEAV?$basic_string@DU?$char_traits@D@std@@V?$allocator@D@2@@std@@@Z
	??$?0AEAV?$basic_string@DU?$char_traits@D@std@@V?$allocator@D@2@@std@@AEBV01@AEBG@?$format_arg_store@V?$basic_format_context@Vappender@v9@fmt@@D@v9@fmt@@V?$basic_string@DU?$char_traits@D@std@@V?$allocator@D@2@@std@@V45@G@v9@fmt@@QEAA@AEAV?$basic_string@DU?$char_traits@D@std@@V?$allocator@D@2@@std@@AEBV34@AEBG@Z
	??$?0AEAV?$basic_string@DU?$char_traits@D@std@@V?$allocator@D@2@@std@@AEBV01@AEBIAEA_JAEAV01@@?$format_arg_store@V?$basic_format_context@Vappender@v9@fmt@@D@v9@fmt@@V?$basic_string@DU?$char_traits@D@std@@V?$allocator@D@2@@std@@V45@I_JV45@@v9@fmt@@QEAA@AEAV?$basic_string@DU?$char_traits@D@std@@V?$allocator@D@2@@std@@AEBV34@AEBIAEA_J0@Z
	??$?0AEAV?$basic_string@DU?$char_traits@D@std@@V?$allocator@D@2@@std@@V01@$0A@@?$basic_json@Vmap@std@@Vvector@2@V?$basic_string@DU?$char_traits@D@std@@V?$allocator@D@2@@2@_N_J_KNVallocator@2@Uadl_serializer@json_abi_v3_11_2@nlohmann@@V?$vector@EV?$allocator@E@std@@@2@@json_abi_v3_11_2@nlohmann@@QEAA@AEAV?$basic_string@DU?$char_traits@D@std@@V?$allocator@D@2@@std@@@Z
	??$?0AEAV?$shared_ptr@VProofServerClient@zk@midnight@@@std@@UResilienceConfig@zk@midnight@@@?$_Ref_count_obj2@VProofServerResilientClient@zk@midnight@@@std@@QEAA@AEAV?$shared_ptr@VProofServerClient@zk@midnight@@@1@$$QEAUResilienceConfig@zk@midnight@@@Z
	??$?0AEAY02$$CBD$$BY02D$0A@@?$basic_json@Vmap@std@@Vvector@2@V?$basic_string@DU?$char_traits@D@std@@V?$allocator@D@2@@2@_N_J_KNVallocator@2@Uadl_serializer@json_abi_v3_11_2@nlohmann@@V?$vector@EV?$allocator@E@std@@@2@@json_abi_v3_11_2@nlohmann@@QEAA@AEAY02$$CBD@Z
	??$?0AEAY02$$CBD$0A@@?$json_ref@V?$basic_json@Vmap@std@@Vvector@2@V?$basic_string@DU?$char_traits@D@std@@V?$allocator@D@2@@2@_N_J_KNVallocator@2@Uadl_serializer@json_abi_v3_11_2@nlohmann@@V?$vector@EV?$allocator@E@std@@@2@@json_abi_v3_11_2@nlohmann@@@detail@json_abi_v3_11_2@nlohmann@@QEAA@AEAY02$$CBD@Z
	??$?0AEAY03$$CBD$$BY03D$0A@@?$basic_json@Vmap@std@@Vvector@2@V?$basic_string@DU?$char_traits@D@std@@V?$allocator@D@2@@2@_N_J_KNVallocator@2@Uadl_serializer@json_abi_v3_11_2@nlohmann@@V?$vector@EV?$allocator@E@std@@@2@@json_abi_v3_11_2@nlohmann@@QEAA@AEAY03$$CBD@Z
	??$?0AEAY03$$CBD$0A@@?$json_ref@V?$basic_json@Vmap@std@@Vvector@2@V?$basic_string@DU?$char_traits@D@std@@V?$allocator@D@2@@2@_N_J_KNVallocator@2@Uadl_serializer@json_abi_v3_11_2@nlohmann@@V?$vector@EV?$allocator@E@std@@@2@@json_abi_v3_11_2@nlohmann@@@detail@json_abi_v3_11_2@nlohmann@@QEAA@AEAY03$$CBD@Z
	??$?0AEAY04$$CBDAEAY09$$CBD$0A@@?$pair@$$CBV?$basic_string@DU?$char_traits@D@std@@V?$allocator@D@2@@std@@V12@@std@@QEAA@AEAY04$$CBDAEAY09$$CBD@Z
	??$?0AEAY04$$CBDAEAY09$$CBD@?$_List_node_emplace_op2@V?$allocator@U?$_List_node@U?$pair@$$CBV?$basic_string@DU?$char_traits@D@std@@V?$allocator@D@2@@std@@V12@@std@@PEAX@std@@@std@@@std@@QEAA@AEAV?$allocator@U?$_List_node@U?$pair@$$CBV?$basic_string@DU?$char_traits@D@std@@V?$allocator@D@2@@std@@V12@@std@@PEAX@std@@@1@AEAY04$$CBDAEAY09$$CBD@Z
	??$?0AEAY04$$CBDV?$basic_string@DU?$char_traits@D@std@@V?$allocator@D@2@@std@@$0A@@?$pair@$$CBV?$basic_string@DU?$char_traits@D@std@@V?$allocator@D@2@@std@@V12@@std@@QEAA@AEAY04$$CBD$$QEAV?$basic_string@DU?$char_traits@D@std@@V?$allocator@D@2@@1@@Z
	??$?0AEAY04$$CBDV?$basic_string@DU?$char_traits@D@std@@V?$allocator@D@2@@std@@@?$_List_node_emplace_op2@V?$allocator@U?$_List_node@U?$pair@$$CBV?$basic_string@DU?$char_traits@D@std@@V?$allocator@D@2@@std@@V12@@std@@PEAX@std@@@std@@@std@@QEAA@AEAV?$allocator@U?$_List_node@U?$pair@$$CBV?$basic_string@DU?$char_traits@D@std@@V?$allocator@D@2@@std@@V12@@std@@PEAX@std@@@1@AEAY04$$CBD$$QEAV?$basic_string@DU?$char_traits@D@std@@V?$allocator@D@2@@1@@Z
	??$?0AEAY05$$CBD$$BY05D$0A@@?$basic_json@Vmap@std@@Vvector@2@V?$basic_string@DU?$char_traits@D@std@@V?$allocator@D@2@@2@_N_J_KNVallocator@2@Uadl_serializer@json_abi_v3_11_2@nlohmann@@V?$vector@EV?$allocator@E@std@@@2@@json_abi_v3_11_2@nlohmann@@QEAA@AEAY05$$CBD@Z
	??$?0AEAY05$$CBD$0A@@?$json_ref@V?$basic_json@Vmap@std@@Vvector@2@V?$basic_string@DU?$char_traits@D@std@@V?$allocator@D@2@@2@_N_J_KNVallocator@2@Uadl_serializer@json_abi_v3_11_2@nlohmann@@V?$vector@EV?$allocator@E@std@@@2@@json_abi_v3_11_2@nlohmann@@@detail@json_abi_v3_11_2@nlohmann@@QEAA@AEAY05$$CBD@Z
	??$?0AEAY06$$CBD$$BY06D$0A@@?$basic_json@Vmap@std@@Vvector@2@V?$basic_string@DU?$char_traits@D@std@@V?$allocator@D@2@@2@_N_J_KNVallocator@2@Uadl_serializer@json_abi_v3_11_2@nlohmann@@V?$vector@EV?$allocator@E@std@@@2@@json_abi_v3_11_2@nlohmann@@QEAA@AEAY06$$CBD@Z
	??$?0AEAY06$$CBD$0A@@?$json_ref@V?$basic_json@Vmap@std@@Vvector@2@V?$basic_string@DU?$char_traits@D@std@@V?$allocator@D@2@@2@_N_J_KNVallocator@2@Uadl_serializer@json_abi_v3_11_2@nlohmann@@V?$vector@EV?$allocator@E@std@@@2@@json_abi_v3_11_2@nlohmann@@@detail@json_abi_v3_11_2@nlohmann@@QEAA@AEAY06$$CBD@Z
	??$?0AEAY06$$CBDAEAY03$$CBD$0A@@?$pair@$$CBV?$basic_string@DU?$char_traits@D@std@@V?$allocator@D@2@@std@@V12@@std@@QEAA@AEAY06$$CBDAEAY03$$CBD@Z
	??$?0AEAY06$$CBDAEAY03$$CBD@?$_List_node_emplace_op2@V?$allocator@U?$_List_node@U?$pair@$$CBV?$basic_string@DU?$char_traits@D@std@@V?$allocator@D@2@@std@@V12@@std@@PEAX@std@@@std@@@std@@QEAA@AEAV?$allocator@U?$_List_node@U?$pair@$$CBV?$basic_string@DU?$char_traits@D@std@@V?$allocator@D@2@@std@@V12@@std@@PEAX@std@@@1@AEAY06$$CBDAEAY03$$CBD@Z
	??$?0AEAY07$$CBD$$BY07D$0A@@?$basic_json@Vmap@std@@Vvector@2@V?$basic_string@DU?$char_traits@D@std@@V?$allocator@D@2@@2@_N_J_KNVallocator@2@Uadl_serializer@json_abi_v3_11_2@nlohmann@@V?$vector@EV?$allocator@E@std@@@2@@json_abi_v3_11_2@nlohmann@@QEAA@AEAY07$$CBD@Z
	??$?0AEAY07$$CBD$0A@@?$json_ref@V?$basic_json@Vmap@std@@Vvector@2@V?$basic_string@DU?$char_traits@D@std@@V?$allocator@D@2@@2@_N_J_KNVallocator@2@Uadl_serializer@json_abi_v3_11_2@nlohmann@@V?$vector@EV?$allocator@E@std@@@2@@json_abi_v3_11_2@nlohmann@@@detail@json_abi_v3_11_2@nlohmann@@QEAA@AEAY07$$CBD@Z
	??$?0AEAY07$$CBDAEAUWitnessOutput@zk@midnight@@$0A@@?$pair@$$CBV?$basic_string@DU?$char_traits@D@std@@V?$allocator@D@2@@std@@UWitnessOutput@zk@midnight@@@std@@QEAA@AEAY07$$CBDAEAUWitnessOutput@zk@midnight@@@Z
	??$?0AEAY07$$CBDAEBUWitnessOutput@zk@midnight@@$0A@@?$pair@$$CBV?$basic_string@DU?$char_traits@D@std@@V?$allocator@D@2@@std@@UWitnessOutput@zk@midnight@@@std@@QEAA@AEAY07$$CBDAEBUWitnessOutput@zk@midnight@@@Z
	??$?0AEAY0BA@$$CBD$$BY0BA@D$0A@@?$basic_json@Vmap@std@@Vvector@2@V?$basic_string@DU?$char_traits@D@std@@V?$allocator@D@2@@2@_N_J_KNVallocator@2@Uadl_serializer@json_abi_v3_11_2@nlohmann@@V?$vector@EV?$allocator@E@std@@@2@@json_abi_v3_11_2@nlohmann@@QEAA@AEAY0BA@$$CBD@Z
	??$?0AEAY0BA@$$CBD$0A@@?$json_ref@V?$basic_json@Vmap@std@@Vvector@2@V?$basic_string@DU?$char_traits@D@std@@V?$allocator@D@2@@2@_N_J_KNVallocator@2@Uadl_serializer@json_abi_v3_11_2@nlohmann@@V?$vector@EV?$allocator@E@std@@@2@@json_abi_v3_11_2@nlohmann@@@detail@json_abi_v3_11_2@nlohmann@@QEAA@AEAY0BA@$$CBD@Z
	??$?0AEAY0BC@$$CBD$$BY0BC@D$0A@@?$basic_json@Vmap@std@@Vvector@2@V?$basic_string@DU?$char_traits@D@std@@V?$allocator@D@2@@2@_N_J_KNVallocator@2@Uadl_serializer@json_abi_v3_11_2@nlohmann@@V?$vector@EV?$allocator@E@std@@@2@@json_abi_v3_11_2@nlohmann@@QEAA@AEAY0BC@$$CBD@Z
	??$?0AEAY0BH@$$CBD$$BY0BH@D$0A@@?$basic_json@Vmap@std@@Vvector@2@V?$basic_string@DU?$char_traits@D@std@@V?$allocator@D@2@@2@_N_J_KNVallocator@2@Uadl_serializer@json_abi_v3_11_2@nlohmann@@V?$vector@EV?$allocator@E@std@@@2@@json_abi_v3_11_2@nlohmann@@QEAA@AEAY0BH@$$CBD@Z
	??$?0AEAY0BH@$$CBD$0A@@?$json_ref@V?$basic_json@Vmap@std@@Vvector@2@V?$basic_string@DU?$char_traits@D@std@@V?$allocator@D@2@@2@_N_J_KNVallocator@2@Uadl_serializer@json_abi_v3_11_2@nlohmann@@V?$vector@EV?$allocator@E@std@@@2@@json_abi_v3_11_2@nlohmann@@@detail@json_abi_v3_11_2@nlohmann@@QEAA@AEAY0BH@$$CBD@Z
	??$?0AEAY0BJ@$$CBD$$BY0BJ@D$0A@@?$basic_json@Vmap@std@@Vvector@2@V?$basic_string@DU?$char_traits@D@std@@V?$allocator@D@2@@2@_N_J_KNVallocator@2@Uadl_serializer@json_abi_v3_11_2@nlohmann@@V?$vector@EV?$allocator@E@std@@@2@@json_abi_v3_11_2@nlohmann@@QEAA@AEAY0BJ@$$CBD@Z
	??$?0AEAY0BJ@$$CBD$0A@@?$json_ref@V?$basic_json@Vmap@std@@Vvector@2@V?$basic_string@DU?$char_traits@D@std@@V?$allocator@D@2@@2@_N_J_KNVallocator@2@Uadl_serializer@json_abi_v3_11_2@nlohmann@@V?$vector@EV?$allocator@E@std@@@2@@json_abi_v3_11_2@nlohmann@@@detail@json_abi_v3_11_2@nlohmann@@QEAA@AEAY0BJ@$$CBD@Z
	??$?0AEAY0M@$$CBD$$BY0M@D$0A@@?$basic_json@Vmap@std@@Vvector@2@V?$basic_string@DU?$char_traits@D@std@@V?$allocator@D@2@@2@_N_J_KNVallocator@2@Uadl_serializer@json_abi_v3_11_2@nlohmann@@V?$vector@EV?$allocator@E@std@@@2@@json_abi_v3_11_2@nlohmann@@QEAA@AEAY0M@$$CBD@Z
	??$?0AEAY0M@$$CBD$0A@@?$json_ref@V?$basic_json@Vmap@std@@Vvector@2@V?$basic_string@DU?$char_traits@D@std@@V?$allocator@D@2@@2@_N_J_KNVallocator@2@Uadl_serializer@json_abi_v3_11_2@nlohmann@@V?$vector@EV?$allocator@E@std@@@2@@json_abi_v3_11_2@nlohmann@@@detail@json_abi_v3_11_2@nlohmann@@QEAA@AEAY0M@$$CBD@Z
	??$?0AEAY0N@$$CBDAEBV?$basic_string@DU?$char_traits@D@std@@V?$allocator@D@2@@std@@$0A@@?$pair@$$CBV?$basic_string@DU?$char_traits@D@std@@V?$allocator@D@2@@std@@V12@@std@@QEAA@AEAY0N@$$CBDAEBV?$basic_string@DU?$char_traits@D@std@@V?$allocator@D@2@@1@@Z
	??$?0AEAY0N@$$CBDAEBV?$basic_string@DU?$char_traits@D@std@@V?$allocator@D@2@@std@@@?$_List_node_emplace_op2@V?$allocator@U?$_List_node@U?$pair@$$CBV?$basic_string@DU?$char_traits@D@std@@V?$allocator@D@2@@std@@V12@@std@@PEAX@std@@@std@@@std@@QEAA@AEAV?$allocator@U?$_List_node@U?$pair@$$CBV?$basic_string@DU?$char_traits@D@std@@V?$allocator@D@2@@std@@V12@@std@@PEAX@std@@@1@AEAY0N@$$CBDAEBV?$basic_string@DU?$char_traits@D@std@@V?$allocator@D@2@@1@@Z
	??$?0AEAY0P@$$CBDV?$basic_string@DU?$char_traits@D@std@@V?$allocator@D@2@@std@@$0A@@?$pair@$$CBV?$basic_string@DU?$char_traits@D@std@@V?$allocator@D@2@@std@@V12@@std@@QEAA@AEAY0P@$$CBD$$QEAV?$basic_string@DU?$char_traits@D@std@@V?$allocator@D@2@@1@@Z
	??$?0AEAY0P@$$CBDV?$basic_string@DU?$char_traits@D@std@@V?$allocator@D@2@@std@@@?$_List_node_emplace_op2@V?$allocator@U?$_List_node@U?$pair@$$CBV?$basic_string@DU?$char_traits@D@std@@V?$allocator@D@2@@std@@V12@@std@@PEAX@std@@@std@@@std@@QEAA@AEAV?$allocator@U?$_List_node@U?$pair@$$CBV?$basic_string@DU?$char_traits@D@std@@V?$allocator@D@2@@std@@V12@@std@@PEAX@std@@@1@AEAY0P@$$CBD$$QEAV?$basic_string@DU?$char_traits@D@std@@V?$allocator@D@2@@1@@Z
	??$?0AEA_J_J$0A@@?$basic_json@Vmap@std@@Vvector@2@V?$basic_string@DU?$char_traits@D@std@@V?$allocator@D@2@@2@_N_J_KNVallocator@2@Uadl_serializer@json_abi_v3_11_2@nlohmann@@V?$vector@EV?$allocator@E@std@@@2@@json_abi_v3_11_2@nlohmann@@QEAA@AEA_J@Z
	??$?0AEA_KAEAV?$basic_string@DU?$char_traits@D@std@@V?$allocator@D@2@@std@@$0A@@?$pair@_KV?$basic_string@DU?$char_traits@D@std@@V?$allocator@D@2@@std@@@std@@QEAA@AEA_KAEAV?$basic_string@DU?$char_traits@D@std@@V?$allocator@D@2@@1@@Z
	??$?0AEA_KAEA_K$0A@@?$pair@_K_K@std@@QEAA@AEA_K0@Z
	??$?0AEA_K_K$0A@@?$basic_json@Vmap@std@@Vvector@2@V?$basic_string@DU?$char_traits@D@std@@V?$allocator@D@2@@2@_N_J_KNVallocator@2@Uadl_serializer@json_abi_v3_11_2@nlohmann@@V?$vector@EV?$allocator@E@std@@@2@@json_abi_v3_11_2@nlohmann@@QEAA@AEA_K@Z
	??$?0AEA_N_N$0A@@?$basic_json@Vmap@std@@Vvector@2@V?$basic_string@DU?$char_traits@D@std@@V?$allocator@D@2@@2@_N_J_KNVallocator@2@Uadl_serializer@json_abi_v3_11_2@nlohmann@@V?$vector@EV?$allocator@E@std@@@2@@json_abi_v3_11_2@nlohmann@@QEAA@AEA_N@Z
	??$?0AEBE@?$_Alloc_temporary2@V?$allocator@E@std@@@std@@QEAA@AEAV?$allocator@E@1@AEBE@Z
	??$?0AEBIAEA_JAEAPEBD@?$format_arg_store@V?$basic_format_context@Vappender@v9@fmt@@D@v9@fmt@@I_JPEBD@v9@fmt@@QEAA@AEBIAEA_JAEAPEBD@Z
	??$?0AEBII$0A@@?$basic_json@Vmap@std@@Vvector@2@V?$basic_string@DU?$char_traits@D@std@@V?$allocator@D@2@@2@_N_J_KNVallocator@2@Uadl_serializer@json_abi_v3_11_2@nlohmann@@V?$vector@EV?$allocator@E@std@@@2@@json_abi_v3_11_2@nlohmann@@QEAA@AEBI@Z
	??$?0AEBNN$0A@@?$basic_json@Vmap@std@@Vvector@2@V?$basic_string@DU?$char_traits@D@std@@V?$allocator@D@2@@2@_N_J_KNVallocator@2@Uadl_serializer@json_abi_v3_11_2@nlohmann@@V?$vector@EV?$allocator@E@std@@@2@@json_abi_v3_11_2@nlohmann@@QEAA@AEBN@Z
	??$?0AEBQ6A_JAEAVStream@httplib@@AEBV?$unordered_multimap@V?$basic_string@DU?$char_traits@D@std@@V?$allocator@D@2@@std@@V12@Uhash@case_ignore@detail@httplib@@Uequal_to@456@V?$allocator@U?$pair@$$CBV?$basic_string@DU?$char_traits@D@std@@V?$allocator@D@2@@std@@V12@@std@@@2@@std@@@Z$0A@@?$_Func_impl_no_alloc@P6A_JAEAVStream@httplib@@AEBV?$unordered_multimap@V?$basic_string@DU?$char_traits@D@std@@V?$allocator@D@2@@std@@V12@Uhash@case_ignore@detail@httplib@@Uequal_to@456@V?$allocator@U?$pair@$$CBV?$basic_string@DU?$char_traits@D@std@@V?$allocator@D@2@@std@@V12@@std@@@2@@std@@@Z_JAEAV12@AEAV34@@std@@QEAA@AEBQ6A_JAEAVStream@httplib@@AEBV?$unordered_multimap@V?$basic_string@DU?$char_traits@D@std@@V?$allocator@D@2@@std@@V12@Uhash@case_ignore@detail@httplib@@Uequal_to@456@V?$allocator@U?$pair@$$CBV?$basic_string@DU?$char_traits@D@std@@V?$allocator@D@2@@std@@V12@@std@@@2@@1@@Z@Z
	??$?0AEBQEAU?$_Tree_node@U?$pair@$$CBV?$basic_string@DU?$char_traits@D@std@@V?$allocator@D@2@@std@@U?$pair@UZkProof@phase4@midnight@@_K@2@@std@@PEAX@std@@_N$0A@@?$pair@PEAU?$_Tree_node@U?$pair@$$CBV?$basic_string@DU?$char_traits@D@std@@V?$allocator@D@2@@std@@U?$pair@UZkProof@phase4@midnight@@_K@2@@std@@PEAX@std@@_N@std@@QEAA@AEBQEAU?$_Tree_node@U?$pair@$$CBV?$basic_string@DU?$char_traits@D@std@@V?$allocator@D@2@@std@@U?$pair@UZkProof@phase4@midnight@@_K@2@@std@@PEAX@1@$$QEA_N@Z
	??$?0AEBQEAU?$_Tree_node@U?$pair@$$CBV?$basic_string@DU?$char_traits@D@std@@V?$allocator@D@2@@std@@UContractState@zk@midnight@@@std@@PEAX@std@@_N$0A@@?$pair@PEAU?$_Tree_node@U?$pair@$$CBV?$basic_string@DU?$char_traits@D@std@@V?$allocator@D@2@@std@@UContractState@zk@midnight@@@std@@PEAX@std@@_N@std@@QEAA@AEBQEAU?$_Tree_node@U?$pair@$$CBV?$basic_string@DU?$char_traits@D@std@@V?$allocator@D@2@@std@@UContractState@zk@midnight@@@std@@PEAX@1@$$QEA_N@Z
	??$?0AEBQEAU?$_Tree_node@U?$pair@$$CBV?$basic_string@DU?$char_traits@D@std@@V?$allocator@D@2@@std@@ULedgerState@zk@midnight@@@std@@PEAX@std@@_N$0A@@?$pair@PEAU?$_Tree_node@U?$pair@$$CBV?$basic_string@DU?$char_traits@D@std@@V?$allocator@D@2@@std@@ULedgerState@zk@midnight@@@std@@PEAX@std@@_N@std@@QEAA@AEBQEAU?$_Tree_node@U?$pair@$$CBV?$basic_string@DU?$char_traits@D@std@@V?$allocator@D@2@@std@@ULedgerState@zk@midnight@@@std@@PEAX@1@$$QEA_N@Z
	??$?0AEBQEAU?$_Tree_node@U?$pair@$$CBV?$basic_string@DU?$char_traits@D@std@@V?$allocator@D@2@@std@@USessionInfo@SessionManager@midnight@@@std@@PEAX@std@@_N$0A@@?$pair@PEAU?$_Tree_node@U?$pair@$$CBV?$basic_string@DU?$char_traits@D@std@@V?$allocator@D@2@@std@@USessionInfo@SessionManager@midnight@@@std@@PEAX@std@@_N@std@@QEAA@AEBQEAU?$_Tree_node@U?$pair@$$CBV?$basic_string@DU?$char_traits@D@std@@V?$allocator@D@2@@std@@USessionInfo@SessionManager@midnight@@@std@@PEAX@1@$$QEA_N@Z
	??$?0AEBQEAU?$_Tree_node@U?$pair@$$CBV?$basic_string@DU?$char_traits@D@std@@V?$allocator@D@2@@std@@USubmissionResult@phase5@midnight@@@std@@PEAX@std@@_N$0A@@?$pair@PEAU?$_Tree_node@U?$pair@$$CBV?$basic_string@DU?$char_traits@D@std@@V?$allocator@D@2@@std@@USubmissionResult@phase5@midnight@@@std@@PEAX@std@@_N@std@@QEAA@AEBQEAU?$_Tree_node@U?$pair@$$CBV?$basic_string@DU?$char_traits@D@std@@V?$allocator@D@2@@std@@USubmissionResult@phase5@midnight@@@std@@PEAX@1@$$QEA_N@Z
	??$?0AEBQEAU?$_Tree_node@U?$pair@$$CBV?$basic_string@DU?$char_traits@D@std@@V?$allocator@D@2@@std@@UWitnessOutput@zk@midnight@@@std@@PEAX@std@@_N$0A@@?$pair@PEAU?$_Tree_node@U?$pair@$$CBV?$basic_string@DU?$char_traits@D@std@@V?$allocator@D@2@@std@@UWitnessOutput@zk@midnight@@@std@@PEAX@std@@_N@std@@QEAA@AEBQEAU?$_Tree_node@U?$pair@$$CBV?$basic_string@DU?$char_traits@D@std@@V?$allocator@D@2@@std@@UWitnessOutput@zk@midnight@@@std@@PEAX@1@$$QEA_N@Z
	??$?0AEBQEAU?$_Tree_node@U?$pair@$$CBV?$basic_string@DU?$char_traits@D@std@@V?$allocator@D@2@@std@@V12@@std@@PEAX@std@@_N$0A@@?$pair@PEAU?$_Tree_node@U?$pair@$$CBV?$basic_string@DU?$char_traits@D@std@@V?$allocator@D@2@@std@@V12@@std@@PEAX@std@@_N@std@@QEAA@AEBQEAU?$_Tree_node@U?$pair@$$CBV?$basic_string@DU?$char_traits@D@std@@V?$allocator@D@2@@std@@V12@@std@@PEAX@1@$$QEA_N@Z
	??$?0AEBQEAU?$_Tree_node@U?$pair@$$CBV?$basic_string@DU?$char_traits@D@std@@V?$allocator@D@2@@std@@V?$basic_json@Vmap@std@@Vvector@2@V?$basic_string@DU?$char_traits@D@std@@V?$allocator@D@2@@2@_N_J_KNVallocator@2@Uadl_serializer@json_abi_v3_11_2@nlohmann@@V?$vector@EV?$allocator@E@std@@@2@@json_abi_v3_11_2@nlohmann@@@std@@PEAX@std@@_N$0A@@?$pair@PEAU?$_Tree_node@U?$pair@$$CBV?$basic_string@DU?$char_traits@D@std@@V?$allocator@D@2@@std@@V?$basic_json@Vmap@std@@Vvector@2@V?$basic_string@DU?$char_traits@D@std@@V?$allocator@D@2@@2@_N_J_KNVallocator@2@Uadl_serializer@json_abi_v3_11_2@nlohmann@@V?$vector@EV?$allocator@E@std@@@2@@json_abi_v3_11_2@nlohmann@@@std@@PEAX@std@@_N@std@@QEAA@AEBQEAU?$_Tree_node@U?$pair@$$CBV?$basic_string@DU?$char_traits@D@std@@V?$allocator@D@2@@std@@V?$basic_json@Vmap@std@@Vvector@2@V?$basic_string@DU?$char_traits@D@std@@V?$allocator@D@2@@2@_N_J_KNVallocator@2@Uadl_serializer@json_abi_v3_11_2@nlohmann@@V?$vector@EV?$allocator@E@std@@@2@@json_abi_v3_11_2@nlohmann@@@std@@PEAX@1@$$QEA_N@Z
	??$?0AEBQEAU?$_Tree_node@U?$pair@$$CBV?$basic_string@DU?$char_traits@D@std@@V?$allocator@D@2@@std@@V?$function@$$A6AXAEBV?$basic_string@DU?$char_traits@D@std@@V?$allocator@D@2@@std@@@Z@2@@std@@PEAX@std@@_N$0A@@?$pair@PEAU?$_Tree_node@U?$pair@$$CBV?$basic_string@DU?$char_traits@D@std@@V?$allocator@D@2@@std@@V?$function@$$A6AXAEBV?$basic_string@DU?$char_traits@D@std@@V?$allocator@D@2@@std@@@Z@2@@std@@PEAX@std@@_N@std@@QEAA@AEBQEAU?$_Tree_node@U?$pair@$$CBV?$basic_string@DU?$char_traits@D@std@@V?$allocator@D@2@@std@@V?$function@$$A6AXAEBV?$basic_string@DU?$char_traits@D@std@@V?$allocator@D@2@@std@@@Z@2@@std@@PEAX@1@$$QEA_N@Z
	??$?0AEBQEAU?$_Tree_node@U?$pair@$$CBV?$basic_string@DU?$char_traits@D@std@@V?$allocator@D@2@@std@@V?$vector@EV?$allocator@E@std@@@2@@std@@PEAX@std@@_N$0A@@?$pair@PEAU?$_Tree_node@U?$pair@$$CBV?$basic_string@DU?$char_traits@D@std@@V?$allocator@D@2@@std@@V?$vector@EV?$allocator@E@std@@@2@@std@@PEAX@std@@_N@std@@QEAA@AEBQEAU?$_Tree_node@U?$pair@$$CBV?$basic_string@DU?$char_traits@D@std@@V?$allocator@D@2@@std@@V?$vector@EV?$allocator@E@std@@@2@@std@@PEAX@1@$$QEA_N@Z
	??$?0AEBQEAU?$_Tree_node@U?$pair@$$CBV?$basic_string@DU?$char_traits@D@std@@V?$allocator@D@2@@std@@V?$vector@UContractState@zk@midnight@@V?$allocator@UContractState@zk@midnight@@@std@@@2@@std@@PEAX@std@@_N$0A@@?$pair@PEAU?$_Tree_node@U?$pair@$$CBV?$basic_string@DU?$char_traits@D@std@@V?$allocator@D@2@@std@@V?$vector@UContractState@zk@midnight@@V?$allocator@UContractState@zk@midnight@@@std@@@2@@std@@PEAX@std@@_N@std@@QEAA@AEBQEAU?$_Tree_node@U?$pair@$$CBV?$basic_string@DU?$char_traits@D@std@@V?$allocator@D@2@@std@@V?$vector@UContractState@zk@midnight@@V?$allocator@UContractState@zk@midnight@@@std@@@2@@std@@PEAX@1@$$QEA_N@Z
	??$?0AEBQEAU?$_Tree_node@U?$pair@$$CBV?$basic_string@DU?$char_traits@D@std@@V?$allocator@D@2@@std@@_K@std@@PEAX@std@@_N$0A@@?$pair@PEAU?$_Tree_node@U?$pair@$$CBV?$basic_string@DU?$char_traits@D@std@@V?$allocator@D@2@@std@@_K@std@@PEAX@std@@_N@std@@QEAA@AEBQEAU?$_Tree_node@U?$pair@$$CBV?$basic_string@DU?$char_traits@D@std@@V?$allocator@D@2@@std@@_K@std@@PEAX@1@$$QEA_N@Z
	??$?0AEBU?$less@V?$basic_string@DU?$char_traits@D@std@@V?$allocator@D@2@@std@@@std@@U_Zero_then_variadic_args_t@1@@?$_Compressed_pair@U?$less@V?$basic_string@DU?$char_traits@D@std@@V?$allocator@D@2@@std@@@std@@V?$_Compressed_pair@V?$allocator@U?$_Tree_node@U?$pair@$$CBV?$basic_string@DU?$char_traits@D@std@@V?$allocator@D@2@@std@@U?$pair@UZkProof@phase4@midnight@@_K@2@@std@@PEAX@std@@@std@@V?$_Tree_val@U?$_Tree_simple_types@U?$pair@$$CBV?$basic_string@DU?$char_traits@D@std@@V?$allocator@D@2@@std@@U?$pair@UZkProof@phase4@midnight@@_K@2@@std@@@std@@@2@$00@2@$00@std@@QEAA@U_One_then_variadic_args_t@1@AEBU?$less@V?$basic_string@DU?$char_traits@D@std@@V?$allocator@D@2@@std@@@1@$$QEAU_Zero_then_variadic_args_t@1@@Z
	??$?0AEBU?$less@V?$basic_string@DU?$char_traits@D@std@@V?$allocator@D@2@@std@@@std@@U_Zero_then_variadic_args_t@1@@?$_Compressed_pair@U?$less@V?$basic_string@DU?$char_traits@D@std@@V?$allocator@D@2@@std@@@std@@V?$_Compressed_pair@V?$allocator@U?$_Tree_node@U?$pair@$$CBV?$basic_string@DU?$char_traits@D@std@@V?$allocator@D@2@@std@@UContractState@zk@midnight@@@std@@PEAX@std@@@std@@V?$_Tree_val@U?$_Tree_simple_types@U?$pair@$$CBV?$basic_string@DU?$char_traits@D@std@@V?$allocator@D@2@@std@@UContractState@zk@midnight@@@std@@@std@@@2@$00@2@$00@std@@QEAA@U_One_then_variadic_args_t@1@AEBU?$less@V?$basic_string@DU?$char_traits@D@std@@V?$allocator@D@2@@std@@@1@$$QEAU_Zero_then_variadic_args_t@1@@Z
	??$?0AEBU?$less@V?$basic_string@DU?$char_traits@D@std@@V?$allocator@D@2@@std@@@std@@U_Zero_then_variadic_args_t@1@@?$_Compressed_pair@U?$less@V?$basic_string@DU?$char_traits@D@std@@V?$allocator@D@2@@std@@@std@@V?$_Compressed_pair@V?$allocator@U?$_Tree_node@U?$pair@$$CBV?$basic_string@DU?$char_traits@D@std@@V?$allocator@D@2@@std@@UFormData@httplib@@@std@@PEAX@std@@@std@@V?$_Tree_val@U?$_Tree_simple_types@U?$pair@$$CBV?$basic_string@DU?$char_traits@D@std@@V?$allocator@D@2@@std@@UFormData@httplib@@@std@@@std@@@2@$00@2@$00@std@@QEAA@U_One_then_variadic_args_t@1@AEBU?$less@V?$basic_string@DU?$char_traits@D@std@@V?$allocator@D@2@@std@@@1@$$QEAU_Zero_then_variadic_args_t@1@@Z
	??$?0AEBU?$less@V?$basic_string@DU?$char_traits@D@std@@V?$allocator@D@2@@std@@@std@@U_Zero_then_variadic_args_t@1@@?$_Compressed_pair@U?$less@V?$basic_string@DU?$char_traits@D@std@@V?$allocator@D@2@@std@@@std@@V?$_Compressed_pair@V?$allocator@U?$_Tree_node@U?$pair@$$CBV?$basic_string@DU?$char_traits@D@std@@V?$allocator@D@2@@std@@UFormField@httplib@@@std@@PEAX@std@@@std@@V?$_Tree_val@U?$_Tree_simple_types@U?$pair@$$CBV?$basic_string@DU?$char_traits@D@std@@V?$allocator@D@2@@std@@UFormField@httplib@@@std@@@std@@@2@$00@2@$00@std@@QEAA@U_One_then_variadic_args_t@1@AEBU?$less@V?$basic_string@DU?$char_traits@D@std@@V?$allocator@D@2@@std@@@1@$$QEAU_Zero_then_variadic_args_t@1@@Z
	??$?0AEBU?$less@V?$basic_string@DU?$char_traits@D@std@@V?$allocator@D@2@@std@@@std@@U_Zero_then_variadic_args_t@1@@?$_Compressed_pair@U?$less@V?$basic_string@DU?$char_traits@D@std@@V?$allocator@D@2@@std@@@std@@V?$_Compressed_pair@V?$allocator@U?$_Tree_node@U?$pair@$$CBV?$basic_string@DU?$char_traits@D@std@@V?$allocator@D@2@@std@@USubmissionResult@phase5@midnight@@@std@@PEAX@std@@@std@@V?$_Tree_val@U?$_Tree_simple_types@U?$pair@$$CBV?$basic_string@DU?$char_traits@D@std@@V?$allocator@D@2@@std@@USubmissionResult@phase5@midnight@@@std@@@std@@@2@$00@2@$00@std@@QEAA@U_One_then_variadic_args_t@1@AEBU?$less@V?$basic_string@DU?$char_traits@D@std@@V?$allocator@D@2@@std@@@1@$$QEAU_Zero_then_variadic_args_t@1@@Z
	??$?0AEBU?$less@V?$basic_string@DU?$char_traits@D@std@@V?$allocator@D@2@@std@@@std@@U_Zero_then_variadic_args_t@1@@?$_Compressed_pair@U?$less@V?$basic_string@DU?$char_traits@D@std@@V?$allocator@D@2@@std@@@std@@V?$_Compressed_pair@V?$allocator@U?$_Tree_node@U?$pair@$$CBV?$basic_string@DU?$char_traits@D@std@@V?$allocator@D@2@@std@@UTransactionStatusUpdate@phase6@midnight@@@std@@PEAX@std@@@std@@V?$_Tree_val@U?$_Tree_simple_types@U?$pair@$$CBV?$basic_string@DU?$char_traits@D@std@@V?$allocator@D@2@@std@@UTransactionStatusUpdate@phase6@midnight@@@std@@@std@@@2@$00@2@$00@std@@QEAA@U_One_then_variadic_args_t@1@AEBU?$less@V?$basic_string@DU?$char_traits@D@std@@V?$allocator@D@2@@std@@@1@$$QEAU_Zero_then_variadic_args_t@1@@Z
	??$?0AEBU?$less@V?$basic_string@DU?$char_traits@D@std@@V?$allocator@D@2@@std@@@std@@U_Zero_then_variadic_args_t@1@@?$_Compressed_pair@U?$less@V?$basic_string@DU?$char_traits@D@std@@V?$allocator@D@2@@std@@@std@@V?$_Compressed_pair@V?$allocator@U?$_Tree_node@U?$pair@$$CBV?$basic_string@DU?$char_traits@D@std@@V?$allocator@D@2@@std@@UWitnessOutput@zk@midnight@@@std@@PEAX@std@@@std@@V?$_Tree_val@U?$_Tree_simple_types@U?$pair@$$CBV?$basic_string@DU?$char_traits@D@std@@V?$allocator@D@2@@std@@UWitnessOutput@zk@midnight@@@std@@@std@@@2@$00@2@$00@std@@QEAA@U_One_then_variadic_args_t@1@AEBU?$less@V?$basic_string@DU?$char_traits@D@std@@V?$allocator@D@2@@std@@@1@$$QEAU_Zero_then_variadic_args_t@1@@Z
	??$?0AEBU?$less@V?$basic_string@DU?$char_traits@D@std@@V?$allocator@D@2@@std@@@std@@U_Zero_then_variadic_args_t@1@@?$_Compressed_pair@U?$less@V?$basic_string@DU?$char_traits@D@std@@V?$allocator@D@2@@std@@@std@@V?$_Compressed_pair@V?$allocator@U?$_Tree_node@U?$pair@$$CBV?$basic_string@DU?$char_traits@D@std@@V?$allocator@D@2@@std@@V12@@std@@PEAX@std@@@std@@V?$_Tree_val@U?$_Tree_simple_types@U?$pair@$$CBV?$basic_string@DU?$char_traits@D@std@@V?$allocator@D@2@@std@@V12@@std@@@std@@@2@$00@2@$00@std@@QEAA@U_One_then_variadic_args_t@1@AEBU?$less@V?$basic_string@DU?$char_traits@D@std@@V?$allocator@D@2@@std@@@1@$$QEAU_Zero_then_variadic_args_t@1@@Z
	??$?0AEBU?$less@V?$basic_string@DU?$char_traits@D@std@@V?$allocator@D@2@@std@@@std@@U_Zero_then_variadic_args_t@1@@?$_Compressed_pair@U?$less@V?$basic_string@DU?$char_traits@D@std@@V?$allocator@D@2@@std@@@std@@V?$_Compressed_pair@V?$allocator@U?$_Tree_node@U?$pair@$$CBV?$basic_string@DU?$char_traits@D@std@@V?$allocator@D@2@@std@@V?$vector@EV?$allocator@E@std@@@2@@std@@PEAX@std@@@std@@V?$_Tree_val@U?$_Tree_simple_types@U?$pair@$$CBV?$basic_string@DU?$char_traits@D@std@@V?$allocator@D@2@@std@@V?$vector@EV?$allocator@E@std@@@2@@std@@@std@@@2@$00@2@$00@std@@QEAA@U_One_then_variadic_args_t@1@AEBU?$less@V?$basic_string@DU?$char_traits@D@std@@V?$allocator@D@2@@std@@@1@$$QEAU_Zero_then_variadic_args_t@1@@Z
	??$?0AEBU?$less@V?$basic_string@DU?$char_traits@D@std@@V?$allocator@D@2@@std@@@std@@U_Zero_then_variadic_args_t@1@@?$_Compressed_pair@U?$less@V?$basic_string@DU?$char_traits@D@std@@V?$allocator@D@2@@std@@@std@@V?$_Compressed_pair@V?$allocator@U?$_Tree_node@U?$pair@$$CBV?$basic_string@DU?$char_traits@D@std@@V?$allocator@D@2@@std@@V?$vector@UContractState@zk@midnight@@V?$allocator@UContractState@zk@midnight@@@std@@@2@@std@@PEAX@std@@@std@@V?$_Tree_val@U?$_Tree_simple_types@U?$pair@$$CBV?$basic_string@DU?$char_traits@D@std@@V?$allocator@D@2@@std@@V?$vector@UContractState@zk@midnight@@V?$allocator@UContractState@zk@midnight@@@std@@@2@@std@@@std@@@2@$00@2@$00@std@@QEAA@U_One_then_variadic_args_t@1@AEBU?$less@V?$basic_string@DU?$char_traits@D@std@@V?$allocator@D@2@@std@@@1@$$QEAU_Zero_then_variadic_args_t@1@@Z
	??$?0AEBU?$less@V?$basic_string@DU?$char_traits@D@std@@V?$allocator@D@2@@std@@@std@@U_Zero_then_variadic_args_t@1@@?$_Compressed_pair@U?$less@V?$basic_string@DU?$char_traits@D@std@@V?$allocator@D@2@@std@@@std@@V?$_Compressed_pair@V?$allocator@U?$_Tree_node@U?$pair@$$CBV?$basic_string@DU?$char_traits@D@std@@V?$allocator@D@2@@std@@_K@std@@PEAX@std@@@std@@V?$_Tree_val@U?$_Tree_simple_types@U?$pair@$$CBV?$basic_string@DU?$char_traits@D@std@@V?$allocator@D@2@@std@@_K@std@@@std@@@2@$00@2@$00@std@@QEAA@U_One_then_variadic_args_t@1@AEBU?$less@V?$basic_string@DU?$char_traits@D@std@@V?$allocator@D@2@@std@@@1@$$QEAU_Zero_then_variadic_args_t@1@@Z
	??$?0AEBU?$less@V?$basic_string@DU?$char_traits@D@std@@V?$allocator@D@2@@std@@@std@@U_Zero_then_variadic_args_t@1@@?$_Compressed_pair@U?$less@V?$basic_string@DU?$char_traits@D@std@@V?$allocator@D@2@@std@@@std@@V?$_Compressed_pair@V?$allocator@U?$_Tree_node@V?$basic_string@DU?$char_traits@D@std@@V?$allocator@D@2@@std@@PEAX@std@@@std@@V?$_Tree_val@U?$_Tree_simple_types@V?$basic_string@DU?$char_traits@D@std@@V?$allocator@D@2@@std@@@std@@@2@$00@2@$00@std@@QEAA@U_One_then_variadic_args_t@1@AEBU?$less@V?$basic_string@DU?$char_traits@D@std@@V?$allocator@D@2@@std@@@1@$$QEAU_Zero_then_variadic_args_t@1@@Z
	??$?0AEBU?$less@X@std@@U_Zero_then_variadic_args_t@1@@?$_Compressed_pair@U?$less@X@std@@V?$_Compressed_pair@V?$allocator@U?$_Tree_node@U?$pair@$$CBV?$basic_string@DU?$char_traits@D@std@@V?$allocator@D@2@@std@@V?$basic_json@Vmap@std@@Vvector@2@V?$basic_string@DU?$char_traits@D@std@@V?$allocator@D@2@@2@_N_J_KNVallocator@2@Uadl_serializer@json_abi_v3_11_2@nlohmann@@V?$vector@EV?$allocator@E@std@@@2@@json_abi_v3_11_2@nlohmann@@@std@@PEAX@std@@@std@@V?$_Tree_val@U?$_Tree_simple_types@U?$pair@$$CBV?$basic_string@DU?$char_traits@D@std@@V?$allocator@D@2@@std@@V?$basic_json@Vmap@std@@Vvector@2@V?$basic_string@DU?$char_traits@D@std@@V?$allocator@D@2@@2@_N_J_KNVallocator@2@Uadl_serializer@json_abi_v3_11_2@nlohmann@@V?$vector@EV?$allocator@E@std@@@2@@json_abi_v3_11_2@nlohmann@@@std@@@std@@@2@$00@2@$00@std@@QEAA@U_One_then_variadic_args_t@1@AEBU?$less@X@1@$$QEAU_Zero_then_variadic_args_t@1@@Z
	??$?0AEBU?$pair@$$CBV?$basic_string@DU?$char_traits@D@std@@V?$allocator@D@2@@std@@UWitnessOutput@zk@midnight@@@std@@@?$_Tree_temp_node@V?$allocator@U?$_Tree_node@U?$pair@$$CBV?$basic_string@DU?$char_traits@D@std@@V?$allocator@D@2@@std@@UWitnessOutput@zk@midnight@@@std@@PEAX@std@@@std@@@std@@QEAA@AEAV?$allocator@U?$_Tree_node@U?$pair@$$CBV?$basic_string@DU?$char_traits@D@std@@V?$allocator@D@2@@std@@UWitnessOutput@zk@midnight@@@std@@PEAX@std@@@1@PEAU?$_Tree_node@U?$pair@$$CBV?$basic_string@DU?$char_traits@D@std@@V?$allocator@D@2@@std@@UWitnessOutput@zk@midnight@@@std@@PEAX@1@AEBU?$pair@$$CBV?$basic_string@DU?$char_traits@D@std@@V?$allocator@D@2@@std@@UWitnessOutput@zk@midnight@@@1@@Z
	??$?0AEBU?$pair@$$CBV?$basic_string@DU?$char_traits@D@std@@V?$allocator@D@2@@std@@V12@@std@@@?$_List_node_emplace_op2@V?$allocator@U?$_List_node@U?$pair@$$CBV?$basic_string@DU?$char_traits@D@std@@V?$allocator@D@2@@std@@V12@@std@@PEAX@std@@@std@@@std@@QEAA@AEAV?$allocator@U?$_List_node@U?$pair@$$CBV?$basic_string@DU?$char_traits@D@std@@V?$allocator@D@2@@std@@V12@@std@@PEAX@std@@@1@AEBU?$pair@$$CBV?$basic_string@DU?$char_traits@D@std@@V?$allocator@D@2@@std@@V12@@1@@Z
	??$?0AEBUAbiFunction@phase2@midnight@@$0A@@?$optional@UAbiFunction@phase2@midnight@@@std@@QEAA@AEBUAbiFunction@phase2@midnight@@@Z
	??$?0AEBUAbiFunction@phase2@midnight@@@?$_Non_trivial_copy@U?$_Optional_construct_base@UAbiFunction@phase2@midnight@@@std@@@std@@QEAA@Uin_place_t@1@AEBUAbiFunction@phase2@midnight@@@Z
	??$?0AEBUAbiFunction@phase2@midnight@@@?$_Non_trivial_copy_assign@U?$_Optional_construct_base@UAbiFunction@phase2@midnight@@@std@@UAbiFunction@phase2@midnight@@@std@@QEAA@Uin_place_t@1@AEBUAbiFunction@phase2@midnight@@@Z
	??$?0AEBUAbiFunction@phase2@midnight@@@?$_Non_trivial_move@U?$_Optional_construct_base@UAbiFunction@phase2@midnight@@@std@@UAbiFunction@phase2@midnight@@@std@@QEAA@Uin_place_t@1@AEBUAbiFunction@phase2@midnight@@@Z
	??$?0AEBUAbiFunction@phase2@midnight@@@?$_Non_trivial_move_assign@U?$_Optional_construct_base@UAbiFunction@phase2@midnight@@@std@@UAbiFunction@phase2@midnight@@@std@@QEAA@Uin_place_t@1@AEBUAbiFunction@phase2@midnight@@@Z
	??$?0AEBUAbiFunction@phase2@midnight@@@?$_Optional_construct_base@UAbiFunction@phase2@midnight@@@std@@QEAA@Uin_place_t@1@AEBUAbiFunction@phase2@midnight@@@Z
	??$?0AEBUAbiFunction@phase2@midnight@@@?$_Optional_destruct_base@UAbiFunction@phase2@midnight@@$0A@@std@@QEAA@Uin_place_t@1@AEBUAbiFunction@phase2@midnight@@@Z
	??$?0AEBUBlockEvent@zk@midnight@@$0A@@?$optional@UBlockEvent@zk@midnight@@@std@@QEAA@AEBUBlockEvent@zk@midnight@@@Z
	??$?0AEBUBlockEvent@zk@midnight@@@?$_Non_trivial_copy@U?$_Optional_construct_base@UBlockEvent@zk@midnight@@@std@@@std@@QEAA@Uin_place_t@1@AEBUBlockEvent@zk@midnight@@@Z
	??$?0AEBUBlockEvent@zk@midnight@@@?$_Non_trivial_copy_assign@U?$_Optional_construct_base@UBlockEvent@zk@midnight@@@std@@UBlockEvent@zk@midnight@@@std@@QEAA@Uin_place_t@1@AEBUBlockEvent@zk@midnight@@@Z
	??$?0AEBUBlockEvent@zk@midnight@@@?$_Non_trivial_move@U?$_Optional_construct_base@UBlockEvent@zk@midnight@@@std@@UBlockEvent@zk@midnight@@@std@@QEAA@Uin_place_t@1@AEBUBlockEvent@zk@midnight@@@Z
	??$?0AEBUBlockEvent@zk@midnight@@@?$_Non_trivial_move_assign@U?$_Optional_construct_base@UBlockEvent@zk@midnight@@@std@@UBlockEvent@zk@midnight@@@std@@QEAA@Uin_place_t@1@AEBUBlockEvent@zk@midnight@@@Z
	??$?0AEBUBlockEvent@zk@midnight@@@?$_Optional_construct_base@UBlockEvent@zk@midnight@@@std@@QEAA@Uin_place_t@1@AEBUBlockEvent@zk@midnight@@@Z
	??$?0AEBUBlockEvent@zk@midnight@@@?$_Optional_destruct_base@UBlockEvent@zk@midnight@@$0A@@std@@QEAA@Uin_place_t@1@AEBUBlockEvent@zk@midnight@@@Z
	??$?0AEBUContractState@zk@midnight@@$0A@@?$optional@UContractState@zk@midnight@@@std@@QEAA@AEBUContractState@zk@midnight@@@Z
	??$?0AEBUContractState@zk@midnight@@@?$_Non_trivial_copy@U?$_Optional_construct_base@UContractState@zk@midnight@@@std@@@std@@QEAA@Uin_place_t@1@AEBUContractState@zk@midnight@@@Z
	??$?0AEBUContractState@zk@midnight@@@?$_Non_trivial_copy_assign@U?$_Optional_construct_base@UContractState@zk@midnight@@@std@@UContractState@zk@midnight@@@std@@QEAA@Uin_place_t@1@AEBUContractState@zk@midnight@@@Z
	??$?0AEBUContractState@zk@midnight@@@?$_Non_trivial_move@U?$_Optional_construct_base@UContractState@zk@midnight@@@std@@UContractState@zk@midnight@@@std@@QEAA@Uin_place_t@1@AEBUContractState@zk@midnight@@@Z
	??$?0AEBUContractState@zk@midnight@@@?$_Non_trivial_move_assign@U?$_Optional_construct_base@UContractState@zk@midnight@@@std@@UContractState@zk@midnight@@@std@@QEAA@Uin_place_t@1@AEBUContractState@zk@midnight@@@Z
	??$?0AEBUContractState@zk@midnight@@@?$_Optional_construct_base@UContractState@zk@midnight@@@std@@QEAA@Uin_place_t@1@AEBUContractState@zk@midnight@@@Z
	??$?0AEBUContractState@zk@midnight@@@?$_Optional_destruct_base@UContractState@zk@midnight@@$0A@@std@@QEAA@Uin_place_t@1@AEBUContractState@zk@midnight@@@Z
	??$?0AEBUZkProof@phase4@midnight@@_J$0A@@?$pair@UZkProof@phase4@midnight@@_K@std@@QEAA@AEBUZkProof@phase4@midnight@@$$QEA_J@Z
	??$?0AEBUpiecewise_construct_t@std@@V?$tuple@$$QEAV?$basic_string@DU?$char_traits@D@std@@V?$allocator@D@2@@std@@@1@V?$tuple@$$V@1@@?$_Tree_temp_node@V?$allocator@U?$_Tree_node@U?$pair@$$CBV?$basic_string@DU?$char_traits@D@std@@V?$allocator@D@2@@std@@V12@@std@@PEAX@std@@@std@@@std@@QEAA@AEAV?$allocator@U?$_Tree_node@U?$pair@$$CBV?$basic_string@DU?$char_traits@D@std@@V?$allocator@D@2@@std@@V12@@std@@PEAX@std@@@1@PEAU?$_Tree_node@U?$pair@$$CBV?$basic_string@DU?$char_traits@D@std@@V?$allocator@D@2@@std@@V12@@std@@PEAX@1@AEBUpiecewise_construct_t@1@$$QEAV?$tuple@$$QEAV?$basic_string@DU?$char_traits@D@std@@V?$allocator@D@2@@std@@@1@$$QEAV?$tuple@$$V@1@@Z
	??$?0AEBUpiecewise_construct_t@std@@V?$tuple@AEBV?$basic_string@DU?$char_traits@D@std@@V?$allocator@D@2@@std@@@1@V?$tuple@$$V@1@@?$_Tree_temp_node@V?$allocator@U?$_Tree_node@U?$pair@$$CBV?$basic_string@DU?$char_traits@D@std@@V?$allocator@D@2@@std@@U?$pair@UZkProof@phase4@midnight@@_K@2@@std@@PEAX@std@@@std@@@std@@QEAA@AEAV?$allocator@U?$_Tree_node@U?$pair@$$CBV?$basic_string@DU?$char_traits@D@std@@V?$allocator@D@2@@std@@U?$pair@UZkProof@phase4@midnight@@_K@2@@std@@PEAX@std@@@1@PEAU?$_Tree_node@U?$pair@$$CBV?$basic_string@DU?$char_traits@D@std@@V?$allocator@D@2@@std@@U?$pair@UZkProof@phase4@midnight@@_K@2@@std@@PEAX@1@AEBUpiecewise_construct_t@1@$$QEAV?$tuple@AEBV?$basic_string@DU?$char_traits@D@std@@V?$allocator@D@2@@std@@@1@$$QEAV?$tuple@$$V@1@@Z
	??$?0AEBUpiecewise_construct_t@std@@V?$tuple@AEBV?$basic_string@DU?$char_traits@D@std@@V?$allocator@D@2@@std@@@1@V?$tuple@$$V@1@@?$_Tree_temp_node@V?$allocator@U?$_Tree_node@U?$pair@$$CBV?$basic_string@DU?$char_traits@D@std@@V?$allocator@D@2@@std@@UContractState@zk@midnight@@@std@@PEAX@std@@@std@@@std@@QEAA@AEAV?$allocator@U?$_Tree_node@U?$pair@$$CBV?$basic_string@DU?$char_traits@D@std@@V?$allocator@D@2@@std@@UContractState@zk@midnight@@@std@@PEAX@std@@@1@PEAU?$_Tree_node@U?$pair@$$CBV?$basic_string@DU?$char_traits@D@std@@V?$allocator@D@2@@std@@UContractState@zk@midnight@@@std@@PEAX@1@AEBUpiecewise_construct_t@1@$$QEAV?$tuple@AEBV?$basic_string@DU?$char_traits@D@std@@V?$allocator@D@2@@std@@@1@$$QEAV?$tuple@$$V@1@@Z
	??$?0AEBUpiecewise_construct_t@std@@V?$tuple@AEBV?$basic_string@DU?$char_traits@D@std@@V?$allocator@D@2@@std@@@1@V?$tuple@$$V@1@@?$_Tree_temp_node@V?$allocator@U?$_Tree_node@U?$pair@$$CBV?$basic_string@DU?$char_traits@D@std@@V?$allocator@D@2@@std@@ULedgerState@zk@midnight@@@std@@PEAX@std@@@std@@@std@@QEAA@AEAV?$allocator@U?$_Tree_node@U?$pair@$$CBV?$basic_string@DU?$char_traits@D@std@@V?$allocator@D@2@@std@@ULedgerState@zk@midnight@@@std@@PEAX@std@@@1@PEAU?$_Tree_node@U?$pair@$$CBV?$basic_string@DU?$char_traits@D@std@@V?$allocator@D@2@@std@@ULedgerState@zk@midnight@@@std@@PEAX@1@AEBUpiecewise_construct_t@1@$$QEAV?$tuple@AEBV?$basic_string@DU?$char_traits@D@std@@V?$allocator@D@2@@std@@@1@$$QEAV?$tuple@$$V@1@@Z
	??$?0AEBUpiecewise_construct_t@std@@V?$tuple@AEBV?$basic_string@DU?$char_traits@D@std@@V?$allocator@D@2@@std@@@1@V?$tuple@$$V@1@@?$_Tree_temp_node@V?$allocator@U?$_Tree_node@U?$pair@$$CBV?$basic_string@DU?$char_traits@D@std@@V?$allocator@D@2@@std@@USessionInfo@SessionManager@midnight@@@std@@PEAX@std@@@std@@@std@@QEAA@AEAV?$allocator@U?$_Tree_node@U?$pair@$$CBV?$basic_string@DU?$char_traits@D@std@@V?$allocator@D@2@@std@@USessionInfo@SessionManager@midnight@@@std@@PEAX@std@@@1@PEAU?$_Tree_node@U?$pair@$$CBV?$basic_string@DU?$char_traits@D@std@@V?$allocator@D@2@@std@@USessionInfo@SessionManager@midnight@@@std@@PEAX@1@AEBUpiecewise_construct_t@1@$$QEAV?$tuple@AEBV?$basic_string@DU?$char_traits@D@std@@V?$allocator@D@2@@std@@@1@$$QEAV?$tuple@$$V@1@@Z
	??$?0AEBUpiecewise_construct_t@std@@V?$tuple@AEBV?$basic_string@DU?$char_traits@D@std@@V?$allocator@D@2@@std@@@1@V?$tuple@$$V@1@@?$_Tree_temp_node@V?$allocator@U?$_Tree_node@U?$pair@$$CBV?$basic_string@DU?$char_traits@D@std@@V?$allocator@D@2@@std@@USubmissionResult@phase5@midnight@@@std@@PEAX@std@@@std@@@std@@QEAA@AEAV?$allocator@U?$_Tree_node@U?$pair@$$CBV?$basic_string@DU?$char_traits@D@std@@V?$allocator@D@2@@std@@USubmissionResult@phase5@midnight@@@std@@PEAX@std@@@1@PEAU?$_Tree_node@U?$pair@$$CBV?$basic_string@DU?$char_traits@D@std@@V?$allocator@D@2@@std@@USubmissionResult@phase5@midnight@@@std@@PEAX@1@AEBUpiecewise_construct_t@1@$$QEAV?$tuple@AEBV?$basic_string@DU?$char_traits@D@std@@V?$allocator@D@2@@std@@@1@$$QEAV?$tuple@$$V@1@@Z
	??$?0AEBUpiecewise_construct_t@std@@V?$tuple@AEBV?$basic_string@DU?$char_traits@D@std@@V?$allocator@D@2@@std@@@1@V?$tuple@$$V@1@@?$_Tree_temp_node@V?$allocator@U?$_Tree_node@U?$pair@$$CBV?$basic_string@DU?$char_traits@D@std@@V?$allocator@D@2@@std@@UWitnessOutput@zk@midnight@@@std@@PEAX@std@@@std@@@std@@QEAA@AEAV?$allocator@U?$_Tree_node@U?$pair@$$CBV?$basic_string@DU?$char_traits@D@std@@V?$allocator@D@2@@std@@UWitnessOutput@zk@midnight@@@std@@PEAX@std@@@1@PEAU?$_Tree_node@U?$pair@$$CBV?$basic_string@DU?$char_traits@D@std@@V?$allocator@D@2@@std@@UWitnessOutput@zk@midnight@@@std@@PEAX@1@AEBUpiecewise_construct_t@1@$$QEAV?$tuple@AEBV?$basic_string@DU?$char_traits@D@std@@V?$allocator@D@2@@std@@@1@$$QEAV?$tuple@$$V@1@@Z
	??$?0AEBUpiecewise_construct_t@std@@V?$tuple@AEBV?$basic_string@DU?$char_traits@D@std@@V?$allocator@D@2@@std@@@1@V?$tuple@$$V@1@@?$_Tree_temp_node@V?$allocator@U?$_Tree_node@U?$pair@$$CBV?$basic_string@DU?$char_traits@D@std@@V?$allocator@D@2@@std@@V12@@std@@PEAX@std@@@std@@@std@@QEAA@AEAV?$allocator@U?$_Tree_node@U?$pair@$$CBV?$basic_string@DU?$char_traits@D@std@@V?$allocator@D@2@@std@@V12@@std@@PEAX@std@@@1@PEAU?$_Tree_node@U?$pair@$$CBV?$basic_string@DU?$char_traits@D@std@@V?$allocator@D@2@@std@@V12@@std@@PEAX@1@AEBUpiecewise_construct_t@1@$$QEAV?$tuple@AEBV?$basic_string@DU?$char_traits@D@std@@V?$allocator@D@2@@std@@@1@$$QEAV?$tuple@$$V@1@@Z
	??$?0AEBUpiecewise_construct_t@std@@V?$tuple@AEBV?$basic_string@DU?$char_traits@D@std@@V?$allocator@D@2@@std@@@1@V?$tuple@$$V@1@@?$_Tree_temp_node@V?$allocator@U?$_Tree_node@U?$pair@$$CBV?$basic_string@DU?$char_traits@D@std@@V?$allocator@D@2@@std@@V?$basic_json@Vmap@std@@Vvector@2@V?$basic_string@DU?$char_traits@D@std@@V?$allocator@D@2@@2@_N_J_KNVallocator@2@Uadl_serializer@json_abi_v3_11_2@nlohmann@@V?$vector@EV?$allocator@E@std@@@2@@json_abi_v3_11_2@nlohmann@@@std@@PEAX@std@@@std@@@std@@QEAA@AEAV?$allocator@U?$_Tree_node@U?$pair@$$CBV?$basic_string@DU?$char_traits@D@std@@V?$allocator@D@2@@std@@V?$basic_json@Vmap@std@@Vvector@2@V?$basic_string@DU?$char_traits@D@std@@V?$allocator@D@2@@2@_N_J_KNVallocator@2@Uadl_serializer@json_abi_v3_11_2@nlohmann@@V?$vector@EV?$allocator@E@std@@@2@@json_abi_v3_11_2@nlohmann@@@std@@PEAX@std@@@1@PEAU?$_Tree_node@U?$pair@$$CBV?$basic_string@DU?$char_traits@D@std@@V?$allocator@D@2@@std@@V?$basic_json@Vmap@std@@Vvector@2@V?$basic_string@DU?$char_traits@D@std@@V?$allocator@D@2@@2@_N_J_KNVallocator@2@Uadl_serializer@json_abi_v3_11_2@nlohmann@@V?$vector@EV?$allocator@E@std@@@2@@json_abi_v3_11_2@nlohmann@@@std@@PEAX@1@AEBUpiecewise_construct_t@1@$$QEAV?$tuple@AEBV?$basic_string@DU?$char_traits@D@std@@V?$allocator@D@2@@std@@@1@$$QEAV?$tuple@$$V@1@@Z
	??$?0AEBUpiecewise_construct_t@std@@V?$tuple@AEBV?$basic_string@DU?$char_traits@D@std@@V?$allocator@D@2@@std@@@1@V?$tuple@$$V@1@@?$_Tree_temp_node@V?$allocator@U?$_Tree_node@U?$pair@$$CBV?$basic_string@DU?$char_traits@D@std@@V?$allocator@D@2@@std@@V?$function@$$A6AXAEBV?$basic_string@DU?$char_traits@D@std@@V?$allocator@D@2@@std@@@Z@2@@std@@PEAX@std@@@std@@@std@@QEAA@AEAV?$allocator@U?$_Tree_node@U?$pair@$$CBV?$basic_string@DU?$char_traits@D@std@@V?$allocator@D@2@@std@@V?$function@$$A6AXAEBV?$basic_string@DU?$char_traits@D@std@@V?$allocator@D@2@@std@@@Z@2@@std@@PEAX@std@@@1@PEAU?$_Tree_node@U?$pair@$$CBV?$basic_string@DU?$char_traits@D@std@@V?$allocator@D@2@@std@@V?$function@$$A6AXAEBV?$basic_string@DU?$char_traits@D@std@@V?$allocator@D@2@@std@@@Z@2@@std@@PEAX@1@AEBUpiecewise_construct_t@1@$$QEAV?$tuple@AEBV?$basic_string@DU?$char_traits@D@std@@V?$allocator@D@2@@std@@@1@$$QEAV?$tuple@$$V@1@@Z
	??$?0AEBUpiecewise_construct_t@std@@V?$tuple@AEBV?$basic_string@DU?$char_traits@D@std@@V?$allocator@D@2@@std@@@1@V?$tuple@$$V@1@@?$_Tree_temp_node@V?$allocator@U?$_Tree_node@U?$pair@$$CBV?$basic_string@DU?$char_traits@D@std@@V?$allocator@D@2@@std@@V?$vector@EV?$allocator@E@std@@@2@@std@@PEAX@std@@@std@@@std@@QEAA@AEAV?$allocator@U?$_Tree_node@U?$pair@$$CBV?$basic_string@DU?$char_traits@D@std@@V?$allocator@D@2@@std@@V?$vector@EV?$allocator@E@std@@@2@@std@@PEAX@std@@@1@PEAU?$_Tree_node@U?$pair@$$CBV?$basic_string@DU?$char_traits@D@std@@V?$allocator@D@2@@std@@V?$vector@EV?$allocator@E@std@@@2@@std@@PEAX@1@AEBUpiecewise_construct_t@1@$$QEAV?$tuple@AEBV?$basic_string@DU?$char_traits@D@std@@V?$allocator@D@2@@std@@@1@$$QEAV?$tuple@$$V@1@@Z
	??$?0AEBUpiecewise_construct_t@std@@V?$tuple@AEBV?$basic_string@DU?$char_traits@D@std@@V?$allocator@D@2@@std@@@1@V?$tuple@$$V@1@@?$_Tree_temp_node@V?$allocator@U?$_Tree_node@U?$pair@$$CBV?$basic_string@DU?$char_traits@D@std@@V?$allocator@D@2@@std@@V?$vector@UContractState@zk@midnight@@V?$allocator@UContractState@zk@midnight@@@std@@@2@@std@@PEAX@std@@@std@@@std@@QEAA@AEAV?$allocator@U?$_Tree_node@U?$pair@$$CBV?$basic_string@DU?$char_traits@D@std@@V?$allocator@D@2@@std@@V?$vector@UContractState@zk@midnight@@V?$allocator@UContractState@zk@midnight@@@std@@@2@@std@@PEAX@std@@@1@PEAU?$_Tree_node@U?$pair@$$CBV?$basic_string@DU?$char_traits@D@std@@V?$allocator@D@2@@std@@V?$vector@UContractState@zk@midnight@@V?$allocator@UContractState@zk@midnight@@@std@@@2@@std@@PEAX@1@AEBUpiecewise_construct_t@1@$$QEAV?$tuple@AEBV?$basic_string@DU?$char_traits@D@std@@V?$allocator@D@2@@std@@@1@$$QEAV?$tuple@$$V@1@@Z
	??$?0AEBUpiecewise_construct_t@std@@V?$tuple@AEBV?$basic_string@DU?$char_traits@D@std@@V?$allocator@D@2@@std@@@1@V?$tuple@$$V@1@@?$_Tree_temp_node@V?$allocator@U?$_Tree_node@U?$pair@$$CBV?$basic_string@DU?$char_traits@D@std@@V?$allocator@D@2@@std@@_K@std@@PEAX@std@@@std@@@std@@QEAA@AEAV?$allocator@U?$_Tree_node@U?$pair@$$CBV?$basic_string@DU?$char_traits@D@std@@V?$allocator@D@2@@std@@_K@std@@PEAX@std@@@1@PEAU?$_Tree_node@U?$pair@$$CBV?$basic_string@DU?$char_traits@D@std@@V?$allocator@D@2@@std@@_K@std@@PEAX@1@AEBUpiecewise_construct_t@1@$$QEAV?$tuple@AEBV?$basic_string@DU?$char_traits@D@std@@V?$allocator@D@2@@std@@@1@$$QEAV?$tuple@$$V@1@@Z
	??$?0AEBV<lambda_1>@?0??connect_with_proxy@SSLClient@httplib@@AEAA_NAEAUSocket@ClientImpl@3@V?$time_point@Usteady_clock@chrono@std@@V?$duration@_JU?$ratio@$00$0DLJKMKAA@@std@@@23@@chrono@std@@AEAUResponse@3@AEA_NAEAW4Error@3@@Z@$0A@@?$_Func_impl_no_alloc@V<lambda_1>@?0??connect_with_proxy@SSLClient@httplib@@AEAA_NAEAUSocket@ClientImpl@4@V?$time_point@Usteady_clock@chrono@std@@V?$duration@_JU?$ratio@$00$0DLJKMKAA@@std@@@23@@chrono@std@@AEAUResponse@4@AEA_NAEAW4Error@4@@Z@_NAEAVStream@4@@std@@QEAA@AEBV<lambda_1>@?0??connect_with_proxy@SSLClient@httplib@@AEAA_NAEAUSocket@ClientImpl@5@V?$time_point@Usteady_clock@chrono@std@@V?$duration@_JU?$ratio@$00$0DLJKMKAA@@std@@@23@@chrono@1@AEAUResponse@5@AEA_NAEAW4Error@5@@Z@@Z
	??$?0AEBV<lambda_1>@?1???$create@V?$basic_string@DU?$char_traits@D@std@@V?$allocator@D@2@@std@@AEAY00$$CBD@?$basic_json@Vmap@std@@Vvector@2@V?$basic_string@DU?$char_traits@D@std@@V?$allocator@D@2@@2@_N_J_KNVallocator@2@Uadl_serializer@json_abi_v3_11_2@nlohmann@@V?$vector@EV?$allocator@E@std@@@2@@json_abi_v3_11_2@nlohmann@@CAPEAV?$basic_string@DU?$char_traits@D@std@@V?$allocator@D@2@@std@@AEAY00$$CBD@Z@AEAPEAV45@@?$_Compressed_pair@V<lambda_1>@?1???$create@V?$basic_string@DU?$char_traits@D@std@@V?$allocator@D@2@@std@@AEAY00$$CBD@?$basic_json@Vmap@std@@Vvector@2@V?$basic_string@DU?$char_traits@D@std@@V?$allocator@D@2@@2@_N_J_KNVallocator@2@Uadl_serializer@json_abi_v3_11_2@nlohmann@@V?$vector@EV?$allocator@E@std@@@2@@json_abi_v3_11_2@nlohmann@@CAPEAV?$basic_string@DU?$char_traits@D@std@@V?$allocator@D@2@@std@@AEAY00$$CBD@Z@PEAV56@$0A@@std@@QEAA@U_One_then_variadic_args_t@1@AEBV<lambda_1>@?1???$create@V?$basic_string@DU?$char_traits@D@std@@V?$allocator@D@2@@std@@AEAY00$$CBD@?$basic_json@Vmap@std@@Vvector@2@V?$basic_string@DU?$char_traits@D@std@@V?$allocator@D@2@@2@_N_J_KNVallocator@2@Uadl_serializer@json_abi_v3_11_2@nlohmann@@V?$vector@EV?$allocator@E@std@@@2@@json_abi_v3_11_2@nlohmann@@CAPEAV?$basic_string@DU?$char_traits@D@std@@V?$allocator@D@2@@1@AEAY00$$CBD@Z@AEAPEAV71@@Z
	??$?0AEBV<lambda_1>@?1???$create@V?$basic_string@DU?$char_traits@D@std@@V?$allocator@D@2@@std@@AEAY02$$CBD@?$basic_json@Vmap@std@@Vvector@2@V?$basic_string@DU?$char_traits@D@std@@V?$allocator@D@2@@2@_N_J_KNVallocator@2@Uadl_serializer@json_abi_v3_11_2@nlohmann@@V?$vector@EV?$allocator@E@std@@@2@@json_abi_v3_11_2@nlohmann@@CAPEAV?$basic_string@DU?$char_traits@D@std@@V?$allocator@D@2@@std@@AEAY02$$CBD@Z@AEAPEAV45@@?$_Compressed_pair@V<lambda_1>@?1???$create@V?$basic_string@DU?$char_traits@D@std@@V?$allocator@D@2@@std@@AEAY02$$CBD@?$basic_json@Vmap@std@@Vvector@2@V?$basic_string@DU?$char_traits@D@std@@V?$allocator@D@2@@2@_N_J_KNVallocator@2@Uadl_serializer@json_abi_v3_11_2@nlohmann@@V?$vector@EV?$allocator@E@std@@@2@@json_abi_v3_11_2@nlohmann@@CAPEAV?$basic_string@DU?$char_traits@D@std@@V?$allocator@D@2@@std@@AEAY02$$CBD@Z@PEAV56@$0A@@std@@QEAA@U_One_then_variadic_args_t@1@AEBV<lambda_1>@?1???$create@V?$basic_string@DU?$char_traits@D@std@@V?$allocator@D@2@@std@@AEAY02$$CBD@?$basic_json@Vmap@std@@Vvector@2@V?$basic_string@DU?$char_traits@D@std@@V?$allocator@D@2@@2@_N_J_KNVallocator@2@Uadl_serializer@json_abi_v3_11_2@nlohmann@@V?$vector@EV?$allocator@E@std@@@2@@json_abi_v3_11_2@nlohmann@@CAPEAV?$basic_string@DU?$char_traits@D@std@@V?$allocator@D@2@@1@AEAY02$$CBD@Z@AEAPEAV71@@Z
	??$?0AEBV<lambda_1>@?1???$create@V?$basic_string@DU?$char_traits@D@std@@V?$allocator@D@2@@std@@AEAY03$$CBD@?$basic_json@Vmap@std@@Vvector@2@V?$basic_string@DU?$char_traits@D@std@@V?$allocator@D@2@@2@_N_J_KNVallocator@2@Uadl_serializer@json_abi_v3_11_2@nlohmann@@V?$vector@EV?$allocator@E@std@@@2@@json_abi_v3_11_2@nlohmann@@CAPEAV?$basic_string@DU?$char_traits@D@std@@V?$allocator@D@2@@std@@AEAY03$$CBD@Z@AEAPEAV45@@?$_Compressed_pair@V<lambda_1>@?1???$create@V?$basic_string@DU?$char_traits@D@std@@V?$allocator@D@2@@std@@AEAY03$$CBD@?$basic_json@Vmap@std@@Vvector@2@V?$basic_string@DU?$char_traits@D@std@@V?$allocator@D@2@@2@_N_J_KNVallocator@2@Uadl_serializer@json_abi_v3_11_2@nlohmann@@V?$vector@EV?$allocator@E@std@@@2@@json_abi_v3_11_2@nlohmann@@CAPEAV?$basic_string@DU?$char_traits@D@std@@V?$allocator@D@2@@std@@AEAY03$$CBD@Z@PEAV56@$0A@@std@@QEAA@U_One_then_variadic_args_t@1@AEBV<lambda_1>@?1???$create@V?$basic_string@DU?$char_traits@D@std@@V?$allocator@D@2@@std@@AEAY03$$CBD@?$basic_json@Vmap@std@@Vvector@2@V?$basic_string@DU?$char_traits@D@std@@V?$allocator@D@2@@2@_N_J_KNVallocator@2@Uadl_serializer@json_abi_v3_11_2@nlohmann@@V?$vector@EV?$allocator@E@std@@@2@@json_abi_v3_11_2@nlohmann@@CAPEAV?$basic_string@DU?$char_traits@D@std@@V?$allocator@D@2@@1@AEAY03$$CBD@Z@AEAPEAV71@@Z
	??$?0AEBV<lambda_1>@?1???$create@V?$basic_string@DU?$char_traits@D@std@@V?$allocator@D@2@@std@@AEAY05$$CBD@?$basic_json@Vmap@std@@Vvector@2@V?$basic_string@DU?$char_traits@D@std@@V?$allocator@D@2@@2@_N_J_KNVallocator@2@Uadl_serializer@json_abi_v3_11_2@nlohmann@@V?$vector@EV?$allocator@E@std@@@2@@json_abi_v3_11_2@nlohmann@@CAPEAV?$basic_string@DU?$char_traits@D@std@@V?$allocator@D@2@@std@@AEAY05$$CBD@Z@AEAPEAV45@@?$_Compressed_pair@V<lambda_1>@?1???$create@V?$basic_string@DU?$char_traits@D@std@@V?$allocator@D@2@@std@@AEAY05$$CBD@?$basic_json@Vmap@std@@Vvector@2@V?$basic_string@DU?$char_traits@D@std@@V?$allocator@D@2@@2@_N_J_KNVallocator@2@Uadl_serializer@json_abi_v3_11_2@nlohmann@@V?$vector@EV?$allocator@E@std@@@2@@json_abi_v3_11_2@nlohmann@@CAPEAV?$basic_string@DU?$char_traits@D@std@@V?$allocator@D@2@@std@@AEAY05$$CBD@Z@PEAV56@$0A@@std@@QEAA@U_One_then_variadic_args_t@1@AEBV<lambda_1>@?1???$create@V?$basic_string@DU?$char_traits@D@std@@V?$allocator@D@2@@std@@AEAY05$$CBD@?$basic_json@Vmap@std@@Vvector@2@V?$basic_string@DU?$char_traits@D@std@@V?$allocator@D@2@@2@_N_J_KNVallocator@2@Uadl_serializer@json_abi_v3_11_2@nlohmann@@V?$vector@EV?$allocator@E@std@@@2@@json_abi_v3_11_2@nlohmann@@CAPEAV?$basic_string@DU?$char_traits@D@std@@V?$allocator@D@2@@1@AEAY05$$CBD@Z@AEAPEAV71@@Z
	??$?0AEBV<lambda_1>@?1???$create@V?$basic_string@DU?$char_traits@D@std@@V?$allocator@D@2@@std@@AEAY06$$CBD@?$basic_json@Vmap@std@@Vvector@2@V?$basic_string@DU?$char_traits@D@std@@V?$allocator@D@2@@2@_N_J_KNVallocator@2@Uadl_serializer@json_abi_v3_11_2@nlohmann@@V?$vector@EV?$allocator@E@std@@@2@@json_abi_v3_11_2@nlohmann@@CAPEAV?$basic_string@DU?$char_traits@D@std@@V?$allocator@D@2@@std@@AEAY06$$CBD@Z@AEAPEAV45@@?$_Compressed_pair@V<lambda_1>@?1???$create@V?$basic_string@DU?$char_traits@D@std@@V?$allocator@D@2@@std@@AEAY06$$CBD@?$basic_json@Vmap@std@@Vvector@2@V?$basic_string@DU?$char_traits@D@std@@V?$allocator@D@2@@2@_N_J_KNVallocator@2@Uadl_serializer@json_abi_v3_11_2@nlohmann@@V?$vector@EV?$allocator@E@std@@@2@@json_abi_v3_11_2@nlohmann@@CAPEAV?$basic_string@DU?$char_traits@D@std@@V?$allocator@D@2@@std@@AEAY06$$CBD@Z@PEAV56@$0A@@std@@QEAA@U_One_then_variadic_args_t@1@AEBV<lambda_1>@?1???$create@V?$basic_string@DU?$char_traits@D@std@@V?$allocator@D@2@@std@@AEAY06$$CBD@?$basic_json@Vmap@std@@Vvector@2@V?$basic_string@DU?$char_traits@D@std@@V?$allocator@D@2@@2@_N_J_KNVallocator@2@Uadl_serializer@json_abi_v3_11_2@nlohmann@@V?$vector@EV?$allocator@E@std@@@2@@json_abi_v3_11_2@nlohmann@@CAPEAV?$basic_string@DU?$char_traits@D@std@@V?$allocator@D@2@@1@AEAY06$$CBD@Z@AEAPEAV71@@Z
	??$?0AEBV<lambda_1>@?1???$create@V?$basic_string@DU?$char_traits@D@std@@V?$allocator@D@2@@std@@AEAY07$$CBD@?$basic_json@Vmap@std@@Vvector@2@V?$basic_string@DU?$char_traits@D@std@@V?$allocator@D@2@@2@_N_J_KNVallocator@2@Uadl_serializer@json_abi_v3_11_2@nlohmann@@V?$vector@EV?$allocator@E@std@@@2@@json_abi_v3_11_2@nlohmann@@CAPEAV?$basic_string@DU?$char_traits@D@std@@V?$allocator@D@2@@std@@AEAY07$$CBD@Z@AEAPEAV45@@?$_Compressed_pair@V<lambda_1>@?1???$create@V?$basic_string@DU?$char_traits@D@std@@V?$allocator@D@2@@std@@AEAY07$$CBD@?$basic_json@Vmap@std@@Vvector@2@V?$basic_string@DU?$char_traits@D@std@@V?$allocator@D@2@@2@_N_J_KNVallocator@2@Uadl_serializer@json_abi_v3_11_2@nlohmann@@V?$vector@EV?$allocator@E@std@@@2@@json_abi_v3_11_2@nlohmann@@CAPEAV?$basic_string@DU?$char_traits@D@std@@V?$allocator@D@2@@std@@AEAY07$$CBD@Z@PEAV56@$0A@@std@@QEAA@U_One_then_variadic_args_t@1@AEBV<lambda_1>@?1???$create@V?$basic_string@DU?$char_traits@D@std@@V?$allocator@D@2@@std@@AEAY07$$CBD@?$basic_json@Vmap@std@@Vvector@2@V?$basic_string@DU?$char_traits@D@std@@V?$allocator@D@2@@2@_N_J_KNVallocator@2@Uadl_serializer@json_abi_v3_11_2@nlohmann@@V?$vector@EV?$allocator@E@std@@@2@@json_abi_v3_11_2@nlohmann@@CAPEAV?$basic_string@DU?$char_traits@D@std@@V?$allocator@D@2@@1@AEAY07$$CBD@Z@AEAPEAV71@@Z
	??$?0AEBV<lambda_1>@?1???$create@V?$basic_string@DU?$char_traits@D@std@@V?$allocator@D@2@@std@@AEAY0BA@$$CBD@?$basic_json@Vmap@std@@Vvector@2@V?$basic_string@DU?$char_traits@D@std@@V?$allocator@D@2@@2@_N_J_KNVallocator@2@Uadl_serializer@json_abi_v3_11_2@nlohmann@@V?$vector@EV?$allocator@E@std@@@2@@json_abi_v3_11_2@nlohmann@@CAPEAV?$basic_string@DU?$char_traits@D@std@@V?$allocator@D@2@@std@@AEAY0BA@$$CBD@Z@AEAPEAV45@@?$_Compressed_pair@V<lambda_1>@?1???$create@V?$basic_string@DU?$char_traits@D@std@@V?$allocator@D@2@@std@@AEAY0BA@$$CBD@?$basic_json@Vmap@std@@Vvector@2@V?$basic_string@DU?$char_traits@D@std@@V?$allocator@D@2@@2@_N_J_KNVallocator@2@Uadl_serializer@json_abi_v3_11_2@nlohmann@@V?$vector@EV?$allocator@E@std@@@2@@json_abi_v3_11_2@nlohmann@@CAPEAV?$basic_string@DU?$char_traits@D@std@@V?$allocator@D@2@@std@@AEAY0BA@$$CBD@Z@PEAV56@$0A@@std@@QEAA@U_One_then_variadic_args_t@1@AEBV<lambda_1>@?1???$create@V?$basic_string@DU?$char_traits@D@std@@V?$allocator@D@2@@std@@AEAY0BA@$$CBD@?$basic_json@Vmap@std@@Vvector@2@V?$basic_string@DU?$char_traits@D@std@@V?$allocator@D@2@@2@_N_J_KNVallocator@2@Uadl_serializer@json_abi_v3_11_2@nlohmann@@V?$vector@EV?$allocator@E@std@@@2@@json_abi_v3_11_2@nlohmann@@CAPEAV?$basic_string@DU?$char_traits@D@std@@V?$allocator@D@2@@1@AEAY0BA@$$CBD@Z@AEAPEAV71@@Z
	??$?0AEBV<lambda_1>@?1???$create@V?$basic_string@DU?$char_traits@D@std@@V?$allocator@D@2@@std@@AEAY0BC@$$CBD@?$basic_json@Vmap@std@@Vvector@2@V?$basic_string@DU?$char_traits@D@std@@V?$allocator@D@2@@2@_N_J_KNVallocator@2@Uadl_serializer@json_abi_v3_11_2@nlohmann@@V?$vector@EV?$allocator@E@std@@@2@@json_abi_v3_11_2@nlohmann@@CAPEAV?$basic_string@DU?$char_traits@D@std@@V?$allocator@D@2@@std@@AEAY0BC@$$CBD@Z@AEAPEAV45@@?$_Compressed_pair@V<lambda_1>@?1???$create@V?$basic_string@DU?$char_traits@D@std@@V?$allocator@D@2@@std@@AEAY0BC@$$CBD@?$basic_json@Vmap@std@@Vvector@2@V?$basic_string@DU?$char_traits@D@std@@V?$allocator@D@2@@2@_N_J_KNVallocator@2@Uadl_serializer@json_abi_v3_11_2@nlohmann@@V?$vector@EV?$allocator@E@std@@@2@@json_abi_v3_11_2@nlohmann@@CAPEAV?$basic_string@DU?$char_traits@D@std@@V?$allocator@D@2@@std@@AEAY0BC@$$CBD@Z@PEAV56@$0A@@std@@QEAA@U_One_then_variadic_args_t@1@AEBV<lambda_1>@?1???$create@V?$basic_string@DU?$char_traits@D@std@@V?$allocator@D@2@@std@@AEAY0BC@$$CBD@?$basic_json@Vmap@std@@Vvector@2@V?$basic_string@DU?$char_traits@D@std@@V?$allocator@D@2@@2@_N_J_KNVallocator@2@Uadl_serializer@json_abi_v3_11_2@nlohmann@@V?$vector@EV?$allocator@E@std@@@2@@json_abi_v3_11_2@nlohmann@@CAPEAV?$basic_string@DU?$char_traits@D@std@@V?$allocator@D@2@@1@AEAY0BC@$$CBD@Z@AEAPEAV71@@Z
	??$?0AEBV<lambda_1>@?1???$create@V?$basic_string@DU?$char_traits@D@std@@V?$allocator@D@2@@std@@AEAY0BH@$$CBD@?$basic_json@Vmap@std@@Vvector@2@V?$basic_string@DU?$char_traits@D@std@@V?$allocator@D@2@@2@_N_J_KNVallocator@2@Uadl_serializer@json_abi_v3_11_2@nlohmann@@V?$vector@EV?$allocator@E@std@@@2@@json_abi_v3_11_2@nlohmann@@CAPEAV?$basic_string@DU?$char_traits@D@std@@V?$allocator@D@2@@std@@AEAY0BH@$$CBD@Z@AEAPEAV45@@?$_Compressed_pair@V<lambda_1>@?1???$create@V?$basic_string@DU?$char_traits@D@std@@V?$allocator@D@2@@std@@AEAY0BH@$$CBD@?$basic_json@Vmap@std@@Vvector@2@V?$basic_string@DU?$char_traits@D@std@@V?$allocator@D@2@@2@_N_J_KNVallocator@2@Uadl_serializer@json_abi_v3_11_2@nlohmann@@V?$vector@EV?$allocator@E@std@@@2@@json_abi_v3_11_2@nlohmann@@CAPEAV?$basic_string@DU?$char_traits@D@std@@V?$allocator@D@2@@std@@AEAY0BH@$$CBD@Z@PEAV56@$0A@@std@@QEAA@U_One_then_variadic_args_t@1@AEBV<lambda_1>@?1???$create@V?$basic_string@DU?$char_traits@D@std@@V?$allocator@D@2@@std@@AEAY0BH@$$CBD@?$basic_json@Vmap@std@@Vvector@2@V?$basic_string@DU?$char_traits@D@std@@V?$allocator@D@2@@2@_N_J_KNVallocator@2@Uadl_serializer@json_abi_v3_11_2@nlohmann@@V?$vector@EV?$allocator@E@std@@@2@@json_abi_v3_11_2@nlohmann@@CAPEAV?$basic_string@DU?$char_traits@D@std@@V?$allocator@D@2@@1@AEAY0BH@$$CBD@Z@AEAPEAV71@@Z
	??$?0AEBV<lambda_1>@?1???$create@V?$basic_string@DU?$char_traits@D@std@@V?$allocator@D@2@@std@@AEAY0BJ@$$CBD@?$basic_json@Vmap@std@@Vvector@2@V?$basic_string@DU?$char_traits@D@std@@V?$allocator@D@2@@2@_N_J_KNVallocator@2@Uadl_serializer@json_abi_v3_11_2@nlohmann@@V?$vector@EV?$allocator@E@std@@@2@@json_abi_v3_11_2@nlohmann@@CAPEAV?$basic_string@DU?$char_traits@D@std@@V?$allocator@D@2@@std@@AEAY0BJ@$$CBD@Z@AEAPEAV45@@?$_Compressed_pair@V<lambda_1>@?1???$create@V?$basic_string@DU?$char_traits@D@std@@V?$allocator@D@2@@std@@AEAY0BJ@$$CBD@?$basic_json@Vmap@std@@Vvector@2@V?$basic_string@DU?$char_traits@D@std@@V?$allocator@D@2@@2@_N_J_KNVallocator@2@Uadl_serializer@json_abi_v3_11_2@nlohmann@@V?$vector@EV?$allocator@E@std@@@2@@json_abi_v3_11_2@nlohmann@@CAPEAV?$basic_string@DU?$char_traits@D@std@@V?$allocator@D@2@@std@@AEAY0BJ@$$CBD@Z@PEAV56@$0A@@std@@QEAA@U_One_then_variadic_args_t@1@AEBV<lambda_1>@?1???$create@V?$basic_string@DU?$char_traits@D@std@@V?$allocator@D@2@@std@@AEAY0BJ@$$CBD@?$basic_json@Vmap@std@@Vvector@2@V?$basic_string@DU?$char_traits@D@std@@V?$allocator@D@2@@2@_N_J_KNVallocator@2@Uadl_serializer@json_abi_v3_11_2@nlohmann@@V?$vector@EV?$allocator@E@std@@@2@@json_abi_v3_11_2@nlohmann@@CAPEAV?$basic_string@DU?$char_traits@D@std@@V?$allocator@D@2@@1@AEAY0BJ@$$CBD@Z@AEAPEAV71@@Z
	??$?0AEBV<lambda_1>@?1???$create@V?$basic_string@DU?$char_traits@D@std@@V?$allocator@D@2@@std@@AEAY0M@$$CBD@?$basic_json@Vmap@std@@Vvector@2@V?$basic_string@DU?$char_traits@D@std@@V?$allocator@D@2@@2@_N_J_KNVallocator@2@Uadl_serializer@json_abi_v3_11_2@nlohmann@@V?$vector@EV?$allocator@E@std@@@2@@json_abi_v3_11_2@nlohmann@@CAPEAV?$basic_string@DU?$char_traits@D@std@@V?$allocator@D@2@@std@@AEAY0M@$$CBD@Z@AEAPEAV45@@?$_Compressed_pair@V<lambda_1>@?1???$create@V?$basic_string@DU?$char_traits@D@std@@V?$allocator@D@2@@std@@AEAY0M@$$CBD@?$basic_json@Vmap@std@@Vvector@2@V?$basic_string@DU?$char_traits@D@std@@V?$allocator@D@2@@2@_N_J_KNVallocator@2@Uadl_serializer@json_abi_v3_11_2@nlohmann@@V?$vector@EV?$allocator@E@std@@@2@@json_abi_v3_11_2@nlohmann@@CAPEAV?$basic_string@DU?$char_traits@D@std@@V?$allocator@D@2@@std@@AEAY0M@$$CBD@Z@PEAV56@$0A@@std@@QEAA@U_One_then_variadic_args_t@1@AEBV<lambda_1>@?1???$create@V?$basic_string@DU?$char_traits@D@std@@V?$allocator@D@2@@std@@AEAY0M@$$CBD@?$basic_json@Vmap@std@@Vvector@2@V?$basic_string@DU?$char_traits@D@std@@V?$allocator@D@2@@2@_N_J_KNVallocator@2@Uadl_serializer@json_abi_v3_11_2@nlohmann@@V?$vector@EV?$allocator@E@std@@@2@@json_abi_v3_11_2@nlohmann@@CAPEAV?$basic_string@DU?$char_traits@D@std@@V?$allocator@D@2@@1@AEAY0M@$$CBD@Z@AEAPEAV71@@Z
	??$?0AEBV<lambda_1>@?1???$create@V?$basic_string@DU?$char_traits@D@std@@V?$allocator@D@2@@std@@AEBV12@@?$basic_json@Vmap@std@@Vvector@2@V?$basic_string@DU?$char_traits@D@std@@V?$allocator@D@2@@2@_N_J_KNVallocator@2@Uadl_serializer@json_abi_v3_11_2@nlohmann@@V?$vector@EV?$allocator@E@std@@@2@@json_abi_v3_11_2@nlohmann@@CAPEAV?$basic_string@DU?$char_traits@D@std@@V?$allocator@D@2@@std@@AEBV45@@Z@AEAPEAV45@@?$_Compressed_pair@V<lambda_1>@?1???$create@V?$basic_string@DU?$char_traits@D@std@@V?$allocator@D@2@@std@@AEBV12@@?$basic_json@Vmap@std@@Vvector@2@V?$basic_string@DU?$char_traits@D@std@@V?$allocator@D@2@@2@_N_J_KNVallocator@2@Uadl_serializer@json_abi_v3_11_2@nlohmann@@V?$vector@EV?$allocator@E@std@@@2@@json_abi_v3_11_2@nlohmann@@CAPEAV?$basic_string@DU?$char_traits@D@std@@V?$allocator@D@2@@std@@AEBV56@@Z@PEAV56@$0A@@std@@QEAA@U_One_then_variadic_args_t@1@AEBV<lambda_1>@?1???$create@V?$basic_string@DU?$char_traits@D@std@@V?$allocator@D@2@@std@@AEBV12@@?$basic_json@Vmap@std@@Vvector@2@V?$basic_string@DU?$char_traits@D@std@@V?$allocator@D@2@@2@_N_J_KNVallocator@2@Uadl_serializer@json_abi_v3_11_2@nlohmann@@V?$vector@EV?$allocator@E@std@@@2@@json_abi_v3_11_2@nlohmann@@CAPEAV?$basic_string@DU?$char_traits@D@std@@V?$allocator@D@2@@1@AEBV71@@Z@AEAPEAV71@@Z
	??$?0AEBV<lambda_1>@?1???$create@V?$basic_string@DU?$char_traits@D@std@@V?$allocator@D@2@@std@@V12@@?$basic_json@Vmap@std@@Vvector@2@V?$basic_string@DU?$char_traits@D@std@@V?$allocator@D@2@@2@_N_J_KNVallocator@2@Uadl_serializer@json_abi_v3_11_2@nlohmann@@V?$vector@EV?$allocator@E@std@@@2@@json_abi_v3_11_2@nlohmann@@CAPEAV?$basic_string@DU?$char_traits@D@std@@V?$allocator@D@2@@std@@$$QEAV45@@Z@AEAPEAV45@@?$_Compressed_pair@V<lambda_1>@?1???$create@V?$basic_string@DU?$char_traits@D@std@@V?$allocator@D@2@@std@@V12@@?$basic_json@Vmap@std@@Vvector@2@V?$basic_string@DU?$char_traits@D@std@@V?$allocator@D@2@@2@_N_J_KNVallocator@2@Uadl_serializer@json_abi_v3_11_2@nlohmann@@V?$vector@EV?$allocator@E@std@@@2@@json_abi_v3_11_2@nlohmann@@CAPEAV?$basic_string@DU?$char_traits@D@std@@V?$allocator@D@2@@std@@$$QEAV56@@Z@PEAV56@$0A@@std@@QEAA@U_One_then_variadic_args_t@1@AEBV<lambda_1>@?1???$create@V?$basic_string@DU?$char_traits@D@std@@V?$allocator@D@2@@std@@V12@@?$basic_json@Vmap@std@@Vvector@2@V?$basic_string@DU?$char_traits@D@std@@V?$allocator@D@2@@2@_N_J_KNVallocator@2@Uadl_serializer@json_abi_v3_11_2@nlohmann@@V?$vector@EV?$allocator@E@std@@@2@@json_abi_v3_11_2@nlohmann@@CAPEAV?$basic_string@DU?$char_traits@D@std@@V?$allocator@D@2@@1@$$QEAV71@@Z@AEAPEAV71@@Z
	??$?0AEBV<lambda_1>@?1???$create@V?$byte_container_with_subtype@V?$vector@EV?$allocator@E@std@@@std@@@json_abi_v3_11_2@nlohmann@@$$V@?$basic_json@Vmap@std@@Vvector@2@V?$basic_string@DU?$char_traits@D@std@@V?$allocator@D@2@@2@_N_J_KNVallocator@2@Uadl_serializer@json_abi_v3_11_2@nlohmann@@V?$vector@EV?$allocator@E@std@@@2@@json_abi_v3_11_2@nlohmann@@CAPEAV?$byte_container_with_subtype@V?$vector@EV?$allocator@E@std@@@std@@@23@XZ@AEAPEAV423@@?$_Compressed_pair@V<lambda_1>@?1???$create@V?$byte_container_with_subtype@V?$vector@EV?$allocator@E@std@@@std@@@json_abi_v3_11_2@nlohmann@@$$V@?$basic_json@Vmap@std@@Vvector@2@V?$basic_string@DU?$char_traits@D@std@@V?$allocator@D@2@@2@_N_J_KNVallocator@2@Uadl_serializer@json_abi_v3_11_2@nlohmann@@V?$vector@EV?$allocator@E@std@@@2@@json_abi_v3_11_2@nlohmann@@CAPEAV?$byte_container_with_subtype@V?$vector@EV?$allocator@E@std@@@std@@@34@XZ@PEAV534@$0A@@std@@QEAA@U_One_then_variadic_args_t@1@AEBV<lambda_1>@?1???$create@V?$byte_container_with_subtype@V?$vector@EV?$allocator@E@std@@@std@@@json_abi_v3_11_2@nlohmann@@$$V@?$basic_json@Vmap@std@@Vvector@2@V?$basic_string@DU?$char_traits@D@std@@V?$allocator@D@2@@2@_N_J_KNVallocator@2@Uadl_serializer@json_abi_v3_11_2@nlohmann@@V?$vector@EV?$allocator@E@std@@@2@@json_abi_v3_11_2@nlohmann@@CAPEAV?$byte_container_with_subtype@V?$vector@EV?$allocator@E@std@@@std@@@56@XZ@AEAPEAV756@@Z
	??$?0AEBV<lambda_1>@?1???$create@V?$byte_container_with_subtype@V?$vector@EV?$allocator@E@std@@@std@@@json_abi_v3_11_2@nlohmann@@AEBV123@@?$basic_json@Vmap@std@@Vvector@2@V?$basic_string@DU?$char_traits@D@std@@V?$allocator@D@2@@2@_N_J_KNVallocator@2@Uadl_serializer@json_abi_v3_11_2@nlohmann@@V?$vector@EV?$allocator@E@std@@@2@@json_abi_v3_11_2@nlohmann@@CAPEAV?$byte_container_with_subtype@V?$vector@EV?$allocator@E@std@@@std@@@23@AEBV423@@Z@AEAPEAV423@@?$_Compressed_pair@V<lambda_1>@?1???$create@V?$byte_container_with_subtype@V?$vector@EV?$allocator@E@std@@@std@@@json_abi_v3_11_2@nlohmann@@AEBV123@@?$basic_json@Vmap@std@@Vvector@2@V?$basic_string@DU?$char_traits@D@std@@V?$allocator@D@2@@2@_N_J_KNVallocator@2@Uadl_serializer@json_abi_v3_11_2@nlohmann@@V?$vector@EV?$allocator@E@std@@@2@@json_abi_v3_11_2@nlohmann@@CAPEAV?$byte_container_with_subtype@V?$vector@EV?$allocator@E@std@@@std@@@34@AEBV534@@Z@PEAV534@$0A@@std@@QEAA@U_One_then_variadic_args_t@1@AEBV<lambda_1>@?1???$create@V?$byte_container_with_subtype@V?$vector@EV?$allocator@E@std@@@std@@@json_abi_v3_11_2@nlohmann@@AEBV123@@?$basic_json@Vmap@std@@Vvector@2@V?$basic_string@DU?$char_traits@D@std@@V?$allocator@D@2@@2@_N_J_KNVallocator@2@Uadl_serializer@json_abi_v3_11_2@nlohmann@@V?$vector@EV?$allocator@E@std@@@2@@json_abi_v3_11_2@nlohmann@@CAPEAV?$byte_container_with_subtype@V?$vector@EV?$allocator@E@std@@@std@@@56@AEBV756@@Z@AEAPEAV756@@Z
	??$?0AEBV<lambda_1>@?1???$create@V?$vector@V?$basic_json@Vmap@std@@Vvector@2@V?$basic_string@DU?$char_traits@D@std@@V?$allocator@D@2@@2@_N_J_KNVallocator@2@Uadl_serializer@json_abi_v3_11_2@nlohmann@@V?$vector@EV?$allocator@E@std@@@2@@json_abi_v3_11_2@nlohmann@@V?$allocator@V?$basic_json@Vmap@std@@Vvector@2@V?$basic_string@DU?$char_traits@D@std@@V?$allocator@D@2@@2@_N_J_KNVallocator@2@Uadl_serializer@json_abi_v3_11_2@nlohmann@@V?$vector@EV?$allocator@E@std@@@2@@json_abi_v3_11_2@nlohmann@@@std@@@std@@$$V@?$basic_json@Vmap@std@@Vvector@2@V?$basic_string@DU?$char_traits@D@std@@V?$allocator@D@2@@2@_N_J_KNVallocator@2@Uadl_serializer@json_abi_v3_11_2@nlohmann@@V?$vector@EV?$allocator@E@std@@@2@@json_abi_v3_11_2@nlohmann@@CAPEAV?$vector@V?$basic_json@Vmap@std@@Vvector@2@V?$basic_string@DU?$char_traits@D@std@@V?$allocator@D@2@@2@_N_J_KNVallocator@2@Uadl_serializer@json_abi_v3_11_2@nlohmann@@V?$vector@EV?$allocator@E@std@@@2@@json_abi_v3_11_2@nlohmann@@V?$allocator@V?$basic_json@Vmap@std@@Vvector@2@V?$basic_string@DU?$char_traits@D@std@@V?$allocator@D@2@@2@_N_J_KNVallocator@2@Uadl_serializer@json_abi_v3_11_2@nlohmann@@V?$vector@EV?$allocator@E@std@@@2@@json_abi_v3_11_2@nlohmann@@@std@@@std@@XZ@AEAPEAV45@@?$_Compressed_pair@V<lambda_1>@?1???$create@V?$vector@V?$basic_json@Vmap@std@@Vvector@2@V?$basic_string@DU?$char_traits@D@std@@V?$allocator@D@2@@2@_N_J_KNVallocator@2@Uadl_serializer@json_abi_v3_11_2@nlohmann@@V?$vector@EV?$allocator@E@std@@@2@@json_abi_v3_11_2@nlohmann@@V?$allocator@V?$basic_json@Vmap@std@@Vvector@2@V?$basic_string@DU?$char_traits@D@std@@V?$allocator@D@2@@2@_N_J_KNVallocator@2@Uadl_serializer@json_abi_v3_11_2@nlohmann@@V?$vector@EV?$allocator@E@std@@@2@@json_abi_v3_11_2@nlohmann@@@std@@@std@@$$V@?$basic_json@Vmap@std@@Vvector@2@V?$basic_string@DU?$char_traits@D@std@@V?$allocator@D@2@@2@_N_J_KNVallocator@2@Uadl_serializer@json_abi_v3_11_2@nlohmann@@V?$vector@EV?$allocator@E@std@@@2@@json_abi_v3_11_2@nlohmann@@CAPEAV?$vector@V?$basic_json@Vmap@std@@Vvector@2@V?$basic_string@DU?$char_traits@D@std@@V?$allocator@D@2@@2@_N_J_KNVallocator@2@Uadl_serializer@json_abi_v3_11_2@nlohmann@@V?$vector@EV?$allocator@E@std@@@2@@json_abi_v3_11_2@nlohmann@@V?$allocator@V?$basic_json@Vmap@std@@Vvector@2@V?$basic_string@DU?$char_traits@D@std@@V?$allocator@D@2@@2@_N_J_KNVallocator@2@Uadl_serializer@json_abi_v3_11_2@nlohmann@@V?$vector@EV?$allocator@E@std@@@2@@json_abi_v3_11_2@nlohmann@@@std@@@std@@XZ@PEAV56@$0A@@std@@QEAA@U_One_then_variadic_args_t@1@AEBV<lambda_1>@?1???$create@V?$vector@V?$basic_json@Vmap@std@@Vvector@2@V?$basic_string@DU?$char_traits@D@std@@V?$allocator@D@2@@2@_N_J_KNVallocator@2@Uadl_serializer@json_abi_v3_11_2@nlohmann@@V?$vector@EV?$allocator@E@std@@@2@@json_abi_v3_11_2@nlohmann@@V?$allocator@V?$basic_json@Vmap@std@@Vvector@2@V?$basic_string@DU?$char_traits@D@std@@V?$allocator@D@2@@2@_N_J_KNVallocator@2@Uadl_serializer@json_abi_v3_11_2@nlohmann@@V?$vector@EV?$allocator@E@std@@@2@@json_abi_v3_11_2@nlohmann@@@std@@@std@@$$V@?$basic_json@Vmap@std@@Vvector@2@V?$basic_string@DU?$char_traits@D@std@@V?$allocator@D@2@@2@_N_J_KNVallocator@2@Uadl_serializer@json_abi_v3_11_2@nlohmann@@V?$vector@EV?$allocator@E@std@@@2@@json_abi_v3_11_2@nlohmann@@CAPEAV?$vector@V?$basic_json@Vmap@std@@Vvector@2@V?$basic_string@DU?$char_traits@D@std@@V?$allocator@D@2@@2@_N_J_KNVallocator@2@Uadl_serializer@json_abi_v3_11_2@nlohmann@@V?$vector@EV?$allocator@E@std@@@2@@json_abi_v3_11_2@nlohmann@@V?$allocator@V?$basic_json@Vmap@std@@Vvector@2@V?$basic_string@DU?$char_traits@D@std@@V?$allocator@D@2@@2@_N_J_KNVallocator@2@Uadl_serializer@json_abi_v3_11_2@nlohmann@@V?$vector@EV?$allocator@E@std@@@2@@json_abi_v3_11_2@nlohmann@@@std@@@1@XZ@AEAPEAV71@@Z
	??$?0AEBV<lambda_1>@?1???$create@V?$vector@V?$basic_json@Vmap@std@@Vvector@2@V?$basic_string@DU?$char_traits@D@std@@V?$allocator@D@2@@2@_N_J_KNVallocator@2@Uadl_serializer@json_abi_v3_11_2@nlohmann@@V?$vector@EV?$allocator@E@std@@@2@@json_abi_v3_11_2@nlohmann@@V?$allocator@V?$basic_json@Vmap@std@@Vvector@2@V?$basic_string@DU?$char_traits@D@std@@V?$allocator@D@2@@2@_N_J_KNVallocator@2@Uadl_serializer@json_abi_v3_11_2@nlohmann@@V?$vector@EV?$allocator@E@std@@@2@@json_abi_v3_11_2@nlohmann@@@std@@@std@@AEBV12@@?$basic_json@Vmap@std@@Vvector@2@V?$basic_string@DU?$char_traits@D@std@@V?$allocator@D@2@@2@_N_J_KNVallocator@2@Uadl_serializer@json_abi_v3_11_2@nlohmann@@V?$vector@EV?$allocator@E@std@@@2@@json_abi_v3_11_2@nlohmann@@CAPEAV?$vector@V?$basic_json@Vmap@std@@Vvector@2@V?$basic_string@DU?$char_traits@D@std@@V?$allocator@D@2@@2@_N_J_KNVallocator@2@Uadl_serializer@json_abi_v3_11_2@nlohmann@@V?$vector@EV?$allocator@E@std@@@2@@json_abi_v3_11_2@nlohmann@@V?$allocator@V?$basic_json@Vmap@std@@Vvector@2@V?$basic_string@DU?$char_traits@D@std@@V?$allocator@D@2@@2@_N_J_KNVallocator@2@Uadl_serializer@json_abi_v3_11_2@nlohmann@@V?$vector@EV?$allocator@E@std@@@2@@json_abi_v3_11_2@nlohmann@@@std@@@std@@AEBV45@@Z@AEAPEAV45@@?$_Compressed_pair@V<lambda_1>@?1???$create@V?$vector@V?$basic_json@Vmap@std@@Vvector@2@V?$basic_string@DU?$char_traits@D@std@@V?$allocator@D@2@@2@_N_J_KNVallocator@2@Uadl_serializer@json_abi_v3_11_2@nlohmann@@V?$vector@EV?$allocator@E@std@@@2@@json_abi_v3_11_2@nlohmann@@V?$allocator@V?$basic_json@Vmap@std@@Vvector@2@V?$basic_string@DU?$char_traits@D@std@@V?$allocator@D@2@@2@_N_J_KNVallocator@2@Uadl_serializer@json_abi_v3_11_2@nlohmann@@V?$vector@EV?$allocator@E@std@@@2@@json_abi_v3_11_2@nlohmann@@@std@@@std@@AEBV12@@?$basic_json@Vmap@std@@Vvector@2@V?$basic_string@DU?$char_traits@D@std@@V?$allocator@D@2@@2@_N_J_KNVallocator@2@Uadl_serializer@json_abi_v3_11_2@nlohmann@@V?$vector@EV?$allocator@E@std@@@2@@json_abi_v3_11_2@nlohmann@@CAPEAV?$vector@V?$basic_json@Vmap@std@@Vvector@2@V?$basic_string@DU?$char_traits@D@std@@V?$allocator@D@2@@2@_N_J_KNVallocator@2@Uadl_serializer@json_abi_v3_11_2@nlohmann@@V?$vector@EV?$allocator@E@std@@@2@@json_abi_v3_11_2@nlohmann@@V?$allocator@V?$basic_json@Vmap@std@@Vvector@2@V?$basic_string@DU?$char_traits@D@std@@V?$allocator@D@2@@2@_N_J_KNVallocator@2@Uadl_serializer@json_abi_v3_11_2@nlohmann@@V?$vector@EV?$allocator@E@std@@@2@@json_abi_v3_11_2@nlohmann@@@std@@@std@@AEBV56@@Z@PEAV56@$0A@@std@@QEAA@U_One_then_variadic_args_t@1@AEBV<lambda_1>@?1???$create@V?$vector@V?$basic_json@Vmap@std@@Vvector@2@V?$basic_string@DU?$char_traits@D@std@@V?$allocator@D@2@@2@_N_J_KNVallocator@2@Uadl_serializer@json_abi_v3_11_2@nlohmann@@V?$vector@EV?$allocator@E@std@@@2@@json_abi_v3_11_2@nlohmann@@V?$allocator@V?$basic_json@Vmap@std@@Vvector@2@V?$basic_string@DU?$char_traits@D@std@@V?$allocator@D@2@@2@_N_J_KNVallocator@2@Uadl_serializer@json_abi_v3_11_2@nlohmann@@V?$vector@EV?$allocator@E@std@@@2@@json_abi_v3_11_2@nlohmann@@@std@@@std@@AEBV12@@?$basic_json@Vmap@std@@Vvector@2@V?$basic_string@DU?$char_traits@D@std@@V?$allocator@D@2@@2@_N_J_KNVallocator@2@Uadl_serializer@json_abi_v3_11_2@nlohmann@@V?$vector@EV?$allocator@E@std@@@2@@json_abi_v3_11_2@nlohmann@@CAPEAV?$vector@V?$basic_json@Vmap@std@@Vvector@2@V?$basic_string@DU?$char_traits@D@std@@V?$allocator@D@2@@2@_N_J_KNVallocator@2@Uadl_serializer@json_abi_v3_11_2@nlohmann@@V?$vector@EV?$allocator@E@std@@@2@@json_abi_v3_11_2@nlohmann@@V?$allocator@V?$basic_json@Vmap@std@@Vvector@2@V?$basic_string@DU?$char_traits@D@std@@V?$allocator@D@2@@2@_N_J_KNVallocator@2@Uadl_serializer@json_abi_v3_11_2@nlohmann@@V?$vector@EV?$allocator@E@std@@@2@@json_abi_v3_11_2@nlohmann@@@std@@@1@AEBV71@@Z@AEAPEAV71@@Z
	??$?0AEBV<lambda_1>@?1???$create_socket@V<lambda_1>@?1??create_client_socket@detail@httplib@@YA_KAEBV?$basic_string@DU?$char_traits@D@std@@V?$allocator@D@2@@std@@0HH_N1V?$function@$$A6AX_K@Z@6@_J333330AEAW4Error@4@@Z@@detail@httplib@@YA_KAEBV?$basic_string@DU?$char_traits@D@std@@V?$allocator@D@2@@std@@0HHH_N1V?$function@$$A6AX_K@Z@4@V0?1??create_client_socket@12@YA_K00HH112_J333330AEAW4Error@2@@Z@3@Z@$0A@@?$_Func_impl_no_alloc@V<lambda_1>@?1???$create_socket@V<lambda_1>@?1??create_client_socket@detail@httplib@@YA_KAEBV?$basic_string@DU?$char_traits@D@std@@V?$allocator@D@2@@std@@0HH_N1V?$function@$$A6AX_K@Z@6@_J333330AEAW4Error@4@@Z@@detail@httplib@@YA_KAEBV?$basic_string@DU?$char_traits@D@std@@V?$allocator@D@2@@std@@0HHH_N1V?$function@$$A6AX_K@Z@5@V1?1??create_client_socket@23@YA_K00HH112_J333330AEAW4Error@3@@Z@3@Z@X$$V@std@@QEAA@AEBV<lambda_1>@?1???$create_socket@V<lambda_1>@?1??create_client_socket@detail@httplib@@YA_KAEBV?$basic_string@DU?$char_traits@D@std@@V?$allocator@D@2@@std@@0HH_N1V?$function@$$A6AX_K@Z@6@_J333330AEAW4Error@4@@Z@@detail@httplib@@YA_KAEBV?$basic_string@DU?$char_traits@D@std@@V?$allocator@D@2@@1@0HHH_N1V?$function@$$A6AX_K@Z@1@V2?1??create_client_socket@34@YA_K00HH112_J333330AEAW4Error@4@@Z@3@Z@@Z
	??$?0AEBV<lambda_1>@?1???$write_content_chunked@V<lambda_1>@?1??write_content_with_provider@ClientImpl@httplib@@IEBA_NAEAVStream@4@AEBURequest@4@AEAW4Error@4@@Z@Vcompressor@detail@4@@detail@httplib@@YA_NAEAVStream@2@AEBV?$function@$$A6A_N_K0AEAVDataSink@httplib@@@Z@std@@AEBV0?1??write_content_with_provider@ClientImpl@2@IEBA_N0AEBURequest@2@AEAW4Error@2@@Z@AEAVcompressor@12@3@Z@$0A@@?$_Func_impl_no_alloc@V<lambda_1>@?1???$write_content_chunked@V<lambda_1>@?1??write_content_with_provider@ClientImpl@httplib@@IEBA_NAEAVStream@4@AEBURequest@4@AEAW4Error@4@@Z@Vcompressor@detail@4@@detail@httplib@@YA_NAEAVStream@3@AEBV?$function@$$A6A_N_K0AEAVDataSink@httplib@@@Z@std@@AEBV1?1??write_content_with_provider@ClientImpl@3@IEBA_N0AEBURequest@3@AEAW4Error@3@@Z@AEAVcompressor@23@3@Z@_NPEBD_K@std@@QEAA@AEBV<lambda_1>@?1???$write_content_chunked@V<lambda_1>@?1??write_content_with_provider@ClientImpl@httplib@@IEBA_NAEAVStream@4@AEBURequest@4@AEAW4Error@4@@Z@Vcompressor@detail@4@@detail@httplib@@YA_NAEAVStream@4@AEBV?$function@$$A6A_N_K0AEAVDataSink@httplib@@@Z@1@AEBV2?1??write_content_with_provider@ClientImpl@4@IEBA_N0AEBURequest@4@AEAW4Error@4@@Z@AEAVcompressor@34@3@Z@@Z
	??$?0AEBV<lambda_1>@?1???$write_content_with_progress@V<lambda_1>@?1??write_content_with_provider@ClientImpl@httplib@@IEBA_NAEAVStream@4@AEBURequest@4@AEAW4Error@4@@Z@@detail@httplib@@YA_NAEAVStream@2@AEBV?$function@$$A6A_N_K0AEAVDataSink@httplib@@@Z@std@@_K2V0?1??write_content_with_provider@ClientImpl@2@IEBA_N0AEBURequest@2@AEAW4Error@2@@Z@AEBV?$function@$$A6A_N_K0@Z@5@4@Z@$0A@@?$_Func_impl_no_alloc@V<lambda_1>@?1???$write_content_with_progress@V<lambda_1>@?1??write_content_with_provider@ClientImpl@httplib@@IEBA_NAEAVStream@4@AEBURequest@4@AEAW4Error@4@@Z@@detail@httplib@@YA_NAEAVStream@3@AEBV?$function@$$A6A_N_K0AEAVDataSink@httplib@@@Z@std@@_K2V1?1??write_content_with_provider@ClientImpl@3@IEBA_N0AEBURequest@3@AEAW4Error@3@@Z@AEBV?$function@$$A6A_N_K0@Z@6@4@Z@_NPEBD_K@std@@QEAA@AEBV<lambda_1>@?1???$write_content_with_progress@V<lambda_1>@?1??write_content_with_provider@ClientImpl@httplib@@IEBA_NAEAVStream@4@AEBURequest@4@AEAW4Error@4@@Z@@detail@httplib@@YA_NAEAVStream@4@AEBV?$function@$$A6A_N_K0AEAVDataSink@httplib@@@Z@1@_K2V2?1??write_content_with_provider@ClientImpl@4@IEBA_N0AEBURequest@4@AEAW4Error@4@@Z@AEBV?$function@$$A6A_N_K0@Z@1@4@Z@@Z
	??$?0AEBV<lambda_1>@?1???R0?1??normalize_query_string@detail@httplib@@YA?AV?$basic_string@DU?$char_traits@D@std@@V?$allocator@D@2@@std@@AEBV45@@Z@QEBA@PEBD1@Z@$0A@@?$_Func_impl_no_alloc@V<lambda_1>@?1???R1?1??normalize_query_string@detail@httplib@@YA?AV?$basic_string@DU?$char_traits@D@std@@V?$allocator@D@2@@std@@AEBV56@@Z@QEBA@PEBD1@Z@XPEBD_KPEBD_K@std@@QEAA@AEBV<lambda_1>@?1???R2?1??normalize_query_string@detail@httplib@@YA?AV?$basic_string@DU?$char_traits@D@std@@V?$allocator@D@2@@1@AEBV61@@Z@QEBA@PEBD1@Z@@Z
	??$?0AEBV<lambda_1>@?1???R0?1??parse_query_text@detail@httplib@@YAXPEBD_KAEAV?$multimap@V?$basic_string@DU?$char_traits@D@std@@V?$allocator@D@2@@std@@V12@U?$less@V?$basic_string@DU?$char_traits@D@std@@V?$allocator@D@2@@std@@@2@V?$allocator@U?$pair@$$CBV?$basic_string@DU?$char_traits@D@std@@V?$allocator@D@2@@std@@V12@@std@@@2@@std@@@Z@QEBA@00@Z@$0A@@?$_Func_impl_no_alloc@V<lambda_1>@?1???R1?1??parse_query_text@detail@httplib@@YAXPEBD_KAEAV?$multimap@V?$basic_string@DU?$char_traits@D@std@@V?$allocator@D@2@@std@@V12@U?$less@V?$basic_string@DU?$char_traits@D@std@@V?$allocator@D@2@@std@@@2@V?$allocator@U?$pair@$$CBV?$basic_string@DU?$char_traits@D@std@@V?$allocator@D@2@@std@@V12@@std@@@2@@std@@@Z@QEBA@00@Z@XPEBD_KPEBD_K@std@@QEAA@AEBV<lambda_1>@?1???R2?1??parse_query_text@detail@httplib@@YAXPEBD_KAEAV?$multimap@V?$basic_string@DU?$char_traits@D@std@@V?$allocator@D@2@@std@@V12@U?$less@V?$basic_string@DU?$char_traits@D@std@@V?$allocator@D@2@@std@@@2@V?$allocator@U?$pair@$$CBV?$basic_string@DU?$char_traits@D@std@@V?$allocator@D@2@@std@@V12@@std@@@2@@1@@Z@QEBA@00@Z@@Z
	??$?0AEBV<lambda_1>@?1???R0?BB@???$prepare_content_receiver@UResponse@httplib@@V<lambda_1>@?1???$read_content@UResponse@httplib@@@detail@2@YA_NAEAVStream@2@AEAU12@_KAEAHV?$function@$$A6A_N_K0@Z@std@@V?$function@$$A6A_NPEBD_K11@Z@7@_N@Z@@detail@httplib@@YA_NAEAUResponse@2@AEAHV?$function@$$A6A_NPEBD_K11@Z@std@@_N_KAEA_NV0?1???$read_content@UResponse@httplib@@@12@YA_NAEAVStream@2@041V?$function@$$A6A_N_K0@Z@5@23@Z@@Z@QEBA@PEBD444@Z@$0A@@?$_Func_impl_no_alloc@V<lambda_1>@?1???R1?BB@???$prepare_content_receiver@UResponse@httplib@@V<lambda_1>@?1???$read_content@UResponse@httplib@@@detail@2@YA_NAEAVStream@2@AEAU12@_KAEAHV?$function@$$A6A_N_K0@Z@std@@V?$function@$$A6A_NPEBD_K11@Z@7@_N@Z@@detail@httplib@@YA_NAEAUResponse@3@AEAHV?$function@$$A6A_NPEBD_K11@Z@std@@_N_KAEA_NV1?1???$read_content@UResponse@httplib@@@23@YA_NAEAVStream@3@041V?$function@$$A6A_N_K0@Z@6@23@Z@@Z@QEBA@PEBD444@Z@_NPEBD_K@std@@QEAA@AEBV<lambda_1>@?1???R2?BB@???$prepare_content_receiver@UResponse@httplib@@V<lambda_1>@?1???$read_content@UResponse@httplib@@@detail@2@YA_NAEAVStream@2@AEAU12@_KAEAHV?$function@$$A6A_N_K0@Z@std@@V?$function@$$A6A_NPEBD_K11@Z@7@_N@Z@@detail@httplib@@YA_NAEAUResponse@4@AEAHV?$function@$$A6A_NPEBD_K11@Z@1@_N_KAEA_NV2?1???$read_content@UResponse@httplib@@@34@YA_NAEAVStream@4@041V?$function@$$A6A_N_K0@Z@1@23@Z@@Z@QEBA@PEBD444@Z@@Z
	??$?0AEBV<lambda_1>@?1???R<lambda_3>@?1???$write_content_chunked@V<lambda_1>@?1??write_content_with_provider@ClientImpl@httplib@@IEBA_NAEAVStream@4@AEBURequest@4@AEAW4Error@4@@Z@Vcompressor@detail@4@@detail@httplib@@YA_NAEAVStream@3@AEBV?$function@$$A6A_N_K0AEAVDataSink@httplib@@@Z@std@@AEBV0?1??write_content_with_provider@ClientImpl@3@IEBA_N0AEBURequest@3@AEAW4Error@3@@Z@AEAVcompressor@23@3@Z@QEBA@PEBV?$unordered_multimap@V?$basic_string@DU?$char_traits@D@std@@V?$allocator@D@2@@std@@V12@Uhash@case_ignore@detail@httplib@@Uequal_to@456@V?$allocator@U?$pair@$$CBV?$basic_string@DU?$char_traits@D@std@@V?$allocator@D@2@@std@@V12@@std@@@2@@6@@Z@$0A@@?$_Func_impl_no_alloc@V<lambda_1>@?1???R<lambda_3>@?1???$write_content_chunked@V<lambda_1>@?1??write_content_with_provider@ClientImpl@httplib@@IEBA_NAEAVStream@4@AEBURequest@4@AEAW4Error@4@@Z@Vcompressor@detail@4@@detail@httplib@@YA_NAEAVStream@4@AEBV?$function@$$A6A_N_K0AEAVDataSink@httplib@@@Z@std@@AEBV1?1??write_content_with_provider@ClientImpl@4@IEBA_N0AEBURequest@4@AEAW4Error@4@@Z@AEAVcompressor@34@3@Z@QEBA@PEBV?$unordered_multimap@V?$basic_string@DU?$char_traits@D@std@@V?$allocator@D@2@@std@@V12@Uhash@case_ignore@detail@httplib@@Uequal_to@456@V?$allocator@U?$pair@$$CBV?$basic_string@DU?$char_traits@D@std@@V?$allocator@D@2@@std@@V12@@std@@@2@@7@@Z@_NPEBD_K@std@@QEAA@AEBV<lambda_1>@?1???R<lambda_3>@?1???$write_content_chunked@V<lambda_1>@?1??write_content_with_provider@ClientImpl@httplib@@IEBA_NAEAVStream@4@AEBURequest@4@AEAW4Error@4@@Z@Vcompressor@detail@4@@detail@httplib@@YA_NAEAVStream@5@AEBV?$function@$$A6A_N_K0AEAVDataSink@httplib@@@Z@1@AEBV2?1??write_content_with_provider@ClientImpl@5@IEBA_N0AEBURequest@5@AEAW4Error@5@@Z@AEAVcompressor@45@3@Z@QEBA@PEBV?$unordered_multimap@V?$basic_string@DU?$char_traits@D@std@@V?$allocator@D@2@@std@@V12@Uhash@case_ignore@detail@httplib@@Uequal_to@456@V?$allocator@U?$pair@$$CBV?$basic_string@DU?$char_traits@D@std@@V?$allocator@D@2@@std@@V12@@std@@@2@@1@@Z@@Z
	??$?0AEBV<lambda_1>@?1??connect_nonblocking@tls@httplib@@YA_NPEAX_K_J2PEAUTlsError@23@@Z@$0A@@?$_Func_impl_no_alloc@V<lambda_1>@?1??connect_nonblocking@tls@httplib@@YA_NPEAX_K_J2PEAUTlsError@34@@Z@X$$V@std@@QEAA@AEBV<lambda_1>@?1??connect_nonblocking@tls@httplib@@YA_NPEAX_K_J2PEAUTlsError@45@@Z@@Z
	??$?0AEBV<lambda_1>@?1??initialize_ssl@SSLClient@httplib@@AEAA_NAEAUSocket@ClientImpl@3@AEAW4Error@3@@Z@$0A@@?$_Func_impl_no_alloc@V<lambda_1>@?1??initialize_ssl@SSLClient@httplib@@AEAA_NAEAUSocket@ClientImpl@4@AEAW4Error@4@@Z@X$$V@std@@QEAA@AEBV<lambda_1>@?1??initialize_ssl@SSLClient@httplib@@AEAA_NAEAUSocket@ClientImpl@5@AEAW4Error@5@@Z@@Z
	??$?0AEBV<lambda_1>@?1??is_peer_closed@tls@httplib@@YA_NPEAX_K@Z@$0A@@?$_Func_impl_no_alloc@V<lambda_1>@?1??is_peer_closed@tls@httplib@@YA_NPEAX_K@Z@X$$V@std@@QEAA@AEBV<lambda_1>@?1??is_peer_closed@tls@httplib@@YA_NPEAX_K@Z@@Z
	??$?0AEBV<lambda_1>@?1??normalize_query_string@detail@httplib@@YA?AV?$basic_string@DU?$char_traits@D@std@@V?$allocator@D@2@@std@@AEBV45@@Z@$0A@@?$_Func_impl_no_alloc@V<lambda_1>@?1??normalize_query_string@detail@httplib@@YA?AV?$basic_string@DU?$char_traits@D@std@@V?$allocator@D@2@@std@@AEBV56@@Z@XPEBDPEBD@std@@QEAA@AEBV<lambda_1>@?1??normalize_query_string@detail@httplib@@YA?AV?$basic_string@DU?$char_traits@D@std@@V?$allocator@D@2@@1@AEBV61@@Z@@Z
	??$?0AEBV<lambda_1>@?1??parse_query_text@detail@httplib@@YAXPEBD_KAEAV?$multimap@V?$basic_string@DU?$char_traits@D@std@@V?$allocator@D@2@@std@@V12@U?$less@V?$basic_string@DU?$char_traits@D@std@@V?$allocator@D@2@@std@@@2@V?$allocator@U?$pair@$$CBV?$basic_string@DU?$char_traits@D@std@@V?$allocator@D@2@@std@@V12@@std@@@2@@std@@@Z@$0A@@?$_Func_impl_no_alloc@V<lambda_1>@?1??parse_query_text@detail@httplib@@YAXPEBD_KAEAV?$multimap@V?$basic_string@DU?$char_traits@D@std@@V?$allocator@D@2@@std@@V12@U?$less@V?$basic_string@DU?$char_traits@D@std@@V?$allocator@D@2@@std@@@2@V?$allocator@U?$pair@$$CBV?$basic_string@DU?$char_traits@D@std@@V?$allocator@D@2@@std@@V12@@std@@@2@@std@@@Z@XPEBDPEBD@std@@QEAA@AEBV<lambda_1>@?1??parse_query_text@detail@httplib@@YAXPEBD_KAEAV?$multimap@V?$basic_string@DU?$char_traits@D@std@@V?$allocator@D@2@@std@@V12@U?$less@V?$basic_string@DU?$char_traits@D@std@@V?$allocator@D@2@@std@@@2@V?$allocator@U?$pair@$$CBV?$basic_string@DU?$char_traits@D@std@@V?$allocator@D@2@@std@@V12@@std@@@2@@1@@Z@@Z
	??$?0AEBV<lambda_1>@?1??send_@ClientImpl@httplib@@AEAA_NAEAURequest@3@AEAUResponse@3@AEAW4Error@3@@Z@$0A@@?$_Func_impl_no_alloc@V<lambda_1>@?1??send_@ClientImpl@httplib@@AEAA_NAEAURequest@4@AEAUResponse@4@AEAW4Error@4@@Z@X$$V@std@@QEAA@AEBV<lambda_1>@?1??send_@ClientImpl@httplib@@AEAA_NAEAURequest@5@AEAUResponse@5@AEAW4Error@5@@Z@@Z
	??$?0AEBV<lambda_1>@?1??set_server_certificate_verifier@SSLClient@httplib@@UEAAXV?$function@$$A6A?AW4SSLVerifierResponse@httplib@@PEAUssl_st@@@Z@std@@@Z@$0A@@?$_Func_impl_no_alloc@V<lambda_1>@?1??set_server_certificate_verifier@SSLClient@httplib@@UEAAXV?$function@$$A6A?AW4SSLVerifierResponse@httplib@@PEAUssl_st@@@Z@std@@@Z@W4SSLVerifierResponse@4@PEAX@std@@QEAA@AEBV<lambda_1>@?1??set_server_certificate_verifier@SSLClient@httplib@@UEAAXV?$function@$$A6A?AW4SSLVerifierResponse@httplib@@PEAUssl_st@@@Z@1@@Z@@Z
	??$?0AEBV<lambda_1>@?1??verify_cert_with_windows_schannel@detail@httplib@@YA_NAEBV?$vector@EV?$allocator@E@std@@@std@@AEBV?$basic_string@DU?$char_traits@D@std@@V?$allocator@D@2@@5@_NAEA_K@Z@$0A@@?$_Func_impl_no_alloc@V<lambda_1>@?1??verify_cert_with_windows_schannel@detail@httplib@@YA_NAEBV?$vector@EV?$allocator@E@std@@@std@@AEBV?$basic_string@DU?$char_traits@D@std@@V?$allocator@D@2@@6@_NAEA_K@Z@X$$V@std@@QEAA@AEBV<lambda_1>@?1??verify_cert_with_windows_schannel@detail@httplib@@YA_NAEBV?$vector@EV?$allocator@E@std@@@1@AEBV?$basic_string@DU?$char_traits@D@std@@V?$allocator@D@2@@1@_NAEA_K@Z@@Z
	??$?0AEBV<lambda_1>@?4???R0?1???$write_content_chunked@V<lambda_1>@?1??write_content_with_provider@ClientImpl@httplib@@IEBA_NAEAVStream@4@AEBURequest@4@AEAW4Error@4@@Z@Vcompressor@detail@4@@detail@httplib@@YA_NAEAVStream@2@AEBV?$function@$$A6A_N_K0AEAVDataSink@httplib@@@Z@std@@AEBV0?1??write_content_with_provider@ClientImpl@2@IEBA_N0AEBURequest@2@AEAW4Error@2@@Z@AEAVcompressor@12@3@Z@QEBA_NPEBD_K@Z@$0A@@?$_Func_impl_no_alloc@V<lambda_1>@?4???R1?1???$write_content_chunked@V<lambda_1>@?1??write_content_with_provider@ClientImpl@httplib@@IEBA_NAEAVStream@4@AEBURequest@4@AEAW4Error@4@@Z@Vcompressor@detail@4@@detail@httplib@@YA_NAEAVStream@3@AEBV?$function@$$A6A_N_K0AEAVDataSink@httplib@@@Z@std@@AEBV1?1??write_content_with_provider@ClientImpl@3@IEBA_N0AEBURequest@3@AEAW4Error@3@@Z@AEAVcompressor@23@3@Z@QEBA_NPEBD_K@Z@_NPEBD_K@std@@QEAA@AEBV<lambda_1>@?4???R2?1???$write_content_chunked@V<lambda_1>@?1??write_content_with_provider@ClientImpl@httplib@@IEBA_NAEAVStream@4@AEBURequest@4@AEAW4Error@4@@Z@Vcompressor@detail@4@@detail@httplib@@YA_NAEAVStream@4@AEBV?$function@$$A6A_N_K0AEAVDataSink@httplib@@@Z@1@AEBV2?1??write_content_with_provider@ClientImpl@4@IEBA_N0AEBURequest@4@AEAW4Error@4@@Z@AEAVcompressor@34@3@Z@QEBA_NPEBD_K@Z@@Z
	??$?0AEBV<lambda_1>@?4???R0?O@??send_with_content_provider_and_receiver@ClientImpl@httplib@@AEAA?AV?$unique_ptr@UResponse@httplib@@U?$default_delete@UResponse@httplib@@@std@@@std@@AEAURequest@3@PEBD_KV?$function@$$A6A_N_K0AEAVDataSink@httplib@@@Z@5@V?$function@$$A6A_N_KAEAVDataSink@httplib@@@Z@5@AEBV?$basic_string@DU?$char_traits@D@std@@V?$allocator@D@2@@5@V?$function@$$A6A_NPEBD_K@Z@5@AEAW4Error@3@@Z@QEBA_N12@Z@$0A@@?$_Func_impl_no_alloc@V<lambda_1>@?4???R1?O@??send_with_content_provider_and_receiver@ClientImpl@httplib@@AEAA?AV?$unique_ptr@UResponse@httplib@@U?$default_delete@UResponse@httplib@@@std@@@std@@AEAURequest@4@PEBD_KV?$function@$$A6A_N_K0AEAVDataSink@httplib@@@Z@6@V?$function@$$A6A_N_KAEAVDataSink@httplib@@@Z@6@AEBV?$basic_string@DU?$char_traits@D@std@@V?$allocator@D@2@@6@V?$function@$$A6A_NPEBD_K@Z@6@AEAW4Error@4@@Z@QEBA_N12@Z@_NPEBD_K@std@@QEAA@AEBV<lambda_1>@?4???R2?O@??send_with_content_provider_and_receiver@ClientImpl@httplib@@AEAA?AV?$unique_ptr@UResponse@httplib@@U?$default_delete@UResponse@httplib@@@std@@@1@AEAURequest@5@PEBD_KV?$function@$$A6A_N_K0AEAVDataSink@httplib@@@Z@1@V?$function@$$A6A_N_KAEAVDataSink@httplib@@@Z@1@AEBV?$basic_string@DU?$char_traits@D@std@@V?$allocator@D@2@@1@V?$function@$$A6A_NPEBD_K@Z@1@AEAW4Error@5@@Z@QEBA_N12@Z@@Z
	??$?0AEBV<lambda_1>@?4??parse_trailers@detail@httplib@@YA_NAEAVstream_line_reader@23@AEAV?$unordered_multimap@V?$basic_string@DU?$char_traits@D@std@@V?$allocator@D@2@@std@@V12@Uhash@case_ignore@detail@httplib@@Uequal_to@456@V?$allocator@U?$pair@$$CBV?$basic_string@DU?$char_traits@D@std@@V?$allocator@D@2@@std@@V12@@std@@@2@@std@@AEBV56@@Z@$0A@@?$_Func_impl_no_alloc@V<lambda_1>@?4??parse_trailers@detail@httplib@@YA_NAEAVstream_line_reader@34@AEAV?$unordered_multimap@V?$basic_string@DU?$char_traits@D@std@@V?$allocator@D@2@@std@@V12@Uhash@case_ignore@detail@httplib@@Uequal_to@456@V?$allocator@U?$pair@$$CBV?$basic_string@DU?$char_traits@D@std@@V?$allocator@D@2@@std@@V12@@std@@@2@@std@@AEBV67@@Z@XPEBDPEBD@std@@QEAA@AEBV<lambda_1>@?4??parse_trailers@detail@httplib@@YA_NAEAVstream_line_reader@45@AEAV?$unordered_multimap@V?$basic_string@DU?$char_traits@D@std@@V?$allocator@D@2@@std@@V12@Uhash@case_ignore@detail@httplib@@Uequal_to@456@V?$allocator@U?$pair@$$CBV?$basic_string@DU?$char_traits@D@std@@V?$allocator@D@2@@std@@V12@@std@@@2@@1@AEBV71@@Z@@Z
	??$?0AEBV<lambda_1>@?BB@???$prepare_content_receiver@UResponse@httplib@@V<lambda_1>@?1???$read_content@UResponse@httplib@@@detail@2@YA_NAEAVStream@2@AEAU12@_KAEAHV?$function@$$A6A_N_K0@Z@std@@V?$function@$$A6A_NPEBD_K11@Z@7@_N@Z@@detail@httplib@@YA_NAEAUResponse@2@AEAHV?$function@$$A6A_NPEBD_K11@Z@std@@_N_KAEA_NV0?1???$read_content@UResponse@httplib@@@12@YA_NAEAVStream@2@041V?$function@$$A6A_N_K0@Z@5@23@Z@@Z@$0A@@?$_Func_impl_no_alloc@V<lambda_1>@?BB@???$prepare_content_receiver@UResponse@httplib@@V<lambda_1>@?1???$read_content@UResponse@httplib@@@detail@2@YA_NAEAVStream@2@AEAU12@_KAEAHV?$function@$$A6A_N_K0@Z@std@@V?$function@$$A6A_NPEBD_K11@Z@7@_N@Z@@detail@httplib@@YA_NAEAUResponse@3@AEAHV?$function@$$A6A_NPEBD_K11@Z@std@@_N_KAEA_NV1?1???$read_content@UResponse@httplib@@@23@YA_NAEAVStream@3@041V?$function@$$A6A_N_K0@Z@6@23@Z@@Z@_NPEBD_K_K_K@std@@QEAA@AEBV<lambda_1>@?BB@???$prepare_content_receiver@UResponse@httplib@@V<lambda_1>@?1???$read_content@UResponse@httplib@@@detail@2@YA_NAEAVStream@2@AEAU12@_KAEAHV?$function@$$A6A_N_K0@Z@std@@V?$function@$$A6A_NPEBD_K11@Z@7@_N@Z@@detail@httplib@@YA_NAEAUResponse@4@AEAHV?$function@$$A6A_NPEBD_K11@Z@1@_N_KAEA_NV2?1???$read_content@UResponse@httplib@@@34@YA_NAEAVStream@4@041V?$function@$$A6A_N_K0@Z@1@23@Z@@Z@@Z
	??$?0AEBV<lambda_1>@?DC@??process_request@ClientImpl@httplib@@IEAA_NAEAVStream@3@AEAURequest@3@AEAUResponse@3@_NAEAW4Error@3@@Z@$0A@@?$_Func_impl_no_alloc@V<lambda_1>@?DC@??process_request@ClientImpl@httplib@@IEAA_NAEAVStream@4@AEAURequest@4@AEAUResponse@4@_NAEAW4Error@4@@Z@_NPEBD_K_K_K@std@@QEAA@AEBV<lambda_1>@?DC@??process_request@ClientImpl@httplib@@IEAA_NAEAVStream@5@AEAURequest@5@AEAUResponse@5@_NAEAW4Error@5@@Z@@Z
	??$?0AEBV<lambda_1>@?O@??send_with_content_provider_and_receiver@ClientImpl@httplib@@AEAA?AV?$unique_ptr@UResponse@httplib@@U?$default_delete@UResponse@httplib@@@std@@@std@@AEAURequest@3@PEBD_KV?$function@$$A6A_N_K0AEAVDataSink@httplib@@@Z@5@V?$function@$$A6A_N_KAEAVDataSink@httplib@@@Z@5@AEBV?$basic_string@DU?$char_traits@D@std@@V?$allocator@D@2@@5@V?$function@$$A6A_NPEBD_K@Z@5@AEAW4Error@3@@Z@$0A@@?$_Func_impl_no_alloc@V<lambda_1>@?O@??send_with_content_provider_and_receiver@ClientImpl@httplib@@AEAA?AV?$unique_ptr@UResponse@httplib@@U?$default_delete@UResponse@httplib@@@std@@@std@@AEAURequest@4@PEBD_KV?$function@$$A6A_N_K0AEAVDataSink@httplib@@@Z@6@V?$function@$$A6A_N_KAEAVDataSink@httplib@@@Z@6@AEBV?$basic_string@DU?$char_traits@D@std@@V?$allocator@D@2@@6@V?$function@$$A6A_NPEBD_K@Z@6@AEAW4Error@4@@Z@_NPEBD_K@std@@QEAA@AEBV<lambda_1>@?O@??send_with_content_provider_and_receiver@ClientImpl@httplib@@AEAA?AV?$unique_ptr@UResponse@httplib@@U?$default_delete@UResponse@httplib@@@std@@@1@AEAURequest@5@PEBD_KV?$function@$$A6A_N_K0AEAVDataSink@httplib@@@Z@1@V?$function@$$A6A_N_KAEAVDataSink@httplib@@@Z@1@AEBV?$basic_string@DU?$char_traits@D@std@@V?$allocator@D@2@@1@V?$function@$$A6A_NPEBD_K@Z@1@AEAW4Error@5@@Z@@Z
	??$?0AEBV<lambda_2>@?0??connect_with_proxy@SSLClient@httplib@@AEAA_NAEAUSocket@ClientImpl@3@V?$time_point@Usteady_clock@chrono@std@@V?$duration@_JU?$ratio@$00$0DLJKMKAA@@std@@@23@@chrono@std@@AEAUResponse@3@AEA_NAEAW4Error@3@@Z@$0A@@?$_Func_impl_no_alloc@V<lambda_2>@?0??connect_with_proxy@SSLClient@httplib@@AEAA_NAEAUSocket@ClientImpl@4@V?$time_point@Usteady_clock@chrono@std@@V?$duration@_JU?$ratio@$00$0DLJKMKAA@@std@@@23@@chrono@std@@AEAUResponse@4@AEA_NAEAW4Error@4@@Z@_NAEAVStream@4@@std@@QEAA@AEBV<lambda_2>@?0??connect_with_proxy@SSLClient@httplib@@AEAA_NAEAUSocket@ClientImpl@5@V?$time_point@Usteady_clock@chrono@std@@V?$duration@_JU?$ratio@$00$0DLJKMKAA@@std@@@23@@chrono@1@AEAUResponse@5@AEA_NAEAW4Error@5@@Z@@Z
	??$?0AEBV<lambda_2>@?0??send_with_content_provider_and_receiver@ClientImpl@httplib@@AEAA?AV?$unique_ptr@UResponse@httplib@@U?$default_delete@UResponse@httplib@@@std@@@std@@AEAURequest@3@PEBD_KV?$function@$$A6A_N_K0AEAVDataSink@httplib@@@Z@5@V?$function@$$A6A_N_KAEAVDataSink@httplib@@@Z@5@AEBV?$basic_string@DU?$char_traits@D@std@@V?$allocator@D@2@@5@V?$function@$$A6A_NPEBD_K@Z@5@AEAW4Error@3@@Z@$0A@@?$_Func_impl_no_alloc@V<lambda_2>@?0??send_with_content_provider_and_receiver@ClientImpl@httplib@@AEAA?AV?$unique_ptr@UResponse@httplib@@U?$default_delete@UResponse@httplib@@@std@@@std@@AEAURequest@4@PEBD_KV?$function@$$A6A_N_K0AEAVDataSink@httplib@@@Z@6@V?$function@$$A6A_N_KAEAVDataSink@httplib@@@Z@6@AEBV?$basic_string@DU?$char_traits@D@std@@V?$allocator@D@2@@6@V?$function@$$A6A_NPEBD_K@Z@6@AEAW4Error@4@@Z@_NPEBD_K@std@@QEAA@AEBV<lambda_2>@?0??send_with_content_provider_and_receiver@ClientImpl@httplib@@AEAA?AV?$unique_ptr@UResponse@httplib@@U?$default_delete@UResponse@httplib@@@std@@@1@AEAURequest@5@PEBD_KV?$function@$$A6A_N_K0AEAVDataSink@httplib@@@Z@1@V?$function@$$A6A_N_KAEAVDataSink@httplib@@@Z@1@AEBV?$basic_string@DU?$char_traits@D@std@@V?$allocator@D@2@@1@V?$function@$$A6A_NPEBD_K@Z@1@AEAW4Error@5@@Z@@Z
	??$?0AEBV<lambda_2>@?1???$prepare_content_receiver@UResponse@httplib@@V<lambda_1>@?1???$read_content@UResponse@httplib@@@detail@2@YA_NAEAVStream@2@AEAU12@_KAEAHV?$function@$$A6A_N_K0@Z@std@@V?$function@$$A6A_NPEBD_K11@Z@7@_N@Z@@detail@httplib@@YA_NAEAUResponse@2@AEAHV?$function@$$A6A_NPEBD_K11@Z@std@@_N_KAEA_NV<lambda_1>@?1???$read_content@UResponse@httplib@@@12@YA_NAEAVStream@2@041V?$function@$$A6A_N_K0@Z@5@23@Z@@Z@$0A@@?$_Func_impl_no_alloc@V<lambda_2>@?1???$prepare_content_receiver@UResponse@httplib@@V<lambda_1>@?1???$read_content@UResponse@httplib@@@detail@2@YA_NAEAVStream@2@AEAU12@_KAEAHV?$function@$$A6A_N_K0@Z@std@@V?$function@$$A6A_NPEBD_K11@Z@7@_N@Z@@detail@httplib@@YA_NAEAUResponse@3@AEAHV?$function@$$A6A_NPEBD_K11@Z@std@@_N_KAEA_NV<lambda_1>@?1???$read_content@UResponse@httplib@@@23@YA_NAEAVStream@3@041V?$function@$$A6A_N_K0@Z@6@23@Z@@Z@_NPEBD_K_K_K@std@@QEAA@AEBV<lambda_2>@?1???$prepare_content_receiver@UResponse@httplib@@V<lambda_1>@?1???$read_content@UResponse@httplib@@@detail@2@YA_NAEAVStream@2@AEAU12@_KAEAHV?$function@$$A6A_N_K0@Z@std@@V?$function@$$A6A_NPEBD_K11@Z@7@_N@Z@@detail@httplib@@YA_NAEAUResponse@4@AEAHV?$function@$$A6A_NPEBD_K11@Z@1@_N_KAEA_NV<lambda_1>@?1???$read_content@UResponse@httplib@@@34@YA_NAEAVStream@4@041V?$function@$$A6A_N_K0@Z@1@23@Z@@Z@@Z
	??$?0AEBV<lambda_2>@?1???$write_content_chunked@V<lambda_1>@?1??write_content_with_provider@ClientImpl@httplib@@IEBA_NAEAVStream@4@AEBURequest@4@AEAW4Error@4@@Z@Vcompressor@detail@4@@detail@httplib@@YA_NAEAVStream@2@AEBV?$function@$$A6A_N_K0AEAVDataSink@httplib@@@Z@std@@AEBV<lambda_1>@?1??write_content_with_provider@ClientImpl@2@IEBA_N0AEBURequest@2@AEAW4Error@2@@Z@AEAVcompressor@12@3@Z@$0A@@?$_Func_impl_no_alloc@V<lambda_2>@?1???$write_content_chunked@V<lambda_1>@?1??write_content_with_provider@ClientImpl@httplib@@IEBA_NAEAVStream@4@AEBURequest@4@AEAW4Error@4@@Z@Vcompressor@detail@4@@detail@httplib@@YA_NAEAVStream@3@AEBV?$function@$$A6A_N_K0AEAVDataSink@httplib@@@Z@std@@AEBV<lambda_1>@?1??write_content_with_provider@ClientImpl@3@IEBA_N0AEBURequest@3@AEAW4Error@3@@Z@AEAVcompressor@23@3@Z@_N$$V@std@@QEAA@AEBV<lambda_2>@?1???$write_content_chunked@V<lambda_1>@?1??write_content_with_provider@ClientImpl@httplib@@IEBA_NAEAVStream@4@AEBURequest@4@AEAW4Error@4@@Z@Vcompressor@detail@4@@detail@httplib@@YA_NAEAVStream@4@AEBV?$function@$$A6A_N_K0AEAVDataSink@httplib@@@Z@1@AEBV<lambda_1>@?1??write_content_with_provider@ClientImpl@4@IEBA_N0AEBURequest@4@AEAW4Error@4@@Z@AEAVcompressor@34@3@Z@@Z
	??$?0AEBV<lambda_2>@?1???$write_content_with_progress@V<lambda_1>@?1??write_content_with_provider@ClientImpl@httplib@@IEBA_NAEAVStream@4@AEBURequest@4@AEAW4Error@4@@Z@@detail@httplib@@YA_NAEAVStream@2@AEBV?$function@$$A6A_N_K0AEAVDataSink@httplib@@@Z@std@@_K2V<lambda_1>@?1??write_content_with_provider@ClientImpl@2@IEBA_N0AEBURequest@2@AEAW4Error@2@@Z@AEBV?$function@$$A6A_N_K0@Z@5@4@Z@$0A@@?$_Func_impl_no_alloc@V<lambda_2>@?1???$write_content_with_progress@V<lambda_1>@?1??write_content_with_provider@ClientImpl@httplib@@IEBA_NAEAVStream@4@AEBURequest@4@AEAW4Error@4@@Z@@detail@httplib@@YA_NAEAVStream@3@AEBV?$function@$$A6A_N_K0AEAVDataSink@httplib@@@Z@std@@_K2V<lambda_1>@?1??write_content_with_provider@ClientImpl@3@IEBA_N0AEBURequest@3@AEAW4Error@3@@Z@AEBV?$function@$$A6A_N_K0@Z@6@4@Z@_N$$V@std@@QEAA@AEBV<lambda_2>@?1???$write_content_with_progress@V<lambda_1>@?1??write_content_with_provider@ClientImpl@httplib@@IEBA_NAEAVStream@4@AEBURequest@4@AEAW4Error@4@@Z@@detail@httplib@@YA_NAEAVStream@4@AEBV?$function@$$A6A_N_K0AEAVDataSink@httplib@@@Z@1@_K2V<lambda_1>@?1??write_content_with_provider@ClientImpl@4@IEBA_N0AEBURequest@4@AEAW4Error@4@@Z@AEBV?$function@$$A6A_N_K0@Z@1@4@Z@@Z
	??$?0AEBV<lambda_2>@?1??send_@ClientImpl@httplib@@AEAA_NAEAURequest@3@AEAUResponse@3@AEAW4Error@3@@Z@$0A@@?$_Func_impl_no_alloc@V<lambda_2>@?1??send_@ClientImpl@httplib@@AEAA_NAEAURequest@4@AEAUResponse@4@AEAW4Error@4@@Z@_NAEAVStream@4@@std@@QEAA@AEBV<lambda_2>@?1??send_@ClientImpl@httplib@@AEAA_NAEAURequest@5@AEAUResponse@5@AEAW4Error@5@@Z@@Z
	??$?0AEBV<lambda_2>@?1??verify_cert_with_windows_schannel@detail@httplib@@YA_NAEBV?$vector@EV?$allocator@E@std@@@std@@AEBV?$basic_string@DU?$char_traits@D@std@@V?$allocator@D@2@@5@_NAEA_K@Z@$0A@@?$_Func_impl_no_alloc@V<lambda_2>@?1??verify_cert_with_windows_schannel@detail@httplib@@YA_NAEBV?$vector@EV?$allocator@E@std@@@std@@AEBV?$basic_string@DU?$char_traits@D@std@@V?$allocator@D@2@@6@_NAEA_K@Z@X$$V@std@@QEAA@AEBV<lambda_2>@?1??verify_cert_with_windows_schannel@detail@httplib@@YA_NAEBV?$vector@EV?$allocator@E@std@@@1@AEBV?$basic_string@DU?$char_traits@D@std@@V?$allocator@D@2@@1@_NAEA_K@Z@@Z
	??$?0AEBV<lambda_2>@?CH@??initialize_ssl@SSLClient@httplib@@AEAA_NAEAUSocket@ClientImpl@3@AEAW4Error@3@@Z@$0A@@?$_Func_impl_no_alloc@V<lambda_2>@?CH@??initialize_ssl@SSLClient@httplib@@AEAA_NAEAUSocket@ClientImpl@4@AEAW4Error@4@@Z@X$$V@std@@QEAA@AEBV<lambda_2>@?CH@??initialize_ssl@SSLClient@httplib@@AEAA_NAEAUSocket@ClientImpl@5@AEAW4Error@5@@Z@@Z
	??$?0AEBV<lambda_2>@?DC@??process_request@ClientImpl@httplib@@IEAA_NAEAVStream@3@AEAURequest@3@AEAUResponse@3@_NAEAW4Error@3@@Z@$0A@@?$_Func_impl_no_alloc@V<lambda_2>@?DC@??process_request@ClientImpl@httplib@@IEAA_NAEAVStream@4@AEAURequest@4@AEAUResponse@4@_NAEAW4Error@4@@Z@_NPEBD_K_K_K@std@@QEAA@AEBV<lambda_2>@?DC@??process_request@ClientImpl@httplib@@IEAA_NAEAVStream@5@AEAURequest@5@AEAUResponse@5@_NAEAW4Error@5@@Z@@Z
	??$?0AEBV<lambda_2_>@Request@httplib@@$0A@@?$_Func_impl_no_alloc@V<lambda_2_>@Request@httplib@@_N$$V@std@@QEAA@AEBV<lambda_2_>@Request@httplib@@@Z
	??$?0AEBV<lambda_3>@?CG@??send_with_content_provider_and_receiver@ClientImpl@httplib@@AEAA?AV?$unique_ptr@UResponse@httplib@@U?$default_delete@UResponse@httplib@@@std@@@std@@AEAURequest@3@PEBD_KV?$function@$$A6A_N_K0AEAVDataSink@httplib@@@Z@5@V?$function@$$A6A_N_KAEAVDataSink@httplib@@@Z@5@AEBV?$basic_string@DU?$char_traits@D@std@@V?$allocator@D@2@@5@V?$function@$$A6A_NPEBD_K@Z@5@AEAW4Error@3@@Z@$0A@@?$_Func_impl_no_alloc@V<lambda_3>@?CG@??send_with_content_provider_and_receiver@ClientImpl@httplib@@AEAA?AV?$unique_ptr@UResponse@httplib@@U?$default_delete@UResponse@httplib@@@std@@@std@@AEAURequest@4@PEBD_KV?$function@$$A6A_N_K0AEAVDataSink@httplib@@@Z@6@V?$function@$$A6A_N_KAEAVDataSink@httplib@@@Z@6@AEBV?$basic_string@DU?$char_traits@D@std@@V?$allocator@D@2@@6@V?$function@$$A6A_NPEBD_K@Z@6@AEAW4Error@4@@Z@_NPEBD_K_K_K@std@@QEAA@AEBV<lambda_3>@?CG@??send_with_content_provider_and_receiver@ClientImpl@httplib@@AEAA?AV?$unique_ptr@UResponse@httplib@@U?$default_delete@UResponse@httplib@@@std@@@1@AEAURequest@5@PEBD_KV?$function@$$A6A_N_K0AEAVDataSink@httplib@@@Z@1@V?$function@$$A6A_N_KAEAVDataSink@httplib@@@Z@1@AEBV?$basic_string@DU?$char_traits@D@std@@V?$allocator@D@2@@1@V?$function@$$A6A_NPEBD_K@Z@1@AEAW4Error@5@@Z@@Z
	??$?0AEBV<lambda_3>@?DC@??process_request@ClientImpl@httplib@@IEAA_NAEAVStream@3@AEAURequest@3@AEAUResponse@3@_NAEAW4Error@3@@Z@$0A@@?$_Func_impl_no_alloc@V<lambda_3>@?DC@??process_request@ClientImpl@httplib@@IEAA_NAEAVStream@4@AEAURequest@4@AEAUResponse@4@_NAEAW4Error@4@@Z@_N_K_K@std@@QEAA@AEBV<lambda_3>@?DC@??process_request@ClientImpl@httplib@@IEAA_NAEAVStream@5@AEAURequest@5@AEAUResponse@5@_NAEAW4Error@5@@Z@@Z
	??$?0AEBV<lambda_4>@?1???$write_content_chunked@V<lambda_1>@?1??write_content_with_provider@ClientImpl@httplib@@IEBA_NAEAVStream@4@AEBURequest@4@AEAW4Error@4@@Z@Vcompressor@detail@4@@detail@httplib@@YA_NAEAVStream@2@AEBV?$function@$$A6A_N_K0AEAVDataSink@httplib@@@Z@std@@AEBV<lambda_1>@?1??write_content_with_provider@ClientImpl@2@IEBA_N0AEBURequest@2@AEAW4Error@2@@Z@AEAVcompressor@12@3@Z@$0A@@?$_Func_impl_no_alloc@V<lambda_4>@?1???$write_content_chunked@V<lambda_1>@?1??write_content_with_provider@ClientImpl@httplib@@IEBA_NAEAVStream@4@AEBURequest@4@AEAW4Error@4@@Z@Vcompressor@detail@4@@detail@httplib@@YA_NAEAVStream@3@AEBV?$function@$$A6A_N_K0AEAVDataSink@httplib@@@Z@std@@AEBV<lambda_1>@?1??write_content_with_provider@ClientImpl@3@IEBA_N0AEBURequest@3@AEAW4Error@3@@Z@AEAVcompressor@23@3@Z@X$$V@std@@QEAA@AEBV<lambda_4>@?1???$write_content_chunked@V<lambda_1>@?1??write_content_with_provider@ClientImpl@httplib@@IEBA_NAEAVStream@4@AEBURequest@4@AEAW4Error@4@@Z@Vcompressor@detail@4@@detail@httplib@@YA_NAEAVStream@4@AEBV?$function@$$A6A_N_K0AEAVDataSink@httplib@@@Z@1@AEBV<lambda_1>@?1??write_content_with_provider@ClientImpl@4@IEBA_N0AEBURequest@4@AEAW4Error@4@@Z@AEAVcompressor@34@3@Z@@Z
	??$?0AEBV<lambda_5>@?1???$write_content_chunked@V<lambda_1>@?1??write_content_with_provider@ClientImpl@httplib@@IEBA_NAEAVStream@4@AEBURequest@4@AEAW4Error@4@@Z@Vcompressor@detail@4@@detail@httplib@@YA_NAEAVStream@2@AEBV?$function@$$A6A_N_K0AEAVDataSink@httplib@@@Z@std@@AEBV<lambda_1>@?1??write_content_with_provider@ClientImpl@2@IEBA_N0AEBURequest@2@AEAW4Error@2@@Z@AEAVcompressor@12@3@Z@$0A@@?$_Func_impl_no_alloc@V<lambda_5>@?1???$write_content_chunked@V<lambda_1>@?1??write_content_with_provider@ClientImpl@httplib@@IEBA_NAEAVStream@4@AEBURequest@4@AEAW4Error@4@@Z@Vcompressor@detail@4@@detail@httplib@@YA_NAEAVStream@3@AEBV?$function@$$A6A_N_K0AEAVDataSink@httplib@@@Z@std@@AEBV<lambda_1>@?1??write_content_with_provider@ClientImpl@3@IEBA_N0AEBURequest@3@AEAW4Error@3@@Z@AEAVcompressor@23@3@Z@XAEBV?$unordered_multimap@V?$basic_string@DU?$char_traits@D@std@@V?$allocator@D@2@@std@@V12@Uhash@case_ignore@detail@httplib@@Uequal_to@456@V?$allocator@U?$pair@$$CBV?$basic_string@DU?$char_traits@D@std@@V?$allocator@D@2@@std@@V12@@std@@@2@@6@@std@@QEAA@AEBV<lambda_5>@?1???$write_content_chunked@V<lambda_1>@?1??write_content_with_provider@ClientImpl@httplib@@IEBA_NAEAVStream@4@AEBURequest@4@AEAW4Error@4@@Z@Vcompressor@detail@4@@detail@httplib@@YA_NAEAVStream@4@AEBV?$function@$$A6A_N_K0AEAVDataSink@httplib@@@Z@1@AEBV<lambda_1>@?1??write_content_with_provider@ClientImpl@4@IEBA_N0AEBURequest@4@AEAW4Error@4@@Z@AEAVcompressor@34@3@Z@@Z
	??$?0AEBV?$allocator@D@std@@$$V@?$_Compressed_pair@V?$allocator@D@std@@V?$_String_val@U?$_Simple_types@D@std@@@2@$00@std@@QEAA@U_One_then_variadic_args_t@1@AEBV?$allocator@D@1@@Z
	??$?0AEBV?$allocator@D@std@@$$V@?$_Compressed_pair@V?$allocator@D@std@@V?$_Vector_val@U?$_Simple_types@D@std@@@2@$00@std@@QEAA@U_One_then_variadic_args_t@1@AEBV?$allocator@D@1@@Z
	??$?0AEBV?$allocator@E@std@@$$V@?$_Compressed_pair@V?$allocator@E@std@@V?$_Vector_val@U?$_Simple_types@E@std@@@2@$00@std@@QEAA@U_One_then_variadic_args_t@1@AEBV?$allocator@E@1@@Z
	??$?0AEBV?$allocator@I@std@@$$V@?$_Compressed_pair@V?$allocator@I@std@@V?$_Vector_val@U?$_Simple_types@I@std@@@2@$00@std@@QEAA@U_One_then_variadic_args_t@1@AEBV?$allocator@I@1@@Z
	??$?0AEBV?$allocator@U?$_List_node@U?$pair@$$CBV?$basic_string@DU?$char_traits@D@std@@V?$allocator@D@2@@std@@V12@@std@@PEAX@std@@@std@@$$V@?$_Compressed_pair@V?$allocator@V?$_List_unchecked_iterator@V?$_List_val@U?$_List_simple_types@U?$pair@$$CBV?$basic_string@DU?$char_traits@D@std@@V?$allocator@D@2@@std@@V12@@std@@@std@@@std@@@std@@@std@@V?$_Vector_val@U?$_Simple_types@V?$_List_unchecked_iterator@V?$_List_val@U?$_List_simple_types@U?$pair@$$CBV?$basic_string@DU?$char_traits@D@std@@V?$allocator@D@2@@std@@V12@@std@@@std@@@std@@@std@@@std@@@2@$00@std@@QEAA@U_One_then_variadic_args_t@1@AEBV?$allocator@U?$_List_node@U?$pair@$$CBV?$basic_string@DU?$char_traits@D@std@@V?$allocator@D@2@@std@@V12@@std@@PEAX@std@@@1@@Z
	??$?0AEBV?$allocator@U?$_List_node@U?$pair@$$CBV?$basic_string@DU?$char_traits@D@std@@V?$allocator@D@2@@std@@V12@@std@@PEAX@std@@@std@@$0A@@?$_Hash_vec@V?$allocator@V?$_List_unchecked_iterator@V?$_List_val@U?$_List_simple_types@U?$pair@$$CBV?$basic_string@DU?$char_traits@D@std@@V?$allocator@D@2@@std@@V12@@std@@@std@@@std@@@std@@@std@@@std@@QEAA@AEBV?$allocator@U?$_List_node@U?$pair@$$CBV?$basic_string@DU?$char_traits@D@std@@V?$allocator@D@2@@std@@V12@@std@@PEAX@std@@@1@@Z
	??$?0AEBV?$allocator@U?$pair@$$CBV?$basic_string@DU?$char_traits@D@std@@V?$allocator@D@2@@std@@V12@@std@@@std@@$$V@?$_Compressed_pair@V?$allocator@U?$_List_node@U?$pair@$$CBV?$basic_string@DU?$char_traits@D@std@@V?$allocator@D@2@@std@@V12@@std@@PEAX@std@@@std@@V?$_List_val@U?$_List_simple_types@U?$pair@$$CBV?$basic_string@DU?$char_traits@D@std@@V?$allocator@D@2@@std@@V12@@std@@@std@@@2@$00@std@@QEAA@U_One_then_variadic_args_t@1@AEBV?$allocator@U?$pair@$$CBV?$basic_string@DU?$char_traits@D@std@@V?$allocator@D@2@@std@@V12@@std@@@1@@Z
	??$?0AEBV?$allocator@U?$pair@$$CBV?$basic_string@DU?$char_traits@D@std@@V?$allocator@D@2@@std@@V12@@std@@@std@@$$V@?$_Compressed_pair@V?$allocator@V?$_List_unchecked_iterator@V?$_List_val@U?$_List_simple_types@U?$pair@$$CBV?$basic_string@DU?$char_traits@D@std@@V?$allocator@D@2@@std@@V12@@std@@@std@@@std@@@std@@@std@@V?$_Vector_val@U?$_Simple_types@V?$_List_unchecked_iterator@V?$_List_val@U?$_List_simple_types@U?$pair@$$CBV?$basic_string@DU?$char_traits@D@std@@V?$allocator@D@2@@std@@V12@@std@@@std@@@std@@@std@@@std@@@2@$00@std@@QEAA@U_One_then_variadic_args_t@1@AEBV?$allocator@U?$pair@$$CBV?$basic_string@DU?$char_traits@D@std@@V?$allocator@D@2@@std@@V12@@std@@@1@@Z
	??$?0AEBV?$allocator@U?$pair@$$CBV?$basic_string@DU?$char_traits@D@std@@V?$allocator@D@2@@std@@V12@@std@@@std@@$0A@@?$_Hash_vec@V?$allocator@V?$_List_unchecked_iterator@V?$_List_val@U?$_List_simple_types@U?$pair@$$CBV?$basic_string@DU?$char_traits@D@std@@V?$allocator@D@2@@std@@V12@@std@@@std@@@std@@@std@@@std@@@std@@QEAA@AEBV?$allocator@U?$pair@$$CBV?$basic_string@DU?$char_traits@D@std@@V?$allocator@D@2@@std@@V12@@std@@@1@@Z
	??$?0AEBV?$allocator@U?$pair@$$CBV?$basic_string@DU?$char_traits@D@std@@V?$allocator@D@2@@std@@V?$unique_ptr@Uany_storage@detail@httplib@@U?$default_delete@Uany_storage@detail@httplib@@@std@@@2@@std@@@std@@$$V@?$_Compressed_pair@V?$allocator@U?$_List_node@U?$pair@$$CBV?$basic_string@DU?$char_traits@D@std@@V?$allocator@D@2@@std@@V?$unique_ptr@Uany_storage@detail@httplib@@U?$default_delete@Uany_storage@detail@httplib@@@std@@@2@@std@@PEAX@std@@@std@@V?$_List_val@U?$_List_simple_types@U?$pair@$$CBV?$basic_string@DU?$char_traits@D@std@@V?$allocator@D@2@@std@@V?$unique_ptr@Uany_storage@detail@httplib@@U?$default_delete@Uany_storage@detail@httplib@@@std@@@2@@std@@@std@@@2@$00@std@@QEAA@U_One_then_variadic_args_t@1@AEBV?$allocator@U?$pair@$$CBV?$basic_string@DU?$char_traits@D@std@@V?$allocator@D@2@@std@@V?$unique_ptr@Uany_storage@detail@httplib@@U?$default_delete@Uany_storage@detail@httplib@@@std@@@2@@std@@@1@@Z
	??$?0AEBV?$allocator@U?$pair@$$CBV?$basic_string@DU?$char_traits@D@std@@V?$allocator@D@2@@std@@V?$unique_ptr@Uany_storage@detail@httplib@@U?$default_delete@Uany_storage@detail@httplib@@@std@@@2@@std@@@std@@$$V@?$_Compressed_pair@V?$allocator@V?$_List_unchecked_iterator@V?$_List_val@U?$_List_simple_types@U?$pair@$$CBV?$basic_string@DU?$char_traits@D@std@@V?$allocator@D@2@@std@@V?$unique_ptr@Uany_storage@detail@httplib@@U?$default_delete@Uany_storage@detail@httplib@@@std@@@2@@std@@@std@@@std@@@std@@@std@@V?$_Vector_val@U?$_Simple_types@V?$_List_unchecked_iterator@V?$_List_val@U?$_List_simple_types@U?$pair@$$CBV?$basic_string@DU?$char_traits@D@std@@V?$allocator@D@2@@std@@V?$unique_ptr@Uany_storage@detail@httplib@@U?$default_delete@Uany_storage@detail@httplib@@@std@@@2@@std@@@std@@@std@@@std@@@std@@@2@$00@std@@QEAA@U_One_then_variadic_args_t@1@AEBV?$allocator@U?$pair@$$CBV?$basic_string@DU?$char_traits@D@std@@V?$allocator@D@2@@std@@V?$unique_ptr@Uany_storage@detail@httplib@@U?$default_delete@Uany_storage@detail@httplib@@@std@@@2@@std@@@1@@Z
	??$?0AEBV?$allocator@U?$pair@$$CBV?$basic_string@DU?$char_traits@D@std@@V?$allocator@D@2@@std@@V?$unique_ptr@Uany_storage@detail@httplib@@U?$default_delete@Uany_storage@detail@httplib@@@std@@@2@@std@@@std@@$0A@@?$_Hash_vec@V?$allocator@V?$_List_unchecked_iterator@V?$_List_val@U?$_List_simple_types@U?$pair@$$CBV?$basic_string@DU?$char_traits@D@std@@V?$allocator@D@2@@std@@V?$unique_ptr@Uany_storage@detail@httplib@@U?$default_delete@Uany_storage@detail@httplib@@@std@@@2@@std@@@std@@@std@@@std@@@std@@@std@@QEAA@AEBV?$allocator@U?$pair@$$CBV?$basic_string@DU?$char_traits@D@std@@V?$allocator@D@2@@std@@V?$unique_ptr@Uany_storage@detail@httplib@@U?$default_delete@Uany_storage@detail@httplib@@@std@@@2@@std@@@1@@Z
	??$?0AEBV?$allocator@UBlockEvent@zk@midnight@@@std@@$$V@?$_Compressed_pair@V?$allocator@UBlockEvent@zk@midnight@@@std@@V?$_Vector_val@U?$_Simple_types@UBlockEvent@zk@midnight@@@std@@@2@$00@std@@QEAA@U_One_then_variadic_args_t@1@AEBV?$allocator@UBlockEvent@zk@midnight@@@1@@Z
	??$?0AEBV?$allocator@UContractState@zk@midnight@@@std@@$$V@?$_Compressed_pair@V?$allocator@UContractState@zk@midnight@@@std@@V?$_Vector_val@U?$_Simple_types@UContractState@zk@midnight@@@std@@@2@$00@std@@QEAA@U_One_then_variadic_args_t@1@AEBV?$allocator@UContractState@zk@midnight@@@1@@Z
	??$?0AEBV?$allocator@V?$basic_json@Vmap@std@@Vvector@2@V?$basic_string@DU?$char_traits@D@std@@V?$allocator@D@2@@2@_N_J_KNVallocator@2@Uadl_serializer@json_abi_v3_11_2@nlohmann@@V?$vector@EV?$allocator@E@std@@@2@@json_abi_v3_11_2@nlohmann@@@std@@$$V@?$_Compressed_pair@V?$allocator@V?$basic_json@Vmap@std@@Vvector@2@V?$basic_string@DU?$char_traits@D@std@@V?$allocator@D@2@@2@_N_J_KNVallocator@2@Uadl_serializer@json_abi_v3_11_2@nlohmann@@V?$vector@EV?$allocator@E@std@@@2@@json_abi_v3_11_2@nlohmann@@@std@@V?$_Vector_val@U?$_Simple_types@V?$basic_json@Vmap@std@@Vvector@2@V?$basic_string@DU?$char_traits@D@std@@V?$allocator@D@2@@2@_N_J_KNVallocator@2@Uadl_serializer@json_abi_v3_11_2@nlohmann@@V?$vector@EV?$allocator@E@std@@@2@@json_abi_v3_11_2@nlohmann@@@std@@@2@$00@std@@QEAA@U_One_then_variadic_args_t@1@AEBV?$allocator@V?$basic_json@Vmap@std@@Vvector@2@V?$basic_string@DU?$char_traits@D@std@@V?$allocator@D@2@@2@_N_J_KNVallocator@2@Uadl_serializer@json_abi_v3_11_2@nlohmann@@V?$vector@EV?$allocator@E@std@@@2@@json_abi_v3_11_2@nlohmann@@@1@@Z
	??$?0AEBV?$allocator@V?$basic_string@DU?$char_traits@D@std@@V?$allocator@D@2@@std@@@std@@$$V@?$_Compressed_pair@V?$allocator@U?$_List_node@V?$basic_string@DU?$char_traits@D@std@@V?$allocator@D@2@@std@@PEAX@std@@@std@@V?$_List_val@U?$_List_simple_types@V?$basic_string@DU?$char_traits@D@std@@V?$allocator@D@2@@std@@@std@@@2@$00@std@@QEAA@U_One_then_variadic_args_t@1@AEBV?$allocator@V?$basic_string@DU?$char_traits@D@std@@V?$allocator@D@2@@std@@@1@@Z
	??$?0AEBV?$allocator@V?$basic_string@DU?$char_traits@D@std@@V?$allocator@D@2@@std@@@std@@$$V@?$_Compressed_pair@V?$allocator@V?$_List_unchecked_const_iterator@V?$_List_val@U?$_List_simple_types@V?$basic_string@DU?$char_traits@D@std@@V?$allocator@D@2@@std@@@std@@@std@@U_Iterator_base0@2@@std@@@std@@V?$_Vector_val@U?$_Simple_types@V?$_List_unchecked_const_iterator@V?$_List_val@U?$_List_simple_types@V?$basic_string@DU?$char_traits@D@std@@V?$allocator@D@2@@std@@@std@@@std@@U_Iterator_base0@2@@std@@@std@@@2@$00@std@@QEAA@U_One_then_variadic_args_t@1@AEBV?$allocator@V?$basic_string@DU?$char_traits@D@std@@V?$allocator@D@2@@std@@@1@@Z
	??$?0AEBV?$allocator@V?$basic_string@DU?$char_traits@D@std@@V?$allocator@D@2@@std@@@std@@$$V@?$_Compressed_pair@V?$allocator@V?$basic_string@DU?$char_traits@D@std@@V?$allocator@D@2@@std@@@std@@V?$_Vector_val@U?$_Simple_types@V?$basic_string@DU?$char_traits@D@std@@V?$allocator@D@2@@std@@@std@@@2@$00@std@@QEAA@U_One_then_variadic_args_t@1@AEBV?$allocator@V?$basic_string@DU?$char_traits@D@std@@V?$allocator@D@2@@std@@@1@@Z
	??$?0AEBV?$allocator@V?$basic_string@DU?$char_traits@D@std@@V?$allocator@D@2@@std@@@std@@$0A@@?$_Hash_vec@V?$allocator@V?$_List_unchecked_const_iterator@V?$_List_val@U?$_List_simple_types@V?$basic_string@DU?$char_traits@D@std@@V?$allocator@D@2@@std@@@std@@@std@@U_Iterator_base0@2@@std@@@std@@@std@@QEAA@AEBV?$allocator@V?$basic_string@DU?$char_traits@D@std@@V?$allocator@D@2@@std@@@1@@Z
	??$?0AEBV?$basic_string@DU?$char_traits@D@std@@V?$allocator@D@2@@std@@$$Z$$V@?$pair@$$CBV?$basic_string@DU?$char_traits@D@std@@V?$allocator@D@2@@std@@U?$pair@UZkProof@phase4@midnight@@_K@2@@std@@QEAA@Upiecewise_construct_t@1@V?$tuple@AEBV?$basic_string@DU?$char_traits@D@std@@V?$allocator@D@2@@std@@@1@V?$tuple@$$V@1@@Z
	??$?0AEBV?$basic_string@DU?$char_traits@D@std@@V?$allocator@D@2@@std@@$$Z$$V@?$pair@$$CBV?$basic_string@DU?$char_traits@D@std@@V?$allocator@D@2@@std@@UContractState@zk@midnight@@@std@@QEAA@Upiecewise_construct_t@1@V?$tuple@AEBV?$basic_string@DU?$char_traits@D@std@@V?$allocator@D@2@@std@@@1@V?$tuple@$$V@1@@Z
	??$?0AEBV?$basic_string@DU?$char_traits@D@std@@V?$allocator@D@2@@std@@$$Z$$V@?$pair@$$CBV?$basic_string@DU?$char_traits@D@std@@V?$allocator@D@2@@std@@ULedgerState@zk@midnight@@@std@@QEAA@Upiecewise_construct_t@1@V?$tuple@AEBV?$basic_string@DU?$char_traits@D@std@@V?$allocator@D@2@@std@@@1@V?$tuple@$$V@1@@Z
	??$?0AEBV?$basic_string@DU?$char_traits@D@std@@V?$allocator@D@2@@std@@$$Z$$V@?$pair@$$CBV?$basic_string@DU?$char_traits@D@std@@V?$allocator@D@2@@std@@USessionInfo@SessionManager@midnight@@@std@@QEAA@Upiecewise_construct_t@1@V?$tuple@AEBV?$basic_string@DU?$char_traits@D@std@@V?$allocator@D@2@@std@@@1@V?$tuple@$$V@1@@Z
	??$?0AEBV?$basic_string@DU?$char_traits@D@std@@V?$allocator@D@2@@std@@$$Z$$V@?$pair@$$CBV?$basic_string@DU?$char_traits@D@std@@V?$allocator@D@2@@std@@USubmissionResult@phase5@midnight@@@std@@QEAA@Upiecewise_construct_t@1@V?$tuple@AEBV?$basic_string@DU?$char_traits@D@std@@V?$allocator@D@2@@std@@@1@V?$tuple@$$V@1@@Z
	??$?0AEBV?$basic_string@DU?$char_traits@D@std@@V?$allocator@D@2@@std@@$$Z$$V@?$pair@$$CBV?$basic_string@DU?$char_traits@D@std@@V?$allocator@D@2@@std@@UWitnessOutput@zk@midnight@@@std@@QEAA@Upiecewise_construct_t@1@V?$tuple@AEBV?$basic_string@DU?$char_traits@D@std@@V?$allocator@D@2@@std@@@1@V?$tuple@$$V@1@@Z
	??$?0AEBV?$basic_string@DU?$char_traits@D@std@@V?$allocator@D@2@@std@@$$Z$$V@?$pair@$$CBV?$basic_string@DU?$char_traits@D@std@@V?$allocator@D@2@@std@@V12@@std@@QEAA@Upiecewise_construct_t@1@V?$tuple@AEBV?$basic_string@DU?$char_traits@D@std@@V?$allocator@D@2@@std@@@1@V?$tuple@$$V@1@@Z
	??$?0AEBV?$basic_string@DU?$char_traits@D@std@@V?$allocator@D@2@@std@@$$Z$$V@?$pair@$$CBV?$basic_string@DU?$char_traits@D@std@@V?$allocator@D@2@@std@@V?$basic_json@Vmap@std@@Vvector@2@V?$basic_string@DU?$char_traits@D@std@@V?$allocator@D@2@@2@_N_J_KNVallocator@2@Uadl_serializer@json_abi_v3_11_2@nlohmann@@V?$vector@EV?$allocator@E@std@@@2@@json_abi_v3_11_2@nlohmann@@@std@@QEAA@Upiecewise_construct_t@1@V?$tuple@AEBV?$basic_string@DU?$char_traits@D@std@@V?$allocator@D@2@@std@@@1@V?$tuple@$$V@1@@Z
	??$?0AEBV?$basic_string@DU?$char_traits@D@std@@V?$allocator@D@2@@std@@$$Z$$V@?$pair@$$CBV?$basic_string@DU?$char_traits@D@std@@V?$allocator@D@2@@std@@V?$function@$$A6AXAEBV?$basic_string@DU?$char_traits@D@std@@V?$allocator@D@2@@std@@@Z@2@@std@@QEAA@Upiecewise_construct_t@1@V?$tuple@AEBV?$basic_string@DU?$char_traits@D@std@@V?$allocator@D@2@@std@@@1@V?$tuple@$$V@1@@Z
	??$?0AEBV?$basic_string@DU?$char_traits@D@std@@V?$allocator@D@2@@std@@$$Z$$V@?$pair@$$CBV?$basic_string@DU?$char_traits@D@std@@V?$allocator@D@2@@std@@V?$vector@EV?$allocator@E@std@@@2@@std@@QEAA@Upiecewise_construct_t@1@V?$tuple@AEBV?$basic_string@DU?$char_traits@D@std@@V?$allocator@D@2@@std@@@1@V?$tuple@$$V@1@@Z
	??$?0AEBV?$basic_string@DU?$char_traits@D@std@@V?$allocator@D@2@@std@@$$Z$$V@?$pair@$$CBV?$basic_string@DU?$char_traits@D@std@@V?$allocator@D@2@@std@@V?$vector@UContractState@zk@midnight@@V?$allocator@UContractState@zk@midnight@@@std@@@2@@std@@QEAA@Upiecewise_construct_t@1@V?$tuple@AEBV?$basic_string@DU?$char_traits@D@std@@V?$allocator@D@2@@std@@@1@V?$tuple@$$V@1@@Z
	??$?0AEBV?$basic_string@DU?$char_traits@D@std@@V?$allocator@D@2@@std@@$$Z$$V@?$pair@$$CBV?$basic_string@DU?$char_traits@D@std@@V?$allocator@D@2@@std@@_K@std@@QEAA@Upiecewise_construct_t@1@V?$tuple@AEBV?$basic_string@DU?$char_traits@D@std@@V?$allocator@D@2@@std@@@1@V?$tuple@$$V@1@@Z
	??$?0AEBV?$basic_string@DU?$char_traits@D@std@@V?$allocator@D@2@@std@@$0A@@?$json_ref@V?$basic_json@Vmap@std@@Vvector@2@V?$basic_string@DU?$char_traits@D@std@@V?$allocator@D@2@@2@_N_J_KNVallocator@2@Uadl_serializer@json_abi_v3_11_2@nlohmann@@V?$vector@EV?$allocator@E@std@@@2@@json_abi_v3_11_2@nlohmann@@@detail@json_abi_v3_11_2@nlohmann@@QEAA@AEBV?$basic_string@DU?$char_traits@D@std@@V?$allocator@D@2@@std@@@Z
	??$?0AEBV?$basic_string@DU?$char_traits@D@std@@V?$allocator@D@2@@std@@$0A@@?$tuple@AEBV?$basic_string@DU?$char_traits@D@std@@V?$allocator@D@2@@std@@@std@@QEAA@AEBV?$basic_string@DU?$char_traits@D@std@@V?$allocator@D@2@@1@@Z
	??$?0AEBV?$basic_string@DU?$char_traits@D@std@@V?$allocator@D@2@@std@@@?$_List_node_emplace_op2@V?$allocator@U?$_List_node@V?$basic_string@DU?$char_traits@D@std@@V?$allocator@D@2@@std@@PEAX@std@@@std@@@std@@QEAA@AEAV?$allocator@U?$_List_node@V?$basic_string@DU?$char_traits@D@std@@V?$allocator@D@2@@std@@PEAX@std@@@1@AEBV?$basic_string@DU?$char_traits@D@std@@V?$allocator@D@2@@1@@Z
	??$?0AEBV?$basic_string@DU?$char_traits@D@std@@V?$allocator@D@2@@std@@@?$_Tree_temp_node@V?$allocator@U?$_Tree_node@V?$basic_string@DU?$char_traits@D@std@@V?$allocator@D@2@@std@@PEAX@std@@@std@@@std@@QEAA@AEAV?$allocator@U?$_Tree_node@V?$basic_string@DU?$char_traits@D@std@@V?$allocator@D@2@@std@@PEAX@std@@@1@PEAU?$_Tree_node@V?$basic_string@DU?$char_traits@D@std@@V?$allocator@D@2@@std@@PEAX@1@AEBV?$basic_string@DU?$char_traits@D@std@@V?$allocator@D@2@@1@@Z
	??$?0AEBV?$basic_string@DU?$char_traits@D@std@@V?$allocator@D@2@@std@@@?$_Tuple_val@AEBV?$basic_string@DU?$char_traits@D@std@@V?$allocator@D@2@@std@@@std@@QEAA@AEBV?$basic_string@DU?$char_traits@D@std@@V?$allocator@D@2@@1@@Z
	??$?0AEBV?$basic_string@DU?$char_traits@D@std@@V?$allocator@D@2@@std@@@?$format_arg_store@V?$basic_format_context@Vappender@v9@fmt@@D@v9@fmt@@V?$basic_string@DU?$char_traits@D@std@@V?$allocator@D@2@@std@@@v9@fmt@@QEAA@AEBV?$basic_string@DU?$char_traits@D@std@@V?$allocator@D@2@@std@@@Z
	??$?0AEBV?$basic_string@DU?$char_traits@D@std@@V?$allocator@D@2@@std@@AEBV01@@?$_List_node_emplace_op2@V?$allocator@U?$_List_node@U?$pair@$$CBV?$basic_string@DU?$char_traits@D@std@@V?$allocator@D@2@@std@@V12@@std@@PEAX@std@@@std@@@std@@QEAA@AEAV?$allocator@U?$_List_node@U?$pair@$$CBV?$basic_string@DU?$char_traits@D@std@@V?$allocator@D@2@@std@@V12@@std@@PEAX@std@@@1@AEBV?$basic_string@DU?$char_traits@D@std@@V?$allocator@D@2@@1@1@Z
	??$?0AEBV?$basic_string@DU?$char_traits@D@std@@V?$allocator@D@2@@std@@V01@$0A@@?$basic_json@Vmap@std@@Vvector@2@V?$basic_string@DU?$char_traits@D@std@@V?$allocator@D@2@@2@_N_J_KNVallocator@2@Uadl_serializer@json_abi_v3_11_2@nlohmann@@V?$vector@EV?$allocator@E@std@@@2@@json_abi_v3_11_2@nlohmann@@QEAA@AEBV?$basic_string@DU?$char_traits@D@std@@V?$allocator@D@2@@std@@@Z
	??$?0AEBV?$basic_string@DU?$char_traits@D@std@@V?$allocator@D@2@@std@@V?$duration@_JU?$ratio@$00$0DOI@@std@@@chrono@1@AEAUStateCacheConfig@zk@midnight@@@?$_Ref_count_obj2@VLedgerStateSyncManager@zk@midnight@@@std@@QEAA@AEBV?$basic_string@DU?$char_traits@D@std@@V?$allocator@D@2@@1@$$QEAV?$duration@_JU?$ratio@$00$0DOI@@std@@@chrono@1@AEAUStateCacheConfig@zk@midnight@@@Z
	??$?0AEBV?$vector@EV?$allocator@E@std@@@std@@$0A@@?$tuple@AEBV?$vector@EV?$allocator@E@std@@@std@@AEB_KAEB_N@std@@QEAA@AEBV?$vector@EV?$allocator@E@std@@@1@AEB_KAEB_N@Z
	??$?0AEBV?$vector@EV?$allocator@E@std@@@std@@@?$_Tuple_val@AEBV?$vector@EV?$allocator@E@std@@@std@@@std@@QEAA@AEBV?$vector@EV?$allocator@E@std@@@1@@Z
	??$?0AEBVContentProviderAdapter@detail@httplib@@$0A@@?$_Func_impl_no_alloc@VContentProviderAdapter@detail@httplib@@_N_K_KAEAVDataSink@3@@std@@QEAA@AEBVContentProviderAdapter@detail@httplib@@@Z
	??$?0AEB_K@?$_Tuple_val@AEB_K@std@@QEAA@AEB_K@Z
	??$?0AEB_K_K$0A@@?$basic_json@Vmap@std@@Vvector@2@V?$basic_string@DU?$char_traits@D@std@@V?$allocator@D@2@@2@_N_J_KNVallocator@2@Uadl_serializer@json_abi_v3_11_2@nlohmann@@V?$vector@EV?$allocator@E@std@@@2@@json_abi_v3_11_2@nlohmann@@QEAA@AEB_K@Z
	??$?0AEB_N@?$_Tuple_val@AEB_N@std@@QEAA@AEB_N@Z
	??$?0AEB_N_N$0A@@?$basic_json@Vmap@std@@Vvector@2@V?$basic_string@DU?$char_traits@D@std@@V?$allocator@D@2@@2@_N_J_KNVallocator@2@Uadl_serializer@json_abi_v3_11_2@nlohmann@@V?$vector@EV?$allocator@E@std@@@2@@json_abi_v3_11_2@nlohmann@@QEAA@AEB_N@Z
	??$?0D@?$allocator@U_Container_proxy@std@@@std@@QEAA@AEBV?$allocator@D@1@@Z
	??$?0E@?$allocator@U_Container_proxy@std@@@std@@QEAA@AEBV?$allocator@E@1@@Z
	??$?0H$0A@@?$duration@_JU?$ratio@$00$00@std@@@chrono@std@@QEAA@AEBH@Z
	??$?0H$0A@@?$duration@_JU?$ratio@$00$0DOI@@std@@@chrono@std@@QEAA@AEBH@Z
	??$?0H$0A@@?$duration@_JU?$ratio@$00$0PECEA@@std@@@chrono@std@@QEAA@AEBH@Z
	??$?0H$0A@@?$json_ref@V?$basic_json@Vmap@std@@Vvector@2@V?$basic_string@DU?$char_traits@D@std@@V?$allocator@D@2@@2@_N_J_KNVallocator@2@Uadl_serializer@json_abi_v3_11_2@nlohmann@@V?$vector@EV?$allocator@E@std@@@2@@json_abi_v3_11_2@nlohmann@@@detail@json_abi_v3_11_2@nlohmann@@QEAA@$$QEAH@Z
	??$?0HAEAY01$$CBD@?$_Ref_count_obj2@VBlock@blockchain@midnight@@@std@@QEAA@$$QEAHAEAY01$$CBD@Z
	??$?0HH$0A@@?$basic_json@Vmap@std@@Vvector@2@V?$basic_string@DU?$char_traits@D@std@@V?$allocator@D@2@@2@_N_J_KNVallocator@2@Uadl_serializer@json_abi_v3_11_2@nlohmann@@V?$vector@EV?$allocator@E@std@@@2@@json_abi_v3_11_2@nlohmann@@QEAA@$$QEAH@Z
	??$?0I$0A@@?$duration@_JU?$ratio@$00$0DOI@@std@@@chrono@std@@QEAA@AEBI@Z
	??$?0I$0A@@?$json_ref@V?$basic_json@Vmap@std@@Vvector@2@V?$basic_string@DU?$char_traits@D@std@@V?$allocator@D@2@@2@_N_J_KNVallocator@2@Uadl_serializer@json_abi_v3_11_2@nlohmann@@V?$vector@EV?$allocator@E@std@@@2@@json_abi_v3_11_2@nlohmann@@@detail@json_abi_v3_11_2@nlohmann@@QEAA@$$QEAI@Z
	??$?0I$0A@@seed_seq@std@@QEAA@V?$initializer_list@I@1@@Z
	??$?0I@?$allocator@U_Container_proxy@std@@@std@@QEAA@AEBV?$allocator@I@1@@Z
	??$?0II$0A@@?$basic_json@Vmap@std@@Vvector@2@V?$basic_string@DU?$char_traits@D@std@@V?$allocator@D@2@@2@_N_J_KNVallocator@2@Uadl_serializer@json_abi_v3_11_2@nlohmann@@V?$vector@EV?$allocator@E@std@@@2@@json_abi_v3_11_2@nlohmann@@QEAA@$$QEAI@Z
	??$?0I_JPEBD@?$basic_format_args@V?$basic_format_context@Vappender@v9@fmt@@D@v9@fmt@@@v9@fmt@@QEAA@AEBV?$format_arg_store@V?$basic_format_context@Vappender@v9@fmt@@D@v9@fmt@@I_JPEBD@12@@Z
	??$?0M@?$_Compressed_pair@U?$equal_to@V?$basic_string@DU?$char_traits@D@std@@V?$allocator@D@2@@std@@@std@@M$00@std@@QEAA@U_Zero_then_variadic_args_t@1@$$QEAM@Z
	??$?0M@?$_Compressed_pair@Uequal_to@case_ignore@detail@httplib@@M$00@std@@QEAA@U_Zero_then_variadic_args_t@1@$$QEAM@Z
	??$?0NN$0A@@?$basic_json@Vmap@std@@Vvector@2@V?$basic_string@DU?$char_traits@D@std@@V?$allocator@D@2@@2@_N_J_KNVallocator@2@Uadl_serializer@json_abi_v3_11_2@nlohmann@@V?$vector@EV?$allocator@E@std@@@2@@json_abi_v3_11_2@nlohmann@@QEAA@$$QEAN@Z
	??$?0P6AXPEAUevp_md_ctx_st@@@Z$0A@@?$unique_ptr@Uevp_md_ctx_st@@P6AXPEAU1@@Z@std@@QEAA@PEAUevp_md_ctx_st@@$$QEAP6AX0@Z@Z
	??$?0P6AXPEAUevp_md_ctx_st@@@ZAEAPEAU0@@?$_Compressed_pair@P6AXPEAUevp_md_ctx_st@@@ZPEAU1@$0A@@std@@QEAA@U_One_then_variadic_args_t@1@$$QEAP6AXPEAUevp_md_ctx_st@@@ZAEAPEAU3@@Z
	??$?0P6A_JAEAVStream@httplib@@AEBV?$unordered_multimap@V?$basic_string@DU?$char_traits@D@std@@V?$allocator@D@2@@std@@V12@Uhash@case_ignore@detail@httplib@@Uequal_to@456@V?$allocator@U?$pair@$$CBV?$basic_string@DU?$char_traits@D@std@@V?$allocator@D@2@@std@@V12@@std@@@2@@std@@@Z$0A@@?$_Func_impl_no_alloc@P6A_JAEAVStream@httplib@@AEBV?$unordered_multimap@V?$basic_string@DU?$char_traits@D@std@@V?$allocator@D@2@@std@@V12@Uhash@case_ignore@detail@httplib@@Uequal_to@456@V?$allocator@U?$pair@$$CBV?$basic_string@DU?$char_traits@D@std@@V?$allocator@D@2@@std@@V12@@std@@@2@@std@@@Z_JAEAV12@AEAV34@@std@@QEAA@$$QEAP6A_JAEAVStream@httplib@@AEBV?$unordered_multimap@V?$basic_string@DU?$char_traits@D@std@@V?$allocator@D@2@@std@@V12@Uhash@case_ignore@detail@httplib@@Uequal_to@456@V?$allocator@U?$pair@$$CBV?$basic_string@DU?$char_traits@D@std@@V?$allocator@D@2@@std@@V12@@std@@@2@@1@@Z@Z
	??$?0PEAD$0A@@?$basic_string@DU?$char_traits@D@std@@V?$allocator@D@2@@std@@QEAA@PEAD0AEBV?$allocator@D@1@@Z
	??$?0PEAU?$_Tree_node@U?$pair@$$CBV?$basic_string@DU?$char_traits@D@std@@V?$allocator@D@2@@std@@U?$pair@UZkProof@phase4@midnight@@_K@2@@std@@PEAX@std@@_N$0A@@?$pair@PEAU?$_Tree_node@U?$pair@$$CBV?$basic_string@DU?$char_traits@D@std@@V?$allocator@D@2@@std@@U?$pair@UZkProof@phase4@midnight@@_K@2@@std@@PEAX@std@@_N@std@@QEAA@$$QEAPEAU?$_Tree_node@U?$pair@$$CBV?$basic_string@DU?$char_traits@D@std@@V?$allocator@D@2@@std@@U?$pair@UZkProof@phase4@midnight@@_K@2@@std@@PEAX@1@$$QEA_N@Z
	??$?0PEAU?$_Tree_node@U?$pair@$$CBV?$basic_string@DU?$char_traits@D@std@@V?$allocator@D@2@@std@@UContractState@zk@midnight@@@std@@PEAX@std@@_N$0A@@?$pair@PEAU?$_Tree_node@U?$pair@$$CBV?$basic_string@DU?$char_traits@D@std@@V?$allocator@D@2@@std@@UContractState@zk@midnight@@@std@@PEAX@std@@_N@std@@QEAA@$$QEAPEAU?$_Tree_node@U?$pair@$$CBV?$basic_string@DU?$char_traits@D@std@@V?$allocator@D@2@@std@@UContractState@zk@midnight@@@std@@PEAX@1@$$QEA_N@Z
	??$?0PEAU?$_Tree_node@U?$pair@$$CBV?$basic_string@DU?$char_traits@D@std@@V?$allocator@D@2@@std@@ULedgerState@zk@midnight@@@std@@PEAX@std@@_N$0A@@?$pair@PEAU?$_Tree_node@U?$pair@$$CBV?$basic_string@DU?$char_traits@D@std@@V?$allocator@D@2@@std@@ULedgerState@zk@midnight@@@std@@PEAX@std@@_N@std@@QEAA@$$QEAPEAU?$_Tree_node@U?$pair@$$CBV?$basic_string@DU?$char_traits@D@std@@V?$allocator@D@2@@std@@ULedgerState@zk@midnight@@@std@@PEAX@1@$$QEA_N@Z
	??$?0PEAU?$_Tree_node@U?$pair@$$CBV?$basic_string@DU?$char_traits@D@std@@V?$allocator@D@2@@std@@USessionInfo@SessionManager@midnight@@@std@@PEAX@std@@_N$0A@@?$pair@PEAU?$_Tree_node@U?$pair@$$CBV?$basic_string@DU?$char_traits@D@std@@V?$allocator@D@2@@std@@USessionInfo@SessionManager@midnight@@@std@@PEAX@std@@_N@std@@QEAA@$$QEAPEAU?$_Tree_node@U?$pair@$$CBV?$basic_string@DU?$char_traits@D@std@@V?$allocator@D@2@@std@@USessionInfo@SessionManager@midnight@@@std@@PEAX@1@$$QEA_N@Z
	??$?0PEAU?$_Tree_node@U?$pair@$$CBV?$basic_string@DU?$char_traits@D@std@@V?$allocator@D@2@@std@@USubmissionResult@phase5@midnight@@@std@@PEAX@std@@_N$0A@@?$pair@PEAU?$_Tree_node@U?$pair@$$CBV?$basic_string@DU?$char_traits@D@std@@V?$allocator@D@2@@std@@USubmissionResult@phase5@midnight@@@std@@PEAX@std@@_N@std@@QEAA@$$QEAPEAU?$_Tree_node@U?$pair@$$CBV?$basic_string@DU?$char_traits@D@std@@V?$allocator@D@2@@std@@USubmissionResult@phase5@midnight@@@std@@PEAX@1@$$QEA_N@Z
	??$?0PEAU?$_Tree_node@U?$pair@$$CBV?$basic_string@DU?$char_traits@D@std@@V?$allocator@D@2@@std@@UWitnessOutput@zk@midnight@@@std@@PEAX@std@@_N$0A@@?$pair@PEAU?$_Tree_node@U?$pair@$$CBV?$basic_string@DU?$char_traits@D@std@@V?$allocator@D@2@@std@@UWitnessOutput@zk@midnight@@@std@@PEAX@std@@_N@std@@QEAA@$$QEAPEAU?$_Tree_node@U?$pair@$$CBV?$basic_string@DU?$char_traits@D@std@@V?$allocator@D@2@@std@@UWitnessOutput@zk@midnight@@@std@@PEAX@1@$$QEA_N@Z
	??$?0PEAU?$_Tree_node@U?$pair@$$CBV?$basic_string@DU?$char_traits@D@std@@V?$allocator@D@2@@std@@V12@@std@@PEAX@std@@_N$0A@@?$pair@PEAU?$_Tree_node@U?$pair@$$CBV?$basic_string@DU?$char_traits@D@std@@V?$allocator@D@2@@std@@V12@@std@@PEAX@std@@_N@std@@QEAA@$$QEAPEAU?$_Tree_node@U?$pair@$$CBV?$basic_string@DU?$char_traits@D@std@@V?$allocator@D@2@@std@@V12@@std@@PEAX@1@$$QEA_N@Z
	??$?0PEAU?$_Tree_node@U?$pair@$$CBV?$basic_string@DU?$char_traits@D@std@@V?$allocator@D@2@@std@@V?$basic_json@Vmap@std@@Vvector@2@V?$basic_string@DU?$char_traits@D@std@@V?$allocator@D@2@@2@_N_J_KNVallocator@2@Uadl_serializer@json_abi_v3_11_2@nlohmann@@V?$vector@EV?$allocator@E@std@@@2@@json_abi_v3_11_2@nlohmann@@@std@@PEAX@std@@_N$0A@@?$pair@PEAU?$_Tree_node@U?$pair@$$CBV?$basic_string@DU?$char_traits@D@std@@V?$allocator@D@2@@std@@V?$basic_json@Vmap@std@@Vvector@2@V?$basic_string@DU?$char_traits@D@std@@V?$allocator@D@2@@2@_N_J_KNVallocator@2@Uadl_serializer@json_abi_v3_11_2@nlohmann@@V?$vector@EV?$allocator@E@std@@@2@@json_abi_v3_11_2@nlohmann@@@std@@PEAX@std@@_N@std@@QEAA@$$QEAPEAU?$_Tree_node@U?$pair@$$CBV?$basic_string@DU?$char_traits@D@std@@V?$allocator@D@2@@std@@V?$basic_json@Vmap@std@@Vvector@2@V?$basic_string@DU?$char_traits@D@std@@V?$allocator@D@2@@2@_N_J_KNVallocator@2@Uadl_serializer@json_abi_v3_11_2@nlohmann@@V?$vector@EV?$allocator@E@std@@@2@@json_abi_v3_11_2@nlohmann@@@std@@PEAX@1@$$QEA_N@Z
	??$?0PEAU?$_Tree_node@U?$pair@$$CBV?$basic_string@DU?$char_traits@D@std@@V?$allocator@D@2@@std@@V?$function@$$A6AXAEBV?$basic_string@DU?$char_traits@D@std@@V?$allocator@D@2@@std@@@Z@2@@std@@PEAX@std@@_N$0A@@?$pair@PEAU?$_Tree_node@U?$pair@$$CBV?$basic_string@DU?$char_traits@D@std@@V?$allocator@D@2@@std@@V?$function@$$A6AXAEBV?$basic_string@DU?$char_traits@D@std@@V?$allocator@D@2@@std@@@Z@2@@std@@PEAX@std@@_N@std@@QEAA@$$QEAPEAU?$_Tree_node@U?$pair@$$CBV?$basic_string@DU?$char_traits@D@std@@V?$allocator@D@2@@std@@V?$function@$$A6AXAEBV?$basic_string@DU?$char_traits@D@std@@V?$allocator@D@2@@std@@@Z@2@@std@@PEAX@1@$$QEA_N@Z
	??$?0PEAU?$_Tree_node@U?$pair@$$CBV?$basic_string@DU?$char_traits@D@std@@V?$allocator@D@2@@std@@V?$vector@EV?$allocator@E@std@@@2@@std@@PEAX@std@@_N$0A@@?$pair@PEAU?$_Tree_node@U?$pair@$$CBV?$basic_string@DU?$char_traits@D@std@@V?$allocator@D@2@@std@@V?$vector@EV?$allocator@E@std@@@2@@std@@PEAX@std@@_N@std@@QEAA@$$QEAPEAU?$_Tree_node@U?$pair@$$CBV?$basic_string@DU?$char_traits@D@std@@V?$allocator@D@2@@std@@V?$vector@EV?$allocator@E@std@@@2@@std@@PEAX@1@$$QEA_N@Z
	??$?0PEAU?$_Tree_node@U?$pair@$$CBV?$basic_string@DU?$char_traits@D@std@@V?$allocator@D@2@@std@@V?$vector@UContractState@zk@midnight@@V?$allocator@UContractState@zk@midnight@@@std@@@2@@std@@PEAX@std@@_N$0A@@?$pair@PEAU?$_Tree_node@U?$pair@$$CBV?$basic_string@DU?$char_traits@D@std@@V?$allocator@D@2@@std@@V?$vector@UContractState@zk@midnight@@V?$allocator@UContractState@zk@midnight@@@std@@@2@@std@@PEAX@std@@_N@std@@QEAA@$$QEAPEAU?$_Tree_node@U?$pair@$$CBV?$basic_string@DU?$char_traits@D@std@@V?$allocator@D@2@@std@@V?$vector@UContractState@zk@midnight@@V?$allocator@UContractState@zk@midnight@@@std@@@2@@std@@PEAX@1@$$QEA_N@Z
	??$?0PEAU?$_Tree_node@U?$pair@$$CBV?$basic_string@DU?$char_traits@D@std@@V?$allocator@D@2@@std@@_K@std@@PEAX@std@@_N$0A@@?$pair@PEAU?$_Tree_node@U?$pair@$$CBV?$basic_string@DU?$char_traits@D@std@@V?$allocator@D@2@@std@@_K@std@@PEAX@std@@_N@std@@QEAA@$$QEAPEAU?$_Tree_node@U?$pair@$$CBV?$basic_string@DU?$char_traits@D@std@@V?$allocator@D@2@@std@@_K@std@@PEAX@1@$$QEA_N@Z
	??$?0PEAU?$_Tree_node@V?$basic_string@DU?$char_traits@D@std@@V?$allocator@D@2@@std@@PEAX@std@@_N$0A@@?$pair@PEAU?$_Tree_node@V?$basic_string@DU?$char_traits@D@std@@V?$allocator@D@2@@std@@PEAX@std@@_N@std@@QEAA@$$QEAPEAU?$_Tree_node@V?$basic_string@DU?$char_traits@D@std@@V?$allocator@D@2@@std@@PEAX@1@$$QEA_N@Z
	??$?0PEAV?$basic_json@Vmap@std@@Vvector@2@V?$basic_string@DU?$char_traits@D@std@@V?$allocator@D@2@@2@_N_J_KNVallocator@2@Uadl_serializer@json_abi_v3_11_2@nlohmann@@V?$vector@EV?$allocator@E@std@@@2@@json_abi_v3_11_2@nlohmann@@@?$allocator@U_Container_proxy@std@@@std@@QEAA@AEBV?$allocator@PEAV?$basic_json@Vmap@std@@Vvector@2@V?$basic_string@DU?$char_traits@D@std@@V?$allocator@D@2@@2@_N_J_KNVallocator@2@Uadl_serializer@json_abi_v3_11_2@nlohmann@@V?$vector@EV?$allocator@E@std@@@2@@json_abi_v3_11_2@nlohmann@@@1@@Z
	??$?0PEBD$0A@@?$basic_string@DU?$char_traits@D@std@@V?$allocator@D@2@@std@@QEAA@PEBD0AEBV?$allocator@D@1@@Z
	??$?0PEBD@?$basic_format_args@V?$basic_format_context@Vappender@v9@fmt@@D@v9@fmt@@@v9@fmt@@QEAA@AEBV?$format_arg_store@V?$basic_format_context@Vappender@v9@fmt@@D@v9@fmt@@PEBD@12@@Z
	??$?0PEBDPEBD$0A@@?$pair@PEBDPEBD@std@@QEAA@XZ
	??$?0PEBDV?$basic_string@DU?$char_traits@D@std@@V?$allocator@D@2@@std@@$0A@@?$pair@V?$basic_string@DU?$char_traits@D@std@@V?$allocator@D@2@@std@@V12@@std@@QEAA@$$QEAU?$pair@PEBDV?$basic_string@DU?$char_traits@D@std@@V?$allocator@D@2@@std@@@1@@Z
	??$?0PEBV?$json_ref@V?$basic_json@Vmap@std@@Vvector@2@V?$basic_string@DU?$char_traits@D@std@@V?$allocator@D@2@@2@_N_J_KNVallocator@2@Uadl_serializer@json_abi_v3_11_2@nlohmann@@V?$vector@EV?$allocator@E@std@@@2@@json_abi_v3_11_2@nlohmann@@@detail@json_abi_v3_11_2@nlohmann@@$0A@@?$vector@V?$basic_json@Vmap@std@@Vvector@2@V?$basic_string@DU?$char_traits@D@std@@V?$allocator@D@2@@2@_N_J_KNVallocator@2@Uadl_serializer@json_abi_v3_11_2@nlohmann@@V?$vector@EV?$allocator@E@std@@@2@@json_abi_v3_11_2@nlohmann@@V?$allocator@V?$basic_json@Vmap@std@@Vvector@2@V?$basic_string@DU?$char_traits@D@std@@V?$allocator@D@2@@2@_N_J_KNVallocator@2@Uadl_serializer@json_abi_v3_11_2@nlohmann@@V?$vector@EV?$allocator@E@std@@@2@@json_abi_v3_11_2@nlohmann@@@std@@@std@@QEAA@PEBV?$json_ref@V?$basic_json@Vmap@std@@Vvector@2@V?$basic_string@DU?$char_traits@D@std@@V?$allocator@D@2@@2@_N_J_KNVallocator@2@Uadl_serializer@json_abi_v3_11_2@nlohmann@@V?$vector@EV?$allocator@E@std@@@2@@json_abi_v3_11_2@nlohmann@@@detail@json_abi_v3_11_2@nlohmann@@0AEBV?$allocator@V?$basic_json@Vmap@std@@Vvector@2@V?$basic_string@DU?$char_traits@D@std@@V?$allocator@D@2@@2@_N_J_KNVallocator@2@Uadl_serializer@json_abi_v3_11_2@nlohmann@@V?$vector@EV?$allocator@E@std@@@2@@json_abi_v3_11_2@nlohmann@@@1@@Z
	??$?0U?$_List_node@U?$pair@$$CBV?$basic_string@DU?$char_traits@D@std@@V?$allocator@D@2@@std@@V12@@std@@PEAX@std@@@?$allocator@U?$pair@$$CBV?$basic_string@DU?$char_traits@D@std@@V?$allocator@D@2@@std@@V12@@std@@@std@@QEAA@AEBV?$allocator@U?$_List_node@U?$pair@$$CBV?$basic_string@DU?$char_traits@D@std@@V?$allocator@D@2@@std@@V12@@std@@PEAX@std@@@1@@Z
	??$?0U?$_List_node@U?$pair@$$CBV?$basic_string@DU?$char_traits@D@std@@V?$allocator@D@2@@std@@V12@@std@@PEAX@std@@@?$allocator@U_Container_proxy@std@@@std@@QEAA@AEBV?$allocator@U?$_List_node@U?$pair@$$CBV?$basic_string@DU?$char_traits@D@std@@V?$allocator@D@2@@std@@V12@@std@@PEAX@std@@@1@@Z
	??$?0U?$_List_node@U?$pair@$$CBV?$basic_string@DU?$char_traits@D@std@@V?$allocator@D@2@@std@@V12@@std@@PEAX@std@@@?$allocator@V?$_List_unchecked_iterator@V?$_List_val@U?$_List_simple_types@U?$pair@$$CBV?$basic_string@DU?$char_traits@D@std@@V?$allocator@D@2@@std@@V12@@std@@@std@@@std@@@std@@@std@@QEAA@AEBV?$allocator@U?$_List_node@U?$pair@$$CBV?$basic_string@DU?$char_traits@D@std@@V?$allocator@D@2@@std@@V12@@std@@PEAX@std@@@1@@Z
	??$?0U?$_List_node@U?$pair@$$CBV?$basic_string@DU?$char_traits@D@std@@V?$allocator@D@2@@std@@V?$unique_ptr@Uany_storage@detail@httplib@@U?$default_delete@Uany_storage@detail@httplib@@@std@@@2@@std@@PEAX@std@@@?$allocator@U_Container_proxy@std@@@std@@QEAA@AEBV?$allocator@U?$_List_node@U?$pair@$$CBV?$basic_string@DU?$char_traits@D@std@@V?$allocator@D@2@@std@@V?$unique_ptr@Uany_storage@detail@httplib@@U?$default_delete@Uany_storage@detail@httplib@@@std@@@2@@std@@PEAX@std@@@1@@Z
	??$?0U?$_List_node@V?$basic_string@DU?$char_traits@D@std@@V?$allocator@D@2@@std@@PEAX@std@@@?$allocator@U_Container_proxy@std@@@std@@QEAA@AEBV?$allocator@U?$_List_node@V?$basic_string@DU?$char_traits@D@std@@V?$allocator@D@2@@std@@PEAX@std@@@1@@Z
	??$?0U?$_Tree_node@U?$pair@$$CBV?$basic_string@DU?$char_traits@D@std@@V?$allocator@D@2@@std@@U?$pair@UZkProof@phase4@midnight@@_K@2@@std@@PEAX@std@@@?$allocator@U_Container_proxy@std@@@std@@QEAA@AEBV?$allocator@U?$_Tree_node@U?$pair@$$CBV?$basic_string@DU?$char_traits@D@std@@V?$allocator@D@2@@std@@U?$pair@UZkProof@phase4@midnight@@_K@2@@std@@PEAX@std@@@1@@Z
	??$?0U?$_Tree_node@U?$pair@$$CBV?$basic_string@DU?$char_traits@D@std@@V?$allocator@D@2@@std@@UContractState@zk@midnight@@@std@@PEAX@std@@@?$allocator@U_Container_proxy@std@@@std@@QEAA@AEBV?$allocator@U?$_Tree_node@U?$pair@$$CBV?$basic_string@DU?$char_traits@D@std@@V?$allocator@D@2@@std@@UContractState@zk@midnight@@@std@@PEAX@std@@@1@@Z
	??$?0U?$_Tree_node@U?$pair@$$CBV?$basic_string@DU?$char_traits@D@std@@V?$allocator@D@2@@std@@UFormData@httplib@@@std@@PEAX@std@@@?$allocator@U_Container_proxy@std@@@std@@QEAA@AEBV?$allocator@U?$_Tree_node@U?$pair@$$CBV?$basic_string@DU?$char_traits@D@std@@V?$allocator@D@2@@std@@UFormData@httplib@@@std@@PEAX@std@@@1@@Z
	??$?0U?$_Tree_node@U?$pair@$$CBV?$basic_string@DU?$char_traits@D@std@@V?$allocator@D@2@@std@@UFormField@httplib@@@std@@PEAX@std@@@?$allocator@U_Container_proxy@std@@@std@@QEAA@AEBV?$allocator@U?$_Tree_node@U?$pair@$$CBV?$basic_string@DU?$char_traits@D@std@@V?$allocator@D@2@@std@@UFormField@httplib@@@std@@PEAX@std@@@1@@Z
	??$?0U?$_Tree_node@U?$pair@$$CBV?$basic_string@DU?$char_traits@D@std@@V?$allocator@D@2@@std@@USubmissionResult@phase5@midnight@@@std@@PEAX@std@@@?$allocator@U_Container_proxy@std@@@std@@QEAA@AEBV?$allocator@U?$_Tree_node@U?$pair@$$CBV?$basic_string@DU?$char_traits@D@std@@V?$allocator@D@2@@std@@USubmissionResult@phase5@midnight@@@std@@PEAX@std@@@1@@Z
	??$?0U?$_Tree_node@U?$pair@$$CBV?$basic_string@DU?$char_traits@D@std@@V?$allocator@D@2@@std@@UTransactionStatusUpdate@phase6@midnight@@@std@@PEAX@std@@@?$allocator@U_Container_proxy@std@@@std@@QEAA@AEBV?$allocator@U?$_Tree_node@U?$pair@$$CBV?$basic_string@DU?$char_traits@D@std@@V?$allocator@D@2@@std@@UTransactionStatusUpdate@phase6@midnight@@@std@@PEAX@std@@@1@@Z
	??$?0U?$_Tree_node@U?$pair@$$CBV?$basic_string@DU?$char_traits@D@std@@V?$allocator@D@2@@std@@UWitnessOutput@zk@midnight@@@std@@PEAX@std@@@?$allocator@U_Container_proxy@std@@@std@@QEAA@AEBV?$allocator@U?$_Tree_node@U?$pair@$$CBV?$basic_string@DU?$char_traits@D@std@@V?$allocator@D@2@@std@@UWitnessOutput@zk@midnight@@@std@@PEAX@std@@@1@@Z
	??$?0U?$_Tree_node@U?$pair@$$CBV?$basic_string@DU?$char_traits@D@std@@V?$allocator@D@2@@std@@V12@@std@@PEAX@std@@@?$allocator@U_Container_proxy@std@@@std@@QEAA@AEBV?$allocator@U?$_Tree_node@U?$pair@$$CBV?$basic_string@DU?$char_traits@D@std@@V?$allocator@D@2@@std@@V12@@std@@PEAX@std@@@1@@Z
	??$?0U?$_Tree_node@U?$pair@$$CBV?$basic_string@DU?$char_traits@D@std@@V?$allocator@D@2@@std@@V?$basic_json@Vmap@std@@Vvector@2@V?$basic_string@DU?$char_traits@D@std@@V?$allocator@D@2@@2@_N_J_KNVallocator@2@Uadl_serializer@json_abi_v3_11_2@nlohmann@@V?$vector@EV?$allocator@E@std@@@2@@json_abi_v3_11_2@nlohmann@@@std@@PEAX@std@@@?$allocator@U_Container_proxy@std@@@std@@QEAA@AEBV?$allocator@U?$_Tree_node@U?$pair@$$CBV?$basic_string@DU?$char_traits@D@std@@V?$allocator@D@2@@std@@V?$basic_json@Vmap@std@@Vvector@2@V?$basic_string@DU?$char_traits@D@std@@V?$allocator@D@2@@2@_N_J_KNVallocator@2@Uadl_serializer@json_abi_v3_11_2@nlohmann@@V?$vector@EV?$allocator@E@std@@@2@@json_abi_v3_11_2@nlohmann@@@std@@PEAX@std@@@1@@Z
	??$?0U?$_Tree_node@U?$pair@$$CBV?$basic_string@DU?$char_traits@D@std@@V?$allocator@D@2@@std@@V?$map@V?$basic_string@DU?$char_traits@D@std@@V?$allocator@D@2@@std@@_KU?$less@V?$basic_string@DU?$char_traits@D@std@@V?$allocator@D@2@@std@@@2@V?$allocator@U?$pair@$$CBV?$basic_string@DU?$char_traits@D@std@@V?$allocator@D@2@@std@@_K@std@@@2@@2@@std@@PEAX@std@@@?$allocator@U_Container_proxy@std@@@std@@QEAA@AEBV?$allocator@U?$_Tree_node@U?$pair@$$CBV?$basic_string@DU?$char_traits@D@std@@V?$allocator@D@2@@std@@V?$map@V?$basic_string@DU?$char_traits@D@std@@V?$allocator@D@2@@std@@_KU?$less@V?$basic_string@DU?$char_traits@D@std@@V?$allocator@D@2@@std@@@2@V?$allocator@U?$pair@$$CBV?$basic_string@DU?$char_traits@D@std@@V?$allocator@D@2@@std@@_K@std@@@2@@2@@std@@PEAX@std@@@1@@Z
	??$?0U?$_Tree_node@U?$pair@$$CBV?$basic_string@DU?$char_traits@D@std@@V?$allocator@D@2@@std@@V?$vector@EV?$allocator@E@std@@@2@@std@@PEAX@std@@@?$allocator@U_Container_proxy@std@@@std@@QEAA@AEBV?$allocator@U?$_Tree_node@U?$pair@$$CBV?$basic_string@DU?$char_traits@D@std@@V?$allocator@D@2@@std@@V?$vector@EV?$allocator@E@std@@@2@@std@@PEAX@std@@@1@@Z
	??$?0U?$_Tree_node@U?$pair@$$CBV?$basic_string@DU?$char_traits@D@std@@V?$allocator@D@2@@std@@V?$vector@UContractState@zk@midnight@@V?$allocator@UContractState@zk@midnight@@@std@@@2@@std@@PEAX@std@@@?$allocator@U_Container_proxy@std@@@std@@QEAA@AEBV?$allocator@U?$_Tree_node@U?$pair@$$CBV?$basic_string@DU?$char_traits@D@std@@V?$allocator@D@2@@std@@V?$vector@UContractState@zk@midnight@@V?$allocator@UContractState@zk@midnight@@@std@@@2@@std@@PEAX@std@@@1@@Z
	??$?0U?$_Tree_node@U?$pair@$$CBV?$basic_string@DU?$char_traits@D@std@@V?$allocator@D@2@@std@@_K@std@@PEAX@std@@@?$allocator@U_Container_proxy@std@@@std@@QEAA@AEBV?$allocator@U?$_Tree_node@U?$pair@$$CBV?$basic_string@DU?$char_traits@D@std@@V?$allocator@D@2@@std@@_K@std@@PEAX@std@@@1@@Z
	??$?0U?$_Tree_node@V?$basic_string@DU?$char_traits@D@std@@V?$allocator@D@2@@std@@PEAX@std@@@?$allocator@U_Container_proxy@std@@@std@@QEAA@AEBV?$allocator@U?$_Tree_node@V?$basic_string@DU?$char_traits@D@std@@V?$allocator@D@2@@std@@PEAX@std@@@1@@Z
	??$?0U?$char_traits@D@std@@V?$allocator@D@1@@?$basic_string_view@D@v9@fmt@@QEAA@AEBV?$basic_string@DU?$char_traits@D@std@@V?$allocator@D@2@@std@@@Z
	??$?0U?$default_delete@UChunkedDecoder@detail@httplib@@@std@@$0A@@?$unique_ptr@UChunkedDecoder@detail@httplib@@U?$default_delete@UChunkedDecoder@detail@httplib@@@std@@@std@@QEAA@XZ
	??$?0U?$default_delete@UResponse@httplib@@@std@@$0A@@?$unique_ptr@UResponse@httplib@@U?$default_delete@UResponse@httplib@@@std@@@std@@QEAA@$$QEAV01@@Z
	??$?0U?$default_delete@UResponse@httplib@@@std@@$0A@@?$unique_ptr@UResponse@httplib@@U?$default_delete@UResponse@httplib@@@std@@@std@@QEAA@$$T@Z
	??$?0U?$default_delete@UResponse@httplib@@@std@@$0A@@?$unique_ptr@UResponse@httplib@@U?$default_delete@UResponse@httplib@@@std@@@std@@QEAA@PEAUResponse@httplib@@@Z
	??$?0U?$default_delete@UResponse@httplib@@@std@@PEAUResponse@httplib@@@?$_Compressed_pair@U?$default_delete@UResponse@httplib@@@std@@PEAUResponse@httplib@@$00@std@@QEAA@U_One_then_variadic_args_t@1@$$QEAU?$default_delete@UResponse@httplib@@@1@$$QEAPEAUResponse@httplib@@@Z
	??$?0U?$default_delete@VClientImpl@httplib@@@std@@$0A@@?$unique_ptr@VClientImpl@httplib@@U?$default_delete@VClientImpl@httplib@@@std@@@std@@QEAA@PEAVClientImpl@httplib@@@Z
	??$?0U?$default_delete@VMidnightNodeRPC@network@midnight@@@std@@$0A@@?$unique_ptr@VMidnightNodeRPC@network@midnight@@U?$default_delete@VMidnightNodeRPC@network@midnight@@@std@@@std@@QEAA@PEAVMidnightNodeRPC@network@midnight@@@Z
	??$?0U?$default_delete@VMidnightNodeRPC@network@midnight@@@std@@$0A@@?$unique_ptr@VMidnightNodeRPC@network@midnight@@U?$default_delete@VMidnightNodeRPC@network@midnight@@@std@@@std@@QEAA@XZ
	??$?0U?$default_delete@VNetworkClient@network@midnight@@@std@@$0A@@?$unique_ptr@VNetworkClient@network@midnight@@U?$default_delete@VNetworkClient@network@midnight@@@std@@@std@@QEAA@PEAVNetworkClient@network@midnight@@@Z
	??$?0U?$default_delete@V_Facet_base@std@@@std@@$0A@@?$unique_ptr@V_Facet_base@std@@U?$default_delete@V_Facet_base@std@@@2@@std@@QEAA@PEAV_Facet_base@1@@Z
	??$?0U?$default_delete@V_Node_assert@std@@@std@@$0A@@?$unique_ptr@V_Node_assert@std@@U?$default_delete@V_Node_assert@std@@@2@@std@@QEAA@PEAV_Node_assert@1@@Z
	??$?0U?$default_delete@Vcompressor@detail@httplib@@@std@@$0A@@?$unique_ptr@Vcompressor@detail@httplib@@U?$default_delete@Vcompressor@detail@httplib@@@std@@@std@@QEAA@$$QEAV01@@Z
	??$?0U?$default_delete@Vcompressor@detail@httplib@@@std@@$0A@@?$unique_ptr@Vcompressor@detail@httplib@@U?$default_delete@Vcompressor@detail@httplib@@@std@@@std@@QEAA@$$T@Z
	??$?0U?$default_delete@Vcompressor@detail@httplib@@@std@@$0A@@?$unique_ptr@Vcompressor@detail@httplib@@U?$default_delete@Vcompressor@detail@httplib@@@std@@@std@@QEAA@XZ
	??$?0U?$default_delete@Vcompressor@detail@httplib@@@std@@PEAVcompressor@detail@httplib@@@?$_Compressed_pair@U?$default_delete@Vcompressor@detail@httplib@@@std@@PEAVcompressor@detail@httplib@@$00@std@@QEAA@U_One_then_variadic_args_t@1@$$QEAU?$default_delete@Vcompressor@detail@httplib@@@1@$$QEAPEAVcompressor@detail@httplib@@@Z
	??$?0U?$default_delete@Vdecompressor@detail@httplib@@@std@@$0A@@?$unique_ptr@Vdecompressor@detail@httplib@@U?$default_delete@Vdecompressor@detail@httplib@@@std@@@std@@QEAA@XZ
	??$?0U?$default_delete@Vnocompressor@detail@httplib@@@std@@$0A@@?$unique_ptr@Vnocompressor@detail@httplib@@U?$default_delete@Vnocompressor@detail@httplib@@@std@@@std@@QEAA@PEAVnocompressor@detail@httplib@@@Z
	??$?0U?$less@V?$basic_string@DU?$char_traits@D@std@@V?$allocator@D@2@@std@@@std@@U_One_then_variadic_args_t@1@V?$allocator@U?$_Tree_node@U?$pair@$$CBV?$basic_string@DU?$char_traits@D@std@@V?$allocator@D@2@@std@@UContractState@zk@midnight@@@std@@PEAX@std@@@1@@?$_Compressed_pair@U?$less@V?$basic_string@DU?$char_traits@D@std@@V?$allocator@D@2@@std@@@std@@V?$_Compressed_pair@V?$allocator@U?$_Tree_node@U?$pair@$$CBV?$basic_string@DU?$char_traits@D@std@@V?$allocator@D@2@@std@@UContractState@zk@midnight@@@std@@PEAX@std@@@std@@V?$_Tree_val@U?$_Tree_simple_types@U?$pair@$$CBV?$basic_string@DU?$char_traits@D@std@@V?$allocator@D@2@@std@@UContractState@zk@midnight@@@std@@@std@@@2@$00@2@$00@std@@QEAA@U_One_then_variadic_args_t@1@$$QEAU?$less@V?$basic_string@DU?$char_traits@D@std@@V?$allocator@D@2@@std@@@1@$$QEAU21@$$QEAV?$allocator@U?$_Tree_node@U?$pair@$$CBV?$basic_string@DU?$char_traits@D@std@@V?$allocator@D@2@@std@@UContractState@zk@midnight@@@std@@PEAX@std@@@1@@Z
	??$?0U?$less@V?$basic_string@DU?$char_traits@D@std@@V?$allocator@D@2@@std@@@std@@U_One_then_variadic_args_t@1@V?$allocator@U?$_Tree_node@U?$pair@$$CBV?$basic_string@DU?$char_traits@D@std@@V?$allocator@D@2@@std@@UFormData@httplib@@@std@@PEAX@std@@@1@@?$_Compressed_pair@U?$less@V?$basic_string@DU?$char_traits@D@std@@V?$allocator@D@2@@std@@@std@@V?$_Compressed_pair@V?$allocator@U?$_Tree_node@U?$pair@$$CBV?$basic_string@DU?$char_traits@D@std@@V?$allocator@D@2@@std@@UFormData@httplib@@@std@@PEAX@std@@@std@@V?$_Tree_val@U?$_Tree_simple_types@U?$pair@$$CBV?$basic_string@DU?$char_traits@D@std@@V?$allocator@D@2@@std@@UFormData@httplib@@@std@@@std@@@2@$00@2@$00@std@@QEAA@U_One_then_variadic_args_t@1@$$QEAU?$less@V?$basic_string@DU?$char_traits@D@std@@V?$allocator@D@2@@std@@@1@$$QEAU21@$$QEAV?$allocator@U?$_Tree_node@U?$pair@$$CBV?$basic_string@DU?$char_traits@D@std@@V?$allocator@D@2@@std@@UFormData@httplib@@@std@@PEAX@std@@@1@@Z
	??$?0U?$less@V?$basic_string@DU?$char_traits@D@std@@V?$allocator@D@2@@std@@@std@@U_One_then_variadic_args_t@1@V?$allocator@U?$_Tree_node@U?$pair@$$CBV?$basic_string@DU?$char_traits@D@std@@V?$allocator@D@2@@std@@UFormField@httplib@@@std@@PEAX@std@@@1@@?$_Compressed_pair@U?$less@V?$basic_string@DU?$char_traits@D@std@@V?$allocator@D@2@@std@@@std@@V?$_Compressed_pair@V?$allocator@U?$_Tree_node@U?$pair@$$CBV?$basic_string@DU?$char_traits@D@std@@V?$allocator@D@2@@std@@UFormField@httplib@@@std@@PEAX@std@@@std@@V?$_Tree_val@U?$_Tree_simple_types@U?$pair@$$CBV?$basic_string@DU?$char_traits@D@std@@V?$allocator@D@2@@std@@UFormField@httplib@@@std@@@std@@@2@$00@2@$00@std@@QEAA@U_One_then_variadic_args_t@1@$$QEAU?$less@V?$basic_string@DU?$char_traits@D@std@@V?$allocator@D@2@@std@@@1@$$QEAU21@$$QEAV?$allocator@U?$_Tree_node@U?$pair@$$CBV?$basic_string@DU?$char_traits@D@std@@V?$allocator@D@2@@std@@UFormField@httplib@@@std@@PEAX@std@@@1@@Z
	??$?0U?$less@V?$basic_string@DU?$char_traits@D@std@@V?$allocator@D@2@@std@@@std@@U_One_then_variadic_args_t@1@V?$allocator@U?$_Tree_node@U?$pair@$$CBV?$basic_string@DU?$char_traits@D@std@@V?$allocator@D@2@@std@@V12@@std@@PEAX@std@@@1@@?$_Compressed_pair@U?$less@V?$basic_string@DU?$char_traits@D@std@@V?$allocator@D@2@@std@@@std@@V?$_Compressed_pair@V?$allocator@U?$_Tree_node@U?$pair@$$CBV?$basic_string@DU?$char_traits@D@std@@V?$allocator@D@2@@std@@V12@@std@@PEAX@std@@@std@@V?$_Tree_val@U?$_Tree_simple_types@U?$pair@$$CBV?$basic_string@DU?$char_traits@D@std@@V?$allocator@D@2@@std@@V12@@std@@@std@@@2@$00@2@$00@std@@QEAA@U_One_then_variadic_args_t@1@$$QEAU?$less@V?$basic_string@DU?$char_traits@D@std@@V?$allocator@D@2@@std@@@1@$$QEAU21@$$QEAV?$allocator@U?$_Tree_node@U?$pair@$$CBV?$basic_string@DU?$char_traits@D@std@@V?$allocator@D@2@@std@@V12@@std@@PEAX@std@@@1@@Z
	??$?0U?$less@V?$basic_string@DU?$char_traits@D@std@@V?$allocator@D@2@@std@@@std@@U_One_then_variadic_args_t@1@V?$allocator@U?$_Tree_node@U?$pair@$$CBV?$basic_string@DU?$char_traits@D@std@@V?$allocator@D@2@@std@@V?$map@V?$basic_string@DU?$char_traits@D@std@@V?$allocator@D@2@@std@@_KU?$less@V?$basic_string@DU?$char_traits@D@std@@V?$allocator@D@2@@std@@@2@V?$allocator@U?$pair@$$CBV?$basic_string@DU?$char_traits@D@std@@V?$allocator@D@2@@std@@_K@std@@@2@@2@@std@@PEAX@std@@@1@@?$_Compressed_pair@U?$less@V?$basic_string@DU?$char_traits@D@std@@V?$allocator@D@2@@std@@@std@@V?$_Compressed_pair@V?$allocator@U?$_Tree_node@U?$pair@$$CBV?$basic_string@DU?$char_traits@D@std@@V?$allocator@D@2@@std@@V?$map@V?$basic_string@DU?$char_traits@D@std@@V?$allocator@D@2@@std@@_KU?$less@V?$basic_string@DU?$char_traits@D@std@@V?$allocator@D@2@@std@@@2@V?$allocator@U?$pair@$$CBV?$basic_string@DU?$char_traits@D@std@@V?$allocator@D@2@@std@@_K@std@@@2@@2@@std@@PEAX@std@@@std@@V?$_Tree_val@U?$_Tree_simple_types@U?$pair@$$CBV?$basic_string@DU?$char_traits@D@std@@V?$allocator@D@2@@std@@V?$map@V?$basic_string@DU?$char_traits@D@std@@V?$allocator@D@2@@std@@_KU?$less@V?$basic_string@DU?$char_traits@D@std@@V?$allocator@D@2@@std@@@2@V?$allocator@U?$pair@$$CBV?$basic_string@DU?$char_traits@D@std@@V?$allocator@D@2@@std@@_K@std@@@2@@2@@std@@@std@@@2@$00@2@$00@std@@QEAA@U_One_then_variadic_args_t@1@$$QEAU?$less@V?$basic_string@DU?$char_traits@D@std@@V?$allocator@D@2@@std@@@1@$$QEAU21@$$QEAV?$allocator@U?$_Tree_node@U?$pair@$$CBV?$basic_string@DU?$char_traits@D@std@@V?$allocator@D@2@@std@@V?$map@V?$basic_string@DU?$char_traits@D@std@@V?$allocator@D@2@@std@@_KU?$less@V?$basic_string@DU?$char_traits@D@std@@V?$allocator@D@2@@std@@@2@V?$allocator@U?$pair@$$CBV?$basic_string@DU?$char_traits@D@std@@V?$allocator@D@2@@std@@_K@std@@@2@@2@@std@@PEAX@std@@@1@@Z
	??$?0U?$less@V?$basic_string@DU?$char_traits@D@std@@V?$allocator@D@2@@std@@@std@@U_One_then_variadic_args_t@1@V?$allocator@U?$_Tree_node@U?$pair@$$CBV?$basic_string@DU?$char_traits@D@std@@V?$allocator@D@2@@std@@_K@std@@PEAX@std@@@1@@?$_Compressed_pair@U?$less@V?$basic_string@DU?$char_traits@D@std@@V?$allocator@D@2@@std@@@std@@V?$_Compressed_pair@V?$allocator@U?$_Tree_node@U?$pair@$$CBV?$basic_string@DU?$char_traits@D@std@@V?$allocator@D@2@@std@@_K@std@@PEAX@std@@@std@@V?$_Tree_val@U?$_Tree_simple_types@U?$pair@$$CBV?$basic_string@DU?$char_traits@D@std@@V?$allocator@D@2@@std@@_K@std@@@std@@@2@$00@2@$00@std@@QEAA@U_One_then_variadic_args_t@1@$$QEAU?$less@V?$basic_string@DU?$char_traits@D@std@@V?$allocator@D@2@@std@@@1@$$QEAU21@$$QEAV?$allocator@U?$_Tree_node@U?$pair@$$CBV?$basic_string@DU?$char_traits@D@std@@V?$allocator@D@2@@std@@_K@std@@PEAX@std@@@1@@Z
	??$?0U?$less@V?$basic_string@DU?$char_traits@D@std@@V?$allocator@D@2@@std@@@std@@U_One_then_variadic_args_t@1@V?$allocator@U?$_Tree_node@V?$basic_string@DU?$char_traits@D@std@@V?$allocator@D@2@@std@@PEAX@std@@@1@@?$_Compressed_pair@U?$less@V?$basic_string@DU?$char_traits@D@std@@V?$allocator@D@2@@std@@@std@@V?$_Compressed_pair@V?$allocator@U?$_Tree_node@V?$basic_string@DU?$char_traits@D@std@@V?$allocator@D@2@@std@@PEAX@std@@@std@@V?$_Tree_val@U?$_Tree_simple_types@V?$basic_string@DU?$char_traits@D@std@@V?$allocator@D@2@@std@@@std@@@2@$00@2@$00@std@@QEAA@U_One_then_variadic_args_t@1@$$QEAU?$less@V?$basic_string@DU?$char_traits@D@std@@V?$allocator@D@2@@std@@@1@$$QEAU21@$$QEAV?$allocator@U?$_Tree_node@V?$basic_string@DU?$char_traits@D@std@@V?$allocator@D@2@@std@@PEAX@std@@@1@@Z
	??$?0U?$less@X@std@@U_One_then_variadic_args_t@1@V?$allocator@U?$_Tree_node@U?$pair@$$CBV?$basic_string@DU?$char_traits@D@std@@V?$allocator@D@2@@std@@V?$basic_json@Vmap@std@@Vvector@2@V?$basic_string@DU?$char_traits@D@std@@V?$allocator@D@2@@2@_N_J_KNVallocator@2@Uadl_serializer@json_abi_v3_11_2@nlohmann@@V?$vector@EV?$allocator@E@std@@@2@@json_abi_v3_11_2@nlohmann@@@std@@PEAX@std@@@1@@?$_Compressed_pair@U?$less@X@std@@V?$_Compressed_pair@V?$allocator@U?$_Tree_node@U?$pair@$$CBV?$basic_string@DU?$char_traits@D@std@@V?$allocator@D@2@@std@@V?$basic_json@Vmap@std@@Vvector@2@V?$basic_string@DU?$char_traits@D@std@@V?$allocator@D@2@@2@_N_J_KNVallocator@2@Uadl_serializer@json_abi_v3_11_2@nlohmann@@V?$vector@EV?$allocator@E@std@@@2@@json_abi_v3_11_2@nlohmann@@@std@@PEAX@std@@@std@@V?$_Tree_val@U?$_Tree_simple_types@U?$pair@$$CBV?$basic_string@DU?$char_traits@D@std@@V?$allocator@D@2@@std@@V?$basic_json@Vmap@std@@Vvector@2@V?$basic_string@DU?$char_traits@D@std@@V?$allocator@D@2@@2@_N_J_KNVallocator@2@Uadl_serializer@json_abi_v3_11_2@nlohmann@@V?$vector@EV?$allocator@E@std@@@2@@json_abi_v3_11_2@nlohmann@@@std@@@std@@@2@$00@2@$00@std@@QEAA@U_One_then_variadic_args_t@1@$$QEAU?$less@X@1@$$QEAU21@$$QEAV?$allocator@U?$_Tree_node@U?$pair@$$CBV?$basic_string@DU?$char_traits@D@std@@V?$allocator@D@2@@std@@V?$basic_json@Vmap@std@@Vvector@2@V?$basic_string@DU?$char_traits@D@std@@V?$allocator@D@2@@2@_N_J_KNVallocator@2@Uadl_serializer@json_abi_v3_11_2@nlohmann@@V?$vector@EV?$allocator@E@std@@@2@@json_abi_v3_11_2@nlohmann@@@std@@PEAX@std@@@1@@Z
	??$?0U?$pair@$$CBV?$basic_string@DU?$char_traits@D@std@@V?$allocator@D@2@@std@@V12@@std@@@?$allocator@U?$_List_node@U?$pair@$$CBV?$basic_string@DU?$char_traits@D@std@@V?$allocator@D@2@@std@@V12@@std@@PEAX@std@@@std@@QEAA@AEBV?$allocator@U?$pair@$$CBV?$basic_string@DU?$char_traits@D@std@@V?$allocator@D@2@@std@@V12@@std@@@1@@Z
	??$?0U?$pair@$$CBV?$basic_string@DU?$char_traits@D@std@@V?$allocator@D@2@@std@@V12@@std@@@?$allocator@V?$_List_unchecked_iterator@V?$_List_val@U?$_List_simple_types@U?$pair@$$CBV?$basic_string@DU?$char_traits@D@std@@V?$allocator@D@2@@std@@V12@@std@@@std@@@std@@@std@@@std@@QEAA@AEBV?$allocator@U?$pair@$$CBV?$basic_string@DU?$char_traits@D@std@@V?$allocator@D@2@@std@@V12@@std@@@1@@Z
	??$?0U?$pair@$$CBV?$basic_string@DU?$char_traits@D@std@@V?$allocator@D@2@@std@@V?$unique_ptr@Uany_storage@detail@httplib@@U?$default_delete@Uany_storage@detail@httplib@@@std@@@2@@std@@@?$allocator@U?$_List_node@U?$pair@$$CBV?$basic_string@DU?$char_traits@D@std@@V?$allocator@D@2@@std@@V?$unique_ptr@Uany_storage@detail@httplib@@U?$default_delete@Uany_storage@detail@httplib@@@std@@@2@@std@@PEAX@std@@@std@@QEAA@AEBV?$allocator@U?$pair@$$CBV?$basic_string@DU?$char_traits@D@std@@V?$allocator@D@2@@std@@V?$unique_ptr@Uany_storage@detail@httplib@@U?$default_delete@Uany_storage@detail@httplib@@@std@@@2@@std@@@1@@Z
	??$?0U?$pair@$$CBV?$basic_string@DU?$char_traits@D@std@@V?$allocator@D@2@@std@@V?$unique_ptr@Uany_storage@detail@httplib@@U?$default_delete@Uany_storage@detail@httplib@@@std@@@2@@std@@@?$allocator@V?$_List_unchecked_iterator@V?$_List_val@U?$_List_simple_types@U?$pair@$$CBV?$basic_string@DU?$char_traits@D@std@@V?$allocator@D@2@@std@@V?$unique_ptr@Uany_storage@detail@httplib@@U?$default_delete@Uany_storage@detail@httplib@@@std@@@2@@std@@@std@@@std@@@std@@@std@@QEAA@AEBV?$allocator@U?$pair@$$CBV?$basic_string@DU?$char_traits@D@std@@V?$allocator@D@2@@std@@V?$unique_ptr@Uany_storage@detail@httplib@@U?$default_delete@Uany_storage@detail@httplib@@@std@@@2@@std@@@1@@Z
	??$?0U?$pair@V?$basic_string@DU?$char_traits@D@std@@V?$allocator@D@2@@std@@V12@@std@@@?$_List_node_emplace_op2@V?$allocator@U?$_List_node@U?$pair@$$CBV?$basic_string@DU?$char_traits@D@std@@V?$allocator@D@2@@std@@V12@@std@@PEAX@std@@@std@@@std@@QEAA@AEAV?$allocator@U?$_List_node@U?$pair@$$CBV?$basic_string@DU?$char_traits@D@std@@V?$allocator@D@2@@std@@V12@@std@@PEAX@std@@@1@$$QEAU?$pair@V?$basic_string@DU?$char_traits@D@std@@V?$allocator@D@2@@std@@V12@@1@@Z
	??$?0U?$pair@_J_J@std@@@?$allocator@U_Container_proxy@std@@@std@@QEAA@AEBV?$allocator@U?$pair@_J_J@std@@@1@@Z
	??$?0UAbiFunction@phase2@midnight@@@?$allocator@U_Container_proxy@std@@@std@@QEAA@AEBV?$allocator@UAbiFunction@phase2@midnight@@@1@@Z
	??$?0UAbiParam@phase2@midnight@@@?$allocator@U_Container_proxy@std@@@std@@QEAA@AEBV?$allocator@UAbiParam@phase2@midnight@@@1@@Z
	??$?0UAccountBalance@phase3@midnight@@$0A@@?$optional@UAccountBalance@phase3@midnight@@@std@@QEAA@$$QEAUAccountBalance@phase3@midnight@@@Z
	??$?0UAccountBalance@phase3@midnight@@@?$_Non_trivial_copy@U?$_Optional_construct_base@UAccountBalance@phase3@midnight@@@std@@@std@@QEAA@Uin_place_t@1@$$QEAUAccountBalance@phase3@midnight@@@Z
	??$?0UAccountBalance@phase3@midnight@@@?$_Non_trivial_copy_assign@U?$_Optional_construct_base@UAccountBalance@phase3@midnight@@@std@@UAccountBalance@phase3@midnight@@@std@@QEAA@Uin_place_t@1@$$QEAUAccountBalance@phase3@midnight@@@Z
	??$?0UAccountBalance@phase3@midnight@@@?$_Non_trivial_move@U?$_Optional_construct_base@UAccountBalance@phase3@midnight@@@std@@UAccountBalance@phase3@midnight@@@std@@QEAA@Uin_place_t@1@$$QEAUAccountBalance@phase3@midnight@@@Z
	??$?0UAccountBalance@phase3@midnight@@@?$_Non_trivial_move_assign@U?$_Optional_construct_base@UAccountBalance@phase3@midnight@@@std@@UAccountBalance@phase3@midnight@@@std@@QEAA@Uin_place_t@1@$$QEAUAccountBalance@phase3@midnight@@@Z
	??$?0UAccountBalance@phase3@midnight@@@?$_Optional_construct_base@UAccountBalance@phase3@midnight@@@std@@QEAA@Uin_place_t@1@$$QEAUAccountBalance@phase3@midnight@@@Z
	??$?0UAccountBalance@phase3@midnight@@@?$_Optional_destruct_base@UAccountBalance@phase3@midnight@@$0A@@std@@QEAA@Uin_place_t@1@$$QEAUAccountBalance@phase3@midnight@@@Z
	??$?0UBlockEvent@zk@midnight@@@?$allocator@U_Container_proxy@std@@@std@@QEAA@AEBV?$allocator@UBlockEvent@zk@midnight@@@1@@Z
	??$?0UCertificate@Transaction@blockchain@midnight@@@?$allocator@U_Container_proxy@std@@@std@@QEAA@AEBV?$allocator@UCertificate@Transaction@blockchain@midnight@@@1@@Z
	??$?0UCompactAbi@phase2@midnight@@$0A@@?$optional@UCompactAbi@phase2@midnight@@@std@@QEAA@$$QEAUCompactAbi@phase2@midnight@@@Z
	??$?0UCompactAbi@phase2@midnight@@@?$_Non_trivial_copy@U?$_Optional_construct_base@UCompactAbi@phase2@midnight@@@std@@@std@@QEAA@Uin_place_t@1@$$QEAUCompactAbi@phase2@midnight@@@Z
	??$?0UCompactAbi@phase2@midnight@@@?$_Non_trivial_copy_assign@U?$_Optional_construct_base@UCompactAbi@phase2@midnight@@@std@@UCompactAbi@phase2@midnight@@@std@@QEAA@Uin_place_t@1@$$QEAUCompactAbi@phase2@midnight@@@Z
	??$?0UCompactAbi@phase2@midnight@@@?$_Non_trivial_move@U?$_Optional_construct_base@UCompactAbi@phase2@midnight@@@std@@UCompactAbi@phase2@midnight@@@std@@QEAA@Uin_place_t@1@$$QEAUCompactAbi@phase2@midnight@@@Z
	??$?0UCompactAbi@phase2@midnight@@@?$_Non_trivial_move_assign@U?$_Optional_construct_base@UCompactAbi@phase2@midnight@@@std@@UCompactAbi@phase2@midnight@@@std@@QEAA@Uin_place_t@1@$$QEAUCompactAbi@phase2@midnight@@@Z
	??$?0UCompactAbi@phase2@midnight@@@?$_Optional_construct_base@UCompactAbi@phase2@midnight@@@std@@QEAA@Uin_place_t@1@$$QEAUCompactAbi@phase2@midnight@@@Z
	??$?0UCompactAbi@phase2@midnight@@@?$_Optional_destruct_base@UCompactAbi@phase2@midnight@@$0A@@std@@QEAA@Uin_place_t@1@$$QEAUCompactAbi@phase2@midnight@@@Z
	??$?0UCompiledContract@phase2@midnight@@$0A@@?$optional@UCompiledContract@phase2@midnight@@@std@@QEAA@$$QEAUCompiledContract@phase2@midnight@@@Z
	??$?0UCompiledContract@phase2@midnight@@@?$_Non_trivial_copy@U?$_Optional_construct_base@UCompiledContract@phase2@midnight@@@std@@@std@@QEAA@Uin_place_t@1@$$QEAUCompiledContract@phase2@midnight@@@Z
	??$?0UCompiledContract@phase2@midnight@@@?$_Non_trivial_copy_assign@U?$_Optional_construct_base@UCompiledContract@phase2@midnight@@@std@@UCompiledContract@phase2@midnight@@@std@@QEAA@Uin_place_t@1@$$QEAUCompiledContract@phase2@midnight@@@Z
	??$?0UCompiledContract@phase2@midnight@@@?$_Non_trivial_move@U?$_Optional_construct_base@UCompiledContract@phase2@midnight@@@std@@UCompiledContract@phase2@midnight@@@std@@QEAA@Uin_place_t@1@$$QEAUCompiledContract@phase2@midnight@@@Z
	??$?0UCompiledContract@phase2@midnight@@@?$_Non_trivial_move_assign@U?$_Optional_construct_base@UCompiledContract@phase2@midnight@@@std@@UCompiledContract@phase2@midnight@@@std@@QEAA@Uin_place_t@1@$$QEAUCompiledContract@phase2@midnight@@@Z
	??$?0UCompiledContract@phase2@midnight@@@?$_Optional_construct_base@UCompiledContract@phase2@midnight@@@std@@QEAA@Uin_place_t@1@$$QEAUCompiledContract@phase2@midnight@@@Z
	??$?0UCompiledContract@phase2@midnight@@@?$_Optional_destruct_base@UCompiledContract@phase2@midnight@@$0A@@std@@QEAA@Uin_place_t@1@$$QEAUCompiledContract@phase2@midnight@@@Z
	??$?0UContractState@phase2@midnight@@$0A@@?$optional@UContractState@phase2@midnight@@@std@@QEAA@$$QEAUContractState@phase2@midnight@@@Z
	??$?0UContractState@phase2@midnight@@@?$_Non_trivial_copy@U?$_Optional_construct_base@UContractState@phase2@midnight@@@std@@@std@@QEAA@Uin_place_t@1@$$QEAUContractState@phase2@midnight@@@Z
	??$?0UContractState@phase2@midnight@@@?$_Non_trivial_copy_assign@U?$_Optional_construct_base@UContractState@phase2@midnight@@@std@@UContractState@phase2@midnight@@@std@@QEAA@Uin_place_t@1@$$QEAUContractState@phase2@midnight@@@Z
	??$?0UContractState@phase2@midnight@@@?$_Non_trivial_move@U?$_Optional_construct_base@UContractState@phase2@midnight@@@std@@UContractState@phase2@midnight@@@std@@QEAA@Uin_place_t@1@$$QEAUContractState@phase2@midnight@@@Z
	??$?0UContractState@phase2@midnight@@@?$_Non_trivial_move_assign@U?$_Optional_construct_base@UContractState@phase2@midnight@@@std@@UContractState@phase2@midnight@@@std@@QEAA@Uin_place_t@1@$$QEAUContractState@phase2@midnight@@@Z
	??$?0UContractState@phase2@midnight@@@?$_Optional_construct_base@UContractState@phase2@midnight@@@std@@QEAA@Uin_place_t@1@$$QEAUContractState@phase2@midnight@@@Z
	??$?0UContractState@phase2@midnight@@@?$_Optional_destruct_base@UContractState@phase2@midnight@@$0A@@std@@QEAA@Uin_place_t@1@$$QEAUContractState@phase2@midnight@@@Z
	??$?0UContractState@zk@midnight@@@?$allocator@U_Container_proxy@std@@@std@@QEAA@AEBV?$allocator@UContractState@zk@midnight@@@1@@Z
	??$?0UDeploymentInfo@ContractQueryEngine@phase2@midnight@@$0A@@?$optional@UDeploymentInfo@ContractQueryEngine@phase2@midnight@@@std@@QEAA@$$QEAUDeploymentInfo@ContractQueryEngine@phase2@midnight@@@Z
	??$?0UDeploymentInfo@ContractQueryEngine@phase2@midnight@@@?$_Non_trivial_copy@U?$_Optional_construct_base@UDeploymentInfo@ContractQueryEngine@phase2@midnight@@@std@@@std@@QEAA@Uin_place_t@1@$$QEAUDeploymentInfo@ContractQueryEngine@phase2@midnight@@@Z
	??$?0UDeploymentInfo@ContractQueryEngine@phase2@midnight@@@?$_Non_trivial_copy_assign@U?$_Optional_construct_base@UDeploymentInfo@ContractQueryEngine@phase2@midnight@@@std@@UDeploymentInfo@ContractQueryEngine@phase2@midnight@@@std@@QEAA@Uin_place_t@1@$$QEAUDeploymentInfo@ContractQueryEngine@phase2@midnight@@@Z
	??$?0UDeploymentInfo@ContractQueryEngine@phase2@midnight@@@?$_Non_trivial_move@U?$_Optional_construct_base@UDeploymentInfo@ContractQueryEngine@phase2@midnight@@@std@@UDeploymentInfo@ContractQueryEngine@phase2@midnight@@@std@@QEAA@Uin_place_t@1@$$QEAUDeploymentInfo@ContractQueryEngine@phase2@midnight@@@Z
	??$?0UDeploymentInfo@ContractQueryEngine@phase2@midnight@@@?$_Non_trivial_move_assign@U?$_Optional_construct_base@UDeploymentInfo@ContractQueryEngine@phase2@midnight@@@std@@UDeploymentInfo@ContractQueryEngine@phase2@midnight@@@std@@QEAA@Uin_place_t@1@$$QEAUDeploymentInfo@ContractQueryEngine@phase2@midnight@@@Z
	??$?0UDeploymentInfo@ContractQueryEngine@phase2@midnight@@@?$_Optional_construct_base@UDeploymentInfo@ContractQueryEngine@phase2@midnight@@@std@@QEAA@Uin_place_t@1@$$QEAUDeploymentInfo@ContractQueryEngine@phase2@midnight@@@Z
	??$?0UDeploymentInfo@ContractQueryEngine@phase2@midnight@@@?$_Optional_destruct_base@UDeploymentInfo@ContractQueryEngine@phase2@midnight@@$0A@@std@@QEAA@Uin_place_t@1@$$QEAUDeploymentInfo@ContractQueryEngine@phase2@midnight@@@Z
	??$?0UDeploymentStatus@ContractDeployer@phase2@midnight@@$0A@@?$optional@UDeploymentStatus@ContractDeployer@phase2@midnight@@@std@@QEAA@$$QEAUDeploymentStatus@ContractDeployer@phase2@midnight@@@Z
	??$?0UDeploymentStatus@ContractDeployer@phase2@midnight@@@?$_Non_trivial_copy@U?$_Optional_construct_base@UDeploymentStatus@ContractDeployer@phase2@midnight@@@std@@@std@@QEAA@Uin_place_t@1@$$QEAUDeploymentStatus@ContractDeployer@phase2@midnight@@@Z
	??$?0UDeploymentStatus@ContractDeployer@phase2@midnight@@@?$_Non_trivial_copy_assign@U?$_Optional_construct_base@UDeploymentStatus@ContractDeployer@phase2@midnight@@@std@@UDeploymentStatus@ContractDeployer@phase2@midnight@@@std@@QEAA@Uin_place_t@1@$$QEAUDeploymentStatus@ContractDeployer@phase2@midnight@@@Z
	??$?0UDeploymentStatus@ContractDeployer@phase2@midnight@@@?$_Non_trivial_move@U?$_Optional_construct_base@UDeploymentStatus@ContractDeployer@phase2@midnight@@@std@@UDeploymentStatus@ContractDeployer@phase2@midnight@@@std@@QEAA@Uin_place_t@1@$$QEAUDeploymentStatus@ContractDeployer@phase2@midnight@@@Z
	??$?0UDeploymentStatus@ContractDeployer@phase2@midnight@@@?$_Non_trivial_move_assign@U?$_Optional_construct_base@UDeploymentStatus@ContractDeployer@phase2@midnight@@@std@@UDeploymentStatus@ContractDeployer@phase2@midnight@@@std@@QEAA@Uin_place_t@1@$$QEAUDeploymentStatus@ContractDeployer@phase2@midnight@@@Z
	??$?0UDeploymentStatus@ContractDeployer@phase2@midnight@@@?$_Optional_construct_base@UDeploymentStatus@ContractDeployer@phase2@midnight@@@std@@QEAA@Uin_place_t@1@$$QEAUDeploymentStatus@ContractDeployer@phase2@midnight@@@Z
	??$?0UDeploymentStatus@ContractDeployer@phase2@midnight@@@?$_Optional_destruct_base@UDeploymentStatus@ContractDeployer@phase2@midnight@@$0A@@std@@QEAA@Uin_place_t@1@$$QEAUDeploymentStatus@ContractDeployer@phase2@midnight@@@Z
	??$?0UInput@Transaction@blockchain@midnight@@@?$allocator@U_Container_proxy@std@@@std@@QEAA@AEBV?$allocator@UInput@Transaction@blockchain@midnight@@@1@@Z
	??$?0UKeypair@phase5@midnight@@$0A@@?$optional@UKeypair@phase5@midnight@@@std@@QEAA@$$QEAUKeypair@phase5@midnight@@@Z
	??$?0UKeypair@phase5@midnight@@@?$_Non_trivial_copy@U?$_Optional_construct_base@UKeypair@phase5@midnight@@@std@@@std@@QEAA@Uin_place_t@1@$$QEAUKeypair@phase5@midnight@@@Z
	??$?0UKeypair@phase5@midnight@@@?$_Non_trivial_copy_assign@U?$_Optional_construct_base@UKeypair@phase5@midnight@@@std@@UKeypair@phase5@midnight@@@std@@QEAA@Uin_place_t@1@$$QEAUKeypair@phase5@midnight@@@Z
	??$?0UKeypair@phase5@midnight@@@?$_Non_trivial_move@U?$_Optional_construct_base@UKeypair@phase5@midnight@@@std@@UKeypair@phase5@midnight@@@std@@QEAA@Uin_place_t@1@$$QEAUKeypair@phase5@midnight@@@Z
	??$?0UKeypair@phase5@midnight@@@?$_Non_trivial_move_assign@U?$_Optional_construct_base@UKeypair@phase5@midnight@@@std@@UKeypair@phase5@midnight@@@std@@QEAA@Uin_place_t@1@$$QEAUKeypair@phase5@midnight@@@Z
	??$?0UKeypair@phase5@midnight@@@?$_Optional_construct_base@UKeypair@phase5@midnight@@@std@@QEAA@Uin_place_t@1@$$QEAUKeypair@phase5@midnight@@@Z
	??$?0UKeypair@phase5@midnight@@@?$_Optional_destruct_base@UKeypair@phase5@midnight@@$0A@@std@@QEAA@Uin_place_t@1@$$QEAUKeypair@phase5@midnight@@@Z
	??$?0UOutput@Transaction@blockchain@midnight@@@?$allocator@U_Container_proxy@std@@@std@@QEAA@AEBV?$allocator@UOutput@Transaction@blockchain@midnight@@@1@@Z
	??$?0UProofGenResult@phase4@midnight@@$0A@@?$optional@UProofGenResult@phase4@midnight@@@std@@QEAA@$$QEAUProofGenResult@phase4@midnight@@@Z
	??$?0UProofGenResult@phase4@midnight@@@?$_Non_trivial_copy@U?$_Optional_construct_base@UProofGenResult@phase4@midnight@@@std@@@std@@QEAA@Uin_place_t@1@$$QEAUProofGenResult@phase4@midnight@@@Z
	??$?0UProofGenResult@phase4@midnight@@@?$_Non_trivial_copy_assign@U?$_Optional_construct_base@UProofGenResult@phase4@midnight@@@std@@UProofGenResult@phase4@midnight@@@std@@QEAA@Uin_place_t@1@$$QEAUProofGenResult@phase4@midnight@@@Z
	??$?0UProofGenResult@phase4@midnight@@@?$_Non_trivial_move@U?$_Optional_construct_base@UProofGenResult@phase4@midnight@@@std@@UProofGenResult@phase4@midnight@@@std@@QEAA@Uin_place_t@1@$$QEAUProofGenResult@phase4@midnight@@@Z
	??$?0UProofGenResult@phase4@midnight@@@?$_Non_trivial_move_assign@U?$_Optional_construct_base@UProofGenResult@phase4@midnight@@@std@@UProofGenResult@phase4@midnight@@@std@@QEAA@Uin_place_t@1@$$QEAUProofGenResult@phase4@midnight@@@Z
	??$?0UProofGenResult@phase4@midnight@@@?$_Optional_construct_base@UProofGenResult@phase4@midnight@@@std@@QEAA@Uin_place_t@1@$$QEAUProofGenResult@phase4@midnight@@@Z
	??$?0UProofGenResult@phase4@midnight@@@?$_Optional_destruct_base@UProofGenResult@phase4@midnight@@$0A@@std@@QEAA@Uin_place_t@1@$$QEAUProofGenResult@phase4@midnight@@@Z
	??$?0UQueuedRequest@ProofServerResilientClient@zk@midnight@@@?$allocator@PEAUQueuedRequest@ProofServerResilientClient@zk@midnight@@@std@@QEAA@AEBV?$allocator@UQueuedRequest@ProofServerResilientClient@zk@midnight@@@1@@Z
	??$?0UQueuedRequest@ProofServerResilientClient@zk@midnight@@@?$allocator@U_Container_proxy@std@@@std@@QEAA@AEBV?$allocator@UQueuedRequest@ProofServerResilientClient@zk@midnight@@@1@@Z
	??$?0UReorgEvent@phase6@midnight@@$0A@@?$optional@UReorgEvent@phase6@midnight@@@std@@QEAA@$$QEAUReorgEvent@phase6@midnight@@@Z
	??$?0UReorgEvent@phase6@midnight@@@?$_Non_trivial_copy@U?$_Optional_construct_base@UReorgEvent@phase6@midnight@@@std@@@std@@QEAA@Uin_place_t@1@$$QEAUReorgEvent@phase6@midnight@@@Z
	??$?0UReorgEvent@phase6@midnight@@@?$_Non_trivial_copy_assign@U?$_Optional_construct_base@UReorgEvent@phase6@midnight@@@std@@UReorgEvent@phase6@midnight@@@std@@QEAA@Uin_place_t@1@$$QEAUReorgEvent@phase6@midnight@@@Z
	??$?0UReorgEvent@phase6@midnight@@@?$_Non_trivial_move@U?$_Optional_construct_base@UReorgEvent@phase6@midnight@@@std@@UReorgEvent@phase6@midnight@@@std@@QEAA@Uin_place_t@1@$$QEAUReorgEvent@phase6@midnight@@@Z
	??$?0UReorgEvent@phase6@midnight@@@?$_Non_trivial_move_assign@U?$_Optional_construct_base@UReorgEvent@phase6@midnight@@@std@@UReorgEvent@phase6@midnight@@@std@@QEAA@Uin_place_t@1@$$QEAUReorgEvent@phase6@midnight@@@Z
	??$?0UReorgEvent@phase6@midnight@@@?$_Optional_construct_base@UReorgEvent@phase6@midnight@@@std@@QEAA@Uin_place_t@1@$$QEAUReorgEvent@phase6@midnight@@@Z
	??$?0UReorgEvent@phase6@midnight@@@?$_Optional_destruct_base@UReorgEvent@phase6@midnight@@$0A@@std@@QEAA@Uin_place_t@1@$$QEAUReorgEvent@phase6@midnight@@@Z
	??$?0USignedTransaction@phase5@midnight@@$0A@@?$optional@USignedTransaction@phase5@midnight@@@std@@QEAA@$$QEAUSignedTransaction@phase5@midnight@@@Z
	??$?0USignedTransaction@phase5@midnight@@@?$_Non_trivial_copy@U?$_Optional_construct_base@USignedTransaction@phase5@midnight@@@std@@@std@@QEAA@Uin_place_t@1@$$QEAUSignedTransaction@phase5@midnight@@@Z
	??$?0USignedTransaction@phase5@midnight@@@?$_Non_trivial_copy_assign@U?$_Optional_construct_base@USignedTransaction@phase5@midnight@@@std@@USignedTransaction@phase5@midnight@@@std@@QEAA@Uin_place_t@1@$$QEAUSignedTransaction@phase5@midnight@@@Z
	??$?0USignedTransaction@phase5@midnight@@@?$_Non_trivial_move@U?$_Optional_construct_base@USignedTransaction@phase5@midnight@@@std@@USignedTransaction@phase5@midnight@@@std@@QEAA@Uin_place_t@1@$$QEAUSignedTransaction@phase5@midnight@@@Z
	??$?0USignedTransaction@phase5@midnight@@@?$_Non_trivial_move_assign@U?$_Optional_construct_base@USignedTransaction@phase5@midnight@@@std@@USignedTransaction@phase5@midnight@@@std@@QEAA@Uin_place_t@1@$$QEAUSignedTransaction@phase5@midnight@@@Z
	??$?0USignedTransaction@phase5@midnight@@@?$_Optional_construct_base@USignedTransaction@phase5@midnight@@@std@@QEAA@Uin_place_t@1@$$QEAUSignedTransaction@phase5@midnight@@@Z
	??$?0USignedTransaction@phase5@midnight@@@?$_Optional_destruct_base@USignedTransaction@phase5@midnight@@$0A@@std@@QEAA@Uin_place_t@1@$$QEAUSignedTransaction@phase5@midnight@@@Z
	??$?0USubmissionResult@phase5@midnight@@@?$allocator@U_Container_proxy@std@@@std@@QEAA@AEBV?$allocator@USubmissionResult@phase5@midnight@@@1@@Z
	??$?0USyncResult@zk@midnight@@@?$allocator@U_Container_proxy@std@@@std@@QEAA@AEBV?$allocator@USyncResult@zk@midnight@@@1@@Z
	??$?0UUTXO@blockchain@midnight@@@?$allocator@U_Container_proxy@std@@@std@@QEAA@AEBV?$allocator@UUTXO@blockchain@midnight@@@1@@Z
	??$?0UUtxo@phase3@midnight@@$0A@@?$optional@UUtxo@phase3@midnight@@@std@@QEAA@$$QEAUUtxo@phase3@midnight@@@Z
	??$?0UUtxo@phase3@midnight@@@?$_Non_trivial_copy@U?$_Optional_construct_base@UUtxo@phase3@midnight@@@std@@@std@@QEAA@Uin_place_t@1@$$QEAUUtxo@phase3@midnight@@@Z
	??$?0UUtxo@phase3@midnight@@@?$_Non_trivial_copy_assign@U?$_Optional_construct_base@UUtxo@phase3@midnight@@@std@@UUtxo@phase3@midnight@@@std@@QEAA@Uin_place_t@1@$$QEAUUtxo@phase3@midnight@@@Z
	??$?0UUtxo@phase3@midnight@@@?$_Non_trivial_move@U?$_Optional_construct_base@UUtxo@phase3@midnight@@@std@@UUtxo@phase3@midnight@@@std@@QEAA@Uin_place_t@1@$$QEAUUtxo@phase3@midnight@@@Z
	??$?0UUtxo@phase3@midnight@@@?$_Non_trivial_move_assign@U?$_Optional_construct_base@UUtxo@phase3@midnight@@@std@@UUtxo@phase3@midnight@@@std@@QEAA@Uin_place_t@1@$$QEAUUtxo@phase3@midnight@@@Z
	??$?0UUtxo@phase3@midnight@@@?$_Optional_construct_base@UUtxo@phase3@midnight@@@std@@QEAA@Uin_place_t@1@$$QEAUUtxo@phase3@midnight@@@Z
	??$?0UUtxo@phase3@midnight@@@?$_Optional_destruct_base@UUtxo@phase3@midnight@@$0A@@std@@QEAA@Uin_place_t@1@$$QEAUUtxo@phase3@midnight@@@Z
	??$?0UUtxo@phase3@midnight@@@?$allocator@U_Container_proxy@std@@@std@@QEAA@AEBV?$allocator@UUtxo@phase3@midnight@@@1@@Z
	??$?0UUtxoInput@phase3@midnight@@@?$allocator@U_Container_proxy@std@@@std@@QEAA@AEBV?$allocator@UUtxoInput@phase3@midnight@@@1@@Z
	??$?0UUtxoOutput@phase3@midnight@@@?$allocator@U_Container_proxy@std@@@std@@QEAA@AEBV?$allocator@UUtxoOutput@phase3@midnight@@@1@@Z
	??$?0UZkProof@phase4@midnight@@_K$0A@@?$pair@UZkProof@phase4@midnight@@_K@std@@QEAA@XZ
	??$?0U_Exact_args_t@std@@$0A@@?$tuple@$$V@std@@QEAA@U_Exact_args_t@1@@Z
	??$?0U_Exact_args_t@std@@AEBV?$basic_string@DU?$char_traits@D@std@@V?$allocator@D@2@@1@$$V$0A@@?$tuple@AEBV?$basic_string@DU?$char_traits@D@std@@V?$allocator@D@2@@std@@@std@@QEAA@U_Exact_args_t@1@AEBV?$basic_string@DU?$char_traits@D@std@@V?$allocator@D@2@@1@@Z
	??$?0U_Exact_args_t@std@@AEBV?$vector@EV?$allocator@E@std@@@1@AEB_KAEB_N$0A@@?$tuple@AEBV?$vector@EV?$allocator@E@std@@@std@@AEB_KAEB_N@std@@QEAA@U_Exact_args_t@1@AEBV?$vector@EV?$allocator@E@std@@@1@AEB_KAEB_N@Z
	??$?0U_Exact_args_t@std@@AEB_KAEB_N$0A@@?$tuple@AEB_KAEB_N@std@@QEAA@U_Exact_args_t@1@AEB_KAEB_N@Z
	??$?0U_Exact_args_t@std@@AEB_N$$V$0A@@?$tuple@AEB_N@std@@QEAA@U_Exact_args_t@1@AEB_N@Z
	??$?0U_Exact_args_t@std@@V?$basic_string@DU?$char_traits@D@std@@V?$allocator@D@2@@1@$$V$0A@@?$tuple@$$QEAV?$basic_string@DU?$char_traits@D@std@@V?$allocator@D@2@@std@@@std@@QEAA@U_Exact_args_t@1@$$QEAV?$basic_string@DU?$char_traits@D@std@@V?$allocator@D@2@@1@@Z
	??$?0U_Grp_t@?$_Tgt_state_t@PEBD@std@@@?$allocator@U_Container_proxy@std@@@std@@QEAA@AEBV?$allocator@U_Grp_t@?$_Tgt_state_t@PEBD@std@@@1@@Z
	??$?0U_Grp_t@?$_Tgt_state_t@V?$_String_const_iterator@V?$_String_val@U?$_Simple_types@D@std@@@std@@@std@@@std@@@?$allocator@U_Container_proxy@std@@@std@@QEAA@AEBV?$allocator@U_Grp_t@?$_Tgt_state_t@V?$_String_const_iterator@V?$_String_val@U?$_Simple_types@D@std@@@std@@@std@@@std@@@1@@Z
	??$?0U_Loop_vals_v2_t@std@@@?$allocator@U_Container_proxy@std@@@std@@QEAA@AEBV?$allocator@U_Loop_vals_v2_t@std@@@1@@Z
	??$?0U_Move_allocator_tag@std@@V?$allocator@U?$_List_node@U?$pair@$$CBV?$basic_string@DU?$char_traits@D@std@@V?$allocator@D@2@@std@@V12@@std@@PEAX@std@@@1@$0A@@?$list@U?$pair@$$CBV?$basic_string@DU?$char_traits@D@std@@V?$allocator@D@2@@std@@V12@@std@@V?$allocator@U?$pair@$$CBV?$basic_string@DU?$char_traits@D@std@@V?$allocator@D@2@@std@@V12@@std@@@2@@std@@AEAA@U_Move_allocator_tag@1@AEAV?$allocator@U?$_List_node@U?$pair@$$CBV?$basic_string@DU?$char_traits@D@std@@V?$allocator@D@2@@std@@V12@@std@@PEAX@std@@@1@@Z
	??$?0U_Zero_then_variadic_args_t@std@@M@?$_Compressed_pair@U?$hash@V?$basic_string@DU?$char_traits@D@std@@V?$allocator@D@2@@std@@@std@@V?$_Compressed_pair@U?$equal_to@V?$basic_string@DU?$char_traits@D@std@@V?$allocator@D@2@@std@@@std@@M$00@2@$00@std@@QEAA@U_Zero_then_variadic_args_t@1@$$QEAU21@$$QEAM@Z
	??$?0U_Zero_then_variadic_args_t@std@@M@?$_Compressed_pair@Uhash@case_ignore@detail@httplib@@V?$_Compressed_pair@Uequal_to@case_ignore@detail@httplib@@M$00@std@@$00@std@@QEAA@U_Zero_then_variadic_args_t@1@$$QEAU21@$$QEAM@Z
	??$?0V<lambda_1>@?0??connect_with_proxy@SSLClient@httplib@@AEAA_NAEAUSocket@ClientImpl@3@V?$time_point@Usteady_clock@chrono@std@@V?$duration@_JU?$ratio@$00$0DLJKMKAA@@std@@@23@@chrono@std@@AEAUResponse@3@AEA_NAEAW4Error@3@@Z@$0A@@?$_Func_impl_no_alloc@V<lambda_1>@?0??connect_with_proxy@SSLClient@httplib@@AEAA_NAEAUSocket@ClientImpl@4@V?$time_point@Usteady_clock@chrono@std@@V?$duration@_JU?$ratio@$00$0DLJKMKAA@@std@@@23@@chrono@std@@AEAUResponse@4@AEA_NAEAW4Error@4@@Z@_NAEAVStream@4@@std@@QEAA@$$QEAV<lambda_1>@?0??connect_with_proxy@SSLClient@httplib@@AEAA_NAEAUSocket@ClientImpl@5@V?$time_point@Usteady_clock@chrono@std@@V?$duration@_JU?$ratio@$00$0DLJKMKAA@@std@@@23@@chrono@1@AEAUResponse@5@AEA_NAEAW4Error@5@@Z@@Z
	??$?0V<lambda_1>@?0??connect_with_proxy@SSLClient@httplib@@AEAA_NAEAUSocket@ClientImpl@3@V?$time_point@Usteady_clock@chrono@std@@V?$duration@_JU?$ratio@$00$0DLJKMKAA@@std@@@23@@chrono@std@@AEAUResponse@3@AEA_NAEAW4Error@3@@Z@$0A@@?$function@$$A6A_NAEAVStream@httplib@@@Z@std@@QEAA@$$QEAV<lambda_1>@?0??connect_with_proxy@SSLClient@httplib@@AEAA_NAEAUSocket@ClientImpl@5@V?$time_point@Usteady_clock@chrono@std@@V?$duration@_JU?$ratio@$00$0DLJKMKAA@@std@@@23@@chrono@1@AEAUResponse@5@AEA_NAEAW4Error@5@@Z@@Z
	??$?0V<lambda_1>@?1???$create@V?$basic_string@DU?$char_traits@D@std@@V?$allocator@D@2@@std@@AEAY00$$CBD@?$basic_json@Vmap@std@@Vvector@2@V?$basic_string@DU?$char_traits@D@std@@V?$allocator@D@2@@2@_N_J_KNVallocator@2@Uadl_serializer@json_abi_v3_11_2@nlohmann@@V?$vector@EV?$allocator@E@std@@@2@@json_abi_v3_11_2@nlohmann@@CAPEAV?$basic_string@DU?$char_traits@D@std@@V?$allocator@D@2@@std@@AEAY00$$CBD@Z@$0A@@?$unique_ptr@V?$basic_string@DU?$char_traits@D@std@@V?$allocator@D@2@@std@@V<lambda_1>@?1???$create@V?$basic_string@DU?$char_traits@D@std@@V?$allocator@D@2@@std@@AEAY00$$CBD@?$basic_json@Vmap@std@@Vvector@2@V?$basic_string@DU?$char_traits@D@std@@V?$allocator@D@2@@2@_N_J_KNVallocator@2@Uadl_serializer@json_abi_v3_11_2@nlohmann@@V?$vector@EV?$allocator@E@std@@@2@@json_abi_v3_11_2@nlohmann@@CAPEAV12@AEAY00$$CBD@Z@@std@@QEAA@PEAV?$basic_string@DU?$char_traits@D@std@@V?$allocator@D@2@@1@AEBV<lambda_1>@?1???$create@V?$basic_string@DU?$char_traits@D@std@@V?$allocator@D@2@@std@@AEAY00$$CBD@?$basic_json@Vmap@std@@Vvector@2@V?$basic_string@DU?$char_traits@D@std@@V?$allocator@D@2@@2@_N_J_KNVallocator@2@Uadl_serializer@json_abi_v3_11_2@nlohmann@@V?$vector@EV?$allocator@E@std@@@2@@json_abi_v3_11_2@nlohmann@@CAPEAV21@AEAY00$$CBD@Z@@Z
	??$?0V<lambda_1>@?1???$create@V?$basic_string@DU?$char_traits@D@std@@V?$allocator@D@2@@std@@AEAY02$$CBD@?$basic_json@Vmap@std@@Vvector@2@V?$basic_string@DU?$char_traits@D@std@@V?$allocator@D@2@@2@_N_J_KNVallocator@2@Uadl_serializer@json_abi_v3_11_2@nlohmann@@V?$vector@EV?$allocator@E@std@@@2@@json_abi_v3_11_2@nlohmann@@CAPEAV?$basic_string@DU?$char_traits@D@std@@V?$allocator@D@2@@std@@AEAY02$$CBD@Z@$0A@@?$unique_ptr@V?$basic_string@DU?$char_traits@D@std@@V?$allocator@D@2@@std@@V<lambda_1>@?1???$create@V?$basic_string@DU?$char_traits@D@std@@V?$allocator@D@2@@std@@AEAY02$$CBD@?$basic_json@Vmap@std@@Vvector@2@V?$basic_string@DU?$char_traits@D@std@@V?$allocator@D@2@@2@_N_J_KNVallocator@2@Uadl_serializer@json_abi_v3_11_2@nlohmann@@V?$vector@EV?$allocator@E@std@@@2@@json_abi_v3_11_2@nlohmann@@CAPEAV12@AEAY02$$CBD@Z@@std@@QEAA@PEAV?$basic_string@DU?$char_traits@D@std@@V?$allocator@D@2@@1@AEBV<lambda_1>@?1???$create@V?$basic_string@DU?$char_traits@D@std@@V?$allocator@D@2@@std@@AEAY02$$CBD@?$basic_json@Vmap@std@@Vvector@2@V?$basic_string@DU?$char_traits@D@std@@V?$allocator@D@2@@2@_N_J_KNVallocator@2@Uadl_serializer@json_abi_v3_11_2@nlohmann@@V?$vector@EV?$allocator@E@std@@@2@@json_abi_v3_11_2@nlohmann@@CAPEAV21@AEAY02$$CBD@Z@@Z
	??$?0V<lambda_1>@?1???$create@V?$basic_string@DU?$char_traits@D@std@@V?$allocator@D@2@@std@@AEAY03$$CBD@?$basic_json@Vmap@std@@Vvector@2@V?$basic_string@DU?$char_traits@D@std@@V?$allocator@D@2@@2@_N_J_KNVallocator@2@Uadl_serializer@json_abi_v3_11_2@nlohmann@@V?$vector@EV?$allocator@E@std@@@2@@json_abi_v3_11_2@nlohmann@@CAPEAV?$basic_string@DU?$char_traits@D@std@@V?$allocator@D@2@@std@@AEAY03$$CBD@Z@$0A@@?$unique_ptr@V?$basic_string@DU?$char_traits@D@std@@V?$allocator@D@2@@std@@V<lambda_1>@?1???$create@V?$basic_string@DU?$char_traits@D@std@@V?$allocator@D@2@@std@@AEAY03$$CBD@?$basic_json@Vmap@std@@Vvector@2@V?$basic_string@DU?$char_traits@D@std@@V?$allocator@D@2@@2@_N_J_KNVallocator@2@Uadl_serializer@json_abi_v3_11_2@nlohmann@@V?$vector@EV?$allocator@E@std@@@2@@json_abi_v3_11_2@nlohmann@@CAPEAV12@AEAY03$$CBD@Z@@std@@QEAA@PEAV?$basic_string@DU?$char_traits@D@std@@V?$allocator@D@2@@1@AEBV<lambda_1>@?1???$create@V?$basic_string@DU?$char_traits@D@std@@V?$allocator@D@2@@std@@AEAY03$$CBD@?$basic_json@Vmap@std@@Vvector@2@V?$basic_string@DU?$char_traits@D@std@@V?$allocator@D@2@@2@_N_J_KNVallocator@2@Uadl_serializer@json_abi_v3_11_2@nlohmann@@V?$vector@EV?$allocator@E@std@@@2@@json_abi_v3_11_2@nlohmann@@CAPEAV21@AEAY03$$CBD@Z@@Z
	??$?0V<lambda_1>@?1???$create@V?$basic_string@DU?$char_traits@D@std@@V?$allocator@D@2@@std@@AEAY05$$CBD@?$basic_json@Vmap@std@@Vvector@2@V?$basic_string@DU?$char_traits@D@std@@V?$allocator@D@2@@2@_N_J_KNVallocator@2@Uadl_serializer@json_abi_v3_11_2@nlohmann@@V?$vector@EV?$allocator@E@std@@@2@@json_abi_v3_11_2@nlohmann@@CAPEAV?$basic_string@DU?$char_traits@D@std@@V?$allocator@D@2@@std@@AEAY05$$CBD@Z@$0A@@?$unique_ptr@V?$basic_string@DU?$char_traits@D@std@@V?$allocator@D@2@@std@@V<lambda_1>@?1???$create@V?$basic_string@DU?$char_traits@D@std@@V?$allocator@D@2@@std@@AEAY05$$CBD@?$basic_json@Vmap@std@@Vvector@2@V?$basic_string@DU?$char_traits@D@std@@V?$allocator@D@2@@2@_N_J_KNVallocator@2@Uadl_serializer@json_abi_v3_11_2@nlohmann@@V?$vector@EV?$allocator@E@std@@@2@@json_abi_v3_11_2@nlohmann@@CAPEAV12@AEAY05$$CBD@Z@@std@@QEAA@PEAV?$basic_string@DU?$char_traits@D@std@@V?$allocator@D@2@@1@AEBV<lambda_1>@?1???$create@V?$basic_string@DU?$char_traits@D@std@@V?$allocator@D@2@@std@@AEAY05$$CBD@?$basic_json@Vmap@std@@Vvector@2@V?$basic_string@DU?$char_traits@D@std@@V?$allocator@D@2@@2@_N_J_KNVallocator@2@Uadl_serializer@json_abi_v3_11_2@nlohmann@@V?$vector@EV?$allocator@E@std@@@2@@json_abi_v3_11_2@nlohmann@@CAPEAV21@AEAY05$$CBD@Z@@Z
	??$?0V<lambda_1>@?1???$create@V?$basic_string@DU?$char_traits@D@std@@V?$allocator@D@2@@std@@AEAY06$$CBD@?$basic_json@Vmap@std@@Vvector@2@V?$basic_string@DU?$char_traits@D@std@@V?$allocator@D@2@@2@_N_J_KNVallocator@2@Uadl_serializer@json_abi_v3_11_2@nlohmann@@V?$vector@EV?$allocator@E@std@@@2@@json_abi_v3_11_2@nlohmann@@CAPEAV?$basic_string@DU?$char_traits@D@std@@V?$allocator@D@2@@std@@AEAY06$$CBD@Z@$0A@@?$unique_ptr@V?$basic_string@DU?$char_traits@D@std@@V?$allocator@D@2@@std@@V<lambda_1>@?1???$create@V?$basic_string@DU?$char_traits@D@std@@V?$allocator@D@2@@std@@AEAY06$$CBD@?$basic_json@Vmap@std@@Vvector@2@V?$basic_string@DU?$char_traits@D@std@@V?$allocator@D@2@@2@_N_J_KNVallocator@2@Uadl_serializer@json_abi_v3_11_2@nlohmann@@V?$vector@EV?$allocator@E@std@@@2@@json_abi_v3_11_2@nlohmann@@CAPEAV12@AEAY06$$CBD@Z@@std@@QEAA@PEAV?$basic_string@DU?$char_traits@D@std@@V?$allocator@D@2@@1@AEBV<lambda_1>@?1???$create@V?$basic_string@DU?$char_traits@D@std@@V?$allocator@D@2@@std@@AEAY06$$CBD@?$basic_json@Vmap@std@@Vvector@2@V?$basic_string@DU?$char_traits@D@std@@V?$allocator@D@2@@2@_N_J_KNVallocator@2@Uadl_serializer@json_abi_v3_11_2@nlohmann@@V?$vector@EV?$allocator@E@std@@@2@@json_abi_v3_11_2@nlohmann@@CAPEAV21@AEAY06$$CBD@Z@@Z
	??$?0V<lambda_1>@?1???$create@V?$basic_string@DU?$char_traits@D@std@@V?$allocator@D@2@@std@@AEAY07$$CBD@?$basic_json@Vmap@std@@Vvector@2@V?$basic_string@DU?$char_traits@D@std@@V?$allocator@D@2@@2@_N_J_KNVallocator@2@Uadl_serializer@json_abi_v3_11_2@nlohmann@@V?$vector@EV?$allocator@E@std@@@2@@json_abi_v3_11_2@nlohmann@@CAPEAV?$basic_string@DU?$char_traits@D@std@@V?$allocator@D@2@@std@@AEAY07$$CBD@Z@$0A@@?$unique_ptr@V?$basic_string@DU?$char_traits@D@std@@V?$allocator@D@2@@std@@V<lambda_1>@?1???$create@V?$basic_string@DU?$char_traits@D@std@@V?$allocator@D@2@@std@@AEAY07$$CBD@?$basic_json@Vmap@std@@Vvector@2@V?$basic_string@DU?$char_traits@D@std@@V?$allocator@D@2@@2@_N_J_KNVallocator@2@Uadl_serializer@json_abi_v3_11_2@nlohmann@@V?$vector@EV?$allocator@E@std@@@2@@json_abi_v3_11_2@nlohmann@@CAPEAV12@AEAY07$$CBD@Z@@std@@QEAA@PEAV?$basic_string@DU?$char_traits@D@std@@V?$allocator@D@2@@1@AEBV<lambda_1>@?1???$create@V?$basic_string@DU?$char_traits@D@std@@V?$allocator@D@2@@std@@AEAY07$$CBD@?$basic_json@Vmap@std@@Vvector@2@V?$basic_string@DU?$char_traits@D@std@@V?$allocator@D@2@@2@_N_J_KNVallocator@2@Uadl_serializer@json_abi_v3_11_2@nlohmann@@V?$vector@EV?$allocator@E@std@@@2@@json_abi_v3_11_2@nlohmann@@CAPEAV21@AEAY07$$CBD@Z@@Z
	??$?0V<lambda_1>@?1???$create@V?$basic_string@DU?$char_traits@D@std@@V?$allocator@D@2@@std@@AEAY0BA@$$CBD@?$basic_json@Vmap@std@@Vvector@2@V?$basic_string@DU?$char_traits@D@std@@V?$allocator@D@2@@2@_N_J_KNVallocator@2@Uadl_serializer@json_abi_v3_11_2@nlohmann@@V?$vector@EV?$allocator@E@std@@@2@@json_abi_v3_11_2@nlohmann@@CAPEAV?$basic_string@DU?$char_traits@D@std@@V?$allocator@D@2@@std@@AEAY0BA@$$CBD@Z@$0A@@?$unique_ptr@V?$basic_string@DU?$char_traits@D@std@@V?$allocator@D@2@@std@@V<lambda_1>@?1???$create@V?$basic_string@DU?$char_traits@D@std@@V?$allocator@D@2@@std@@AEAY0BA@$$CBD@?$basic_json@Vmap@std@@Vvector@2@V?$basic_string@DU?$char_traits@D@std@@V?$allocator@D@2@@2@_N_J_KNVallocator@2@Uadl_serializer@json_abi_v3_11_2@nlohmann@@V?$vector@EV?$allocator@E@std@@@2@@json_abi_v3_11_2@nlohmann@@CAPEAV12@AEAY0BA@$$CBD@Z@@std@@QEAA@PEAV?$basic_string@DU?$char_traits@D@std@@V?$allocator@D@2@@1@AEBV<lambda_1>@?1???$create@V?$basic_string@DU?$char_traits@D@std@@V?$allocator@D@2@@std@@AEAY0BA@$$CBD@?$basic_json@Vmap@std@@Vvector@2@V?$basic_string@DU?$char_traits@D@std@@V?$allocator@D@2@@2@_N_J_KNVallocator@2@Uadl_serializer@json_abi_v3_11_2@nlohmann@@V?$vector@EV?$allocator@E@std@@@2@@json_abi_v3_11_2@nlohmann@@CAPEAV21@AEAY0BA@$$CBD@Z@@Z
	??$?0V<lambda_1>@?1???$create@V?$basic_string@DU?$char_traits@D@std@@V?$allocator@D@2@@std@@AEAY0BC@$$CBD@?$basic_json@Vmap@std@@Vvector@2@V?$basic_string@DU?$char_traits@D@std@@V?$allocator@D@2@@2@_N_J_KNVallocator@2@Uadl_serializer@json_abi_v3_11_2@nlohmann@@V?$vector@EV?$allocator@E@std@@@2@@json_abi_v3_11_2@nlohmann@@CAPEAV?$basic_string@DU?$char_traits@D@std@@V?$allocator@D@2@@std@@AEAY0BC@$$CBD@Z@$0A@@?$unique_ptr@V?$basic_string@DU?$char_traits@D@std@@V?$allocator@D@2@@std@@V<lambda_1>@?1???$create@V?$basic_string@DU?$char_traits@D@std@@V?$allocator@D@2@@std@@AEAY0BC@$$CBD@?$basic_json@Vmap@std@@Vvector@2@V?$basic_string@DU?$char_traits@D@std@@V?$allocator@D@2@@2@_N_J_KNVallocator@2@Uadl_serializer@json_abi_v3_11_2@nlohmann@@V?$vector@EV?$allocator@E@std@@@2@@json_abi_v3_11_2@nlohmann@@CAPEAV12@AEAY0BC@$$CBD@Z@@std@@QEAA@PEAV?$basic_string@DU?$char_traits@D@std@@V?$allocator@D@2@@1@AEBV<lambda_1>@?1???$create@V?$basic_string@DU?$char_traits@D@std@@V?$allocator@D@2@@std@@AEAY0BC@$$CBD@?$basic_json@Vmap@std@@Vvector@2@V?$basic_string@DU?$char_traits@D@std@@V?$allocator@D@2@@2@_N_J_KNVallocator@2@Uadl_serializer@json_abi_v3_11_2@nlohmann@@V?$vector@EV?$allocator@E@std@@@2@@json_abi_v3_11_2@nlohmann@@CAPEAV21@AEAY0BC@$$CBD@Z@@Z
	??$?0V<lambda_1>@?1???$create@V?$basic_string@DU?$char_traits@D@std@@V?$allocator@D@2@@std@@AEAY0BH@$$CBD@?$basic_json@Vmap@std@@Vvector@2@V?$basic_string@DU?$char_traits@D@std@@V?$allocator@D@2@@2@_N_J_KNVallocator@2@Uadl_serializer@json_abi_v3_11_2@nlohmann@@V?$vector@EV?$allocator@E@std@@@2@@json_abi_v3_11_2@nlohmann@@CAPEAV?$basic_string@DU?$char_traits@D@std@@V?$allocator@D@2@@std@@AEAY0BH@$$CBD@Z@$0A@@?$unique_ptr@V?$basic_string@DU?$char_traits@D@std@@V?$allocator@D@2@@std@@V<lambda_1>@?1???$create@V?$basic_string@DU?$char_traits@D@std@@V?$allocator@D@2@@std@@AEAY0BH@$$CBD@?$basic_json@Vmap@std@@Vvector@2@V?$basic_string@DU?$char_traits@D@std@@V?$allocator@D@2@@2@_N_J_KNVallocator@2@Uadl_serializer@json_abi_v3_11_2@nlohmann@@V?$vector@EV?$allocator@E@std@@@2@@json_abi_v3_11_2@nlohmann@@CAPEAV12@AEAY0BH@$$CBD@Z@@std@@QEAA@PEAV?$basic_string@DU?$char_traits@D@std@@V?$allocator@D@2@@1@AEBV<lambda_1>@?1???$create@V?$basic_string@DU?$char_traits@D@std@@V?$allocator@D@2@@std@@AEAY0BH@$$CBD@?$basic_json@Vmap@std@@Vvector@2@V?$basic_string@DU?$char_traits@D@std@@V?$allocator@D@2@@2@_N_J_KNVallocator@2@Uadl_serializer@json_abi_v3_11_2@nlohmann@@V?$vector@EV?$allocator@E@std@@@2@@json_abi_v3_11_2@nlohmann@@CAPEAV21@AEAY0BH@$$CBD@Z@@Z
	??$?0V<lambda_1>@?1???$create@V?$basic_string@DU?$char_traits@D@std@@V?$allocator@D@2@@std@@AEAY0BJ@$$CBD@?$basic_json@Vmap@std@@Vvector@2@V?$basic_string@DU?$char_traits@D@std@@V?$allocator@D@2@@2@_N_J_KNVallocator@2@Uadl_serializer@json_abi_v3_11_2@nlohmann@@V?$vector@EV?$allocator@E@std@@@2@@json_abi_v3_11_2@nlohmann@@CAPEAV?$basic_string@DU?$char_traits@D@std@@V?$allocator@D@2@@std@@AEAY0BJ@$$CBD@Z@$0A@@?$unique_ptr@V?$basic_string@DU?$char_traits@D@std@@V?$allocator@D@2@@std@@V<lambda_1>@?1???$create@V?$basic_string@DU?$char_traits@D@std@@V?$allocator@D@2@@std@@AEAY0BJ@$$CBD@?$basic_json@Vmap@std@@Vvector@2@V?$basic_string@DU?$char_traits@D@std@@V?$allocator@D@2@@2@_N_J_KNVallocator@2@Uadl_serializer@json_abi_v3_11_2@nlohmann@@V?$vector@EV?$allocator@E@std@@@2@@json_abi_v3_11_2@nlohmann@@CAPEAV12@AEAY0BJ@$$CBD@Z@@std@@QEAA@PEAV?$basic_string@DU?$char_traits@D@std@@V?$allocator@D@2@@1@AEBV<lambda_1>@?1???$create@V?$basic_string@DU?$char_traits@D@std@@V?$allocator@D@2@@std@@AEAY0BJ@$$CBD@?$basic_json@Vmap@std@@Vvector@2@V?$basic_string@DU?$char_traits@D@std@@V?$allocator@D@2@@2@_N_J_KNVallocator@2@Uadl_serializer@json_abi_v3_11_2@nlohmann@@V?$vector@EV?$allocator@E@std@@@2@@json_abi_v3_11_2@nlohmann@@CAPEAV21@AEAY0BJ@$$CBD@Z@@Z
	??$?0V<lambda_1>@?1???$create@V?$basic_string@DU?$char_traits@D@std@@V?$allocator@D@2@@std@@AEAY0M@$$CBD@?$basic_json@Vmap@std@@Vvector@2@V?$basic_string@DU?$char_traits@D@std@@V?$allocator@D@2@@2@_N_J_KNVallocator@2@Uadl_serializer@json_abi_v3_11_2@nlohmann@@V?$vector@EV?$allocator@E@std@@@2@@json_abi_v3_11_2@nlohmann@@CAPEAV?$basic_string@DU?$char_traits@D@std@@V?$allocator@D@2@@std@@AEAY0M@$$CBD@Z@$0A@@?$unique_ptr@V?$basic_string@DU?$char_traits@D@std@@V?$allocator@D@2@@std@@V<lambda_1>@?1???$create@V?$basic_string@DU?$char_traits@D@std@@V?$allocator@D@2@@std@@AEAY0M@$$CBD@?$basic_json@Vmap@std@@Vvector@2@V?$basic_string@DU?$char_traits@D@std@@V?$allocator@D@2@@2@_N_J_KNVallocator@2@Uadl_serializer@json_abi_v3_11_2@nlohmann@@V?$vector@EV?$allocator@E@std@@@2@@json_abi_v3_11_2@nlohmann@@CAPEAV12@AEAY0M@$$CBD@Z@@std@@QEAA@PEAV?$basic_string@DU?$char_traits@D@std@@V?$allocator@D@2@@1@AEBV<lambda_1>@?1???$create@V?$basic_string@DU?$char_traits@D@std@@V?$allocator@D@2@@std@@AEAY0M@$$CBD@?$basic_json@Vmap@std@@Vvector@2@V?$basic_string@DU?$char_traits@D@std@@V?$allocator@D@2@@2@_N_J_KNVallocator@2@Uadl_serializer@json_abi_v3_11_2@nlohmann@@V?$vector@EV?$allocator@E@std@@@2@@json_abi_v3_11_2@nlohmann@@CAPEAV21@AEAY0M@$$CBD@Z@@Z
	??$?0V<lambda_1>@?1???$create@V?$basic_string@DU?$char_traits@D@std@@V?$allocator@D@2@@std@@AEBV12@@?$basic_json@Vmap@std@@Vvector@2@V?$basic_string@DU?$char_traits@D@std@@V?$allocator@D@2@@2@_N_J_KNVallocator@2@Uadl_serializer@json_abi_v3_11_2@nlohmann@@V?$vector@EV?$allocator@E@std@@@2@@json_abi_v3_11_2@nlohmann@@CAPEAV?$basic_string@DU?$char_traits@D@std@@V?$allocator@D@2@@std@@AEBV45@@Z@$0A@@?$unique_ptr@V?$basic_string@DU?$char_traits@D@std@@V?$allocator@D@2@@std@@V<lambda_1>@?1???$create@V?$basic_string@DU?$char_traits@D@std@@V?$allocator@D@2@@std@@AEBV12@@?$basic_json@Vmap@std@@Vvector@2@V?$basic_string@DU?$char_traits@D@std@@V?$allocator@D@2@@2@_N_J_KNVallocator@2@Uadl_serializer@json_abi_v3_11_2@nlohmann@@V?$vector@EV?$allocator@E@std@@@2@@json_abi_v3_11_2@nlohmann@@CAPEAV12@AEBV12@@Z@@std@@QEAA@PEAV?$basic_string@DU?$char_traits@D@std@@V?$allocator@D@2@@1@AEBV<lambda_1>@?1???$create@V?$basic_string@DU?$char_traits@D@std@@V?$allocator@D@2@@std@@AEBV12@@?$basic_json@Vmap@std@@Vvector@2@V?$basic_string@DU?$char_traits@D@std@@V?$allocator@D@2@@2@_N_J_KNVallocator@2@Uadl_serializer@json_abi_v3_11_2@nlohmann@@V?$vector@EV?$allocator@E@std@@@2@@json_abi_v3_11_2@nlohmann@@CAPEAV21@AEBV21@@Z@@Z
	??$?0V<lambda_1>@?1???$create@V?$basic_string@DU?$char_traits@D@std@@V?$allocator@D@2@@std@@V12@@?$basic_json@Vmap@std@@Vvector@2@V?$basic_string@DU?$char_traits@D@std@@V?$allocator@D@2@@2@_N_J_KNVallocator@2@Uadl_serializer@json_abi_v3_11_2@nlohmann@@V?$vector@EV?$allocator@E@std@@@2@@json_abi_v3_11_2@nlohmann@@CAPEAV?$basic_string@DU?$char_traits@D@std@@V?$allocator@D@2@@std@@$$QEAV45@@Z@$0A@@?$unique_ptr@V?$basic_string@DU?$char_traits@D@std@@V?$allocator@D@2@@std@@V<lambda_1>@?1???$create@V?$basic_string@DU?$char_traits@D@std@@V?$allocator@D@2@@std@@V12@@?$basic_json@Vmap@std@@Vvector@2@V?$basic_string@DU?$char_traits@D@std@@V?$allocator@D@2@@2@_N_J_KNVallocator@2@Uadl_serializer@json_abi_v3_11_2@nlohmann@@V?$vector@EV?$allocator@E@std@@@2@@json_abi_v3_11_2@nlohmann@@CAPEAV12@$$QEAV12@@Z@@std@@QEAA@PEAV?$basic_string@DU?$char_traits@D@std@@V?$allocator@D@2@@1@AEBV<lambda_1>@?1???$create@V?$basic_string@DU?$char_traits@D@std@@V?$allocator@D@2@@std@@V12@@?$basic_json@Vmap@std@@Vvector@2@V?$basic_string@DU?$char_traits@D@std@@V?$allocator@D@2@@2@_N_J_KNVallocator@2@Uadl_serializer@json_abi_v3_11_2@nlohmann@@V?$vector@EV?$allocator@E@std@@@2@@json_abi_v3_11_2@nlohmann@@CAPEAV21@$$QEAV21@@Z@@Z
	??$?0V<lambda_1>@?1???$create@V?$byte_container_with_subtype@V?$vector@EV?$allocator@E@std@@@std@@@json_abi_v3_11_2@nlohmann@@$$V@?$basic_json@Vmap@std@@Vvector@2@V?$basic_string@DU?$char_traits@D@std@@V?$allocator@D@2@@2@_N_J_KNVallocator@2@Uadl_serializer@json_abi_v3_11_2@nlohmann@@V?$vector@EV?$allocator@E@std@@@2@@json_abi_v3_11_2@nlohmann@@CAPEAV?$byte_container_with_subtype@V?$vector@EV?$allocator@E@std@@@std@@@23@XZ@$0A@@?$unique_ptr@V?$byte_container_with_subtype@V?$vector@EV?$allocator@E@std@@@std@@@json_abi_v3_11_2@nlohmann@@V<lambda_1>@?1???$create@V?$byte_container_with_subtype@V?$vector@EV?$allocator@E@std@@@std@@@json_abi_v3_11_2@nlohmann@@$$V@?$basic_json@Vmap@std@@Vvector@2@V?$basic_string@DU?$char_traits@D@std@@V?$allocator@D@2@@2@_N_J_KNVallocator@2@Uadl_serializer@json_abi_v3_11_2@nlohmann@@V?$vector@EV?$allocator@E@std@@@2@@23@CAPEAV123@XZ@@std@@QEAA@PEAV?$byte_container_with_subtype@V?$vector@EV?$allocator@E@std@@@std@@@json_abi_v3_11_2@nlohmann@@AEBV<lambda_1>@?1???$create@V?$byte_container_with_subtype@V?$vector@EV?$allocator@E@std@@@std@@@json_abi_v3_11_2@nlohmann@@$$V@?$basic_json@Vmap@std@@Vvector@2@V?$basic_string@DU?$char_traits@D@std@@V?$allocator@D@2@@2@_N_J_KNVallocator@2@Uadl_serializer@json_abi_v3_11_2@nlohmann@@V?$vector@EV?$allocator@E@std@@@2@@34@CAPEAV234@XZ@@Z
	??$?0V<lambda_1>@?1???$create@V?$byte_container_with_subtype@V?$vector@EV?$allocator@E@std@@@std@@@json_abi_v3_11_2@nlohmann@@AEBV123@@?$basic_json@Vmap@std@@Vvector@2@V?$basic_string@DU?$char_traits@D@std@@V?$allocator@D@2@@2@_N_J_KNVallocator@2@Uadl_serializer@json_abi_v3_11_2@nlohmann@@V?$vector@EV?$allocator@E@std@@@2@@json_abi_v3_11_2@nlohmann@@CAPEAV?$byte_container_with_subtype@V?$vector@EV?$allocator@E@std@@@std@@@23@AEBV423@@Z@$0A@@?$unique_ptr@V?$byte_container_with_subtype@V?$vector@EV?$allocator@E@std@@@std@@@json_abi_v3_11_2@nlohmann@@V<lambda_1>@?1???$create@V?$byte_container_with_subtype@V?$vector@EV?$allocator@E@std@@@std@@@json_abi_v3_11_2@nlohmann@@AEBV123@@?$basic_json@Vmap@std@@Vvector@2@V?$basic_string@DU?$char_traits@D@std@@V?$allocator@D@2@@2@_N_J_KNVallocator@2@Uadl_serializer@json_abi_v3_11_2@nlohmann@@V?$vector@EV?$allocator@E@std@@@2@@23@CAPEAV123@AEBV123@@Z@@std@@QEAA@PEAV?$byte_container_with_subtype@V?$vector@EV?$allocator@E@std@@@std@@@json_abi_v3_11_2@nlohmann@@AEBV<lambda_1>@?1???$create@V?$byte_container_with_subtype@V?$vector@EV?$allocator@E@std@@@std@@@json_abi_v3_11_2@nlohmann@@AEBV123@@?$basic_json@Vmap@std@@Vvector@2@V?$basic_string@DU?$char_traits@D@std@@V?$allocator@D@2@@2@_N_J_KNVallocator@2@Uadl_serializer@json_abi_v3_11_2@nlohmann@@V?$vector@EV?$allocator@E@std@@@2@@34@CAPEAV234@AEBV234@@Z@@Z
	??$?0V<lambda_1>@?1???$create@V?$vector@V?$basic_json@Vmap@std@@Vvector@2@V?$basic_string@DU?$char_traits@D@std@@V?$allocator@D@2@@2@_N_J_KNVallocator@2@Uadl_serializer@json_abi_v3_11_2@nlohmann@@V?$vector@EV?$allocator@E@std@@@2@@json_abi_v3_11_2@nlohmann@@V?$allocator@V?$basic_json@Vmap@std@@Vvector@2@V?$basic_string@DU?$char_traits@D@std@@V?$allocator@D@2@@2@_N_J_KNVallocator@2@Uadl_serializer@json_abi_v3_11_2@nlohmann@@V?$vector@EV?$allocator@E@std@@@2@@json_abi_v3_11_2@nlohmann@@@std@@@std@@$$V@?$basic_json@Vmap@std@@Vvector@2@V?$basic_string@DU?$char_traits@D@std@@V?$allocator@D@2@@2@_N_J_KNVallocator@2@Uadl_serializer@json_abi_v3_11_2@nlohmann@@V?$vector@EV?$allocator@E@std@@@2@@json_abi_v3_11_2@nlohmann@@CAPEAV?$vector@V?$basic_json@Vmap@std@@Vvector@2@V?$basic_string@DU?$char_traits@D@std@@V?$allocator@D@2@@2@_N_J_KNVallocator@2@Uadl_serializer@json_abi_v3_11_2@nlohmann@@V?$vector@EV?$allocator@E@std@@@2@@json_abi_v3_11_2@nlohmann@@V?$allocator@V?$basic_json@Vmap@std@@Vvector@2@V?$basic_string@DU?$char_traits@D@std@@V?$allocator@D@2@@2@_N_J_KNVallocator@2@Uadl_serializer@json_abi_v3_11_2@nlohmann@@V?$vector@EV?$allocator@E@std@@@2@@json_abi_v3_11_2@nlohmann@@@std@@@std@@XZ@$0A@@?$unique_ptr@V?$vector@V?$basic_json@Vmap@std@@Vvector@2@V?$basic_string@DU?$char_traits@D@std@@V?$allocator@D@2@@2@_N_J_KNVallocator@2@Uadl_serializer@json_abi_v3_11_2@nlohmann@@V?$vector@EV?$allocator@E@std@@@2@@json_abi_v3_11_2@nlohmann@@V?$allocator@V?$basic_json@Vmap@std@@Vvector@2@V?$basic_string@DU?$char_traits@D@std@@V?$allocator@D@2@@2@_N_J_KNVallocator@2@Uadl_serializer@json_abi_v3_11_2@nlohmann@@V?$vector@EV?$allocator@E@std@@@2@@json_abi_v3_11_2@nlohmann@@@std@@@std@@V<lambda_1>@?1???$create@V?$vector@V?$basic_json@Vmap@std@@Vvector@2@V?$basic_string@DU?$char_traits@D@std@@V?$allocator@D@2@@2@_N_J_KNVallocator@2@Uadl_serializer@json_abi_v3_11_2@nlohmann@@V?$vector@EV?$allocator@E@std@@@2@@json_abi_v3_11_2@nlohmann@@V?$allocator@V?$basic_json@Vmap@std@@Vvector@2@V?$basic_string@DU?$char_traits@D@std@@V?$allocator@D@2@@2@_N_J_KNVallocator@2@Uadl_serializer@json_abi_v3_11_2@nlohmann@@V?$vector@EV?$allocator@E@std@@@2@@json_abi_v3_11_2@nlohmann@@@std@@@std@@$$V@?$basic_json@Vmap@std@@Vvector@2@V?$basic_string@DU?$char_traits@D@std@@V?$allocator@D@2@@2@_N_J_KNVallocator@2@Uadl_serializer@json_abi_v3_11_2@nlohmann@@V?$vector@EV?$allocator@E@std@@@2@@json_abi_v3_11_2@nlohmann@@CAPEAV12@XZ@@std@@QEAA@PEAV?$vector@V?$basic_json@Vmap@std@@Vvector@2@V?$basic_string@DU?$char_traits@D@std@@V?$allocator@D@2@@2@_N_J_KNVallocator@2@Uadl_serializer@json_abi_v3_11_2@nlohmann@@V?$vector@EV?$allocator@E@std@@@2@@json_abi_v3_11_2@nlohmann@@V?$allocator@V?$basic_json@Vmap@std@@Vvector@2@V?$basic_string@DU?$char_traits@D@std@@V?$allocator@D@2@@2@_N_J_KNVallocator@2@Uadl_serializer@json_abi_v3_11_2@nlohmann@@V?$vector@EV?$allocator@E@std@@@2@@json_abi_v3_11_2@nlohmann@@@std@@@1@AEBV<lambda_1>@?1???$create@V?$vector@V?$basic_json@Vmap@std@@Vvector@2@V?$basic_string@DU?$char_traits@D@std@@V?$allocator@D@2@@2@_N_J_KNVallocator@2@Uadl_serializer@json_abi_v3_11_2@nlohmann@@V?$vector@EV?$allocator@E@std@@@2@@json_abi_v3_11_2@nlohmann@@V?$allocator@V?$basic_json@Vmap@std@@Vvector@2@V?$basic_string@DU?$char_traits@D@std@@V?$allocator@D@2@@2@_N_J_KNVallocator@2@Uadl_serializer@json_abi_v3_11_2@nlohmann@@V?$vector@EV?$allocator@E@std@@@2@@json_abi_v3_11_2@nlohmann@@@std@@@std@@$$V@?$basic_json@Vmap@std@@Vvector@2@V?$basic_string@DU?$char_traits@D@std@@V?$allocator@D@2@@2@_N_J_KNVallocator@2@Uadl_serializer@json_abi_v3_11_2@nlohmann@@V?$vector@EV?$allocator@E@std@@@2@@json_abi_v3_11_2@nlohmann@@CAPEAV21@XZ@@Z
	??$?0V<lambda_1>@?1???$create@V?$vector@V?$basic_json@Vmap@std@@Vvector@2@V?$basic_string@DU?$char_traits@D@std@@V?$allocator@D@2@@2@_N_J_KNVallocator@2@Uadl_serializer@json_abi_v3_11_2@nlohmann@@V?$vector@EV?$allocator@E@std@@@2@@json_abi_v3_11_2@nlohmann@@V?$allocator@V?$basic_json@Vmap@std@@Vvector@2@V?$basic_string@DU?$char_traits@D@std@@V?$allocator@D@2@@2@_N_J_KNVallocator@2@Uadl_serializer@json_abi_v3_11_2@nlohmann@@V?$vector@EV?$allocator@E@std@@@2@@json_abi_v3_11_2@nlohmann@@@std@@@std@@AEBV12@@?$basic_json@Vmap@std@@Vvector@2@V?$basic_string@DU?$char_traits@D@std@@V?$allocator@D@2@@2@_N_J_KNVallocator@2@Uadl_serializer@json_abi_v3_11_2@nlohmann@@V?$vector@EV?$allocator@E@std@@@2@@json_abi_v3_11_2@nlohmann@@CAPEAV?$vector@V?$basic_json@Vmap@std@@Vvector@2@V?$basic_string@DU?$char_traits@D@std@@V?$allocator@D@2@@2@_N_J_KNVallocator@2@Uadl_serializer@json_abi_v3_11_2@nlohmann@@V?$vector@EV?$allocator@E@std@@@2@@json_abi_v3_11_2@nlohmann@@V?$allocator@V?$basic_json@Vmap@std@@Vvector@2@V?$basic_string@DU?$char_traits@D@std@@V?$allocator@D@2@@2@_N_J_KNVallocator@2@Uadl_serializer@json_abi_v3_11_2@nlohmann@@V?$vector@EV?$allocator@E@std@@@2@@json_abi_v3_11_2@nlohmann@@@std@@@std@@AEBV45@@Z@$0A@@?$unique_ptr@V?$vector@V?$basic_json@Vmap@std@@Vvector@2@V?$basic_string@DU?$char_traits@D@std@@V?$allocator@D@2@@2@_N_J_KNVallocator@2@Uadl_serializer@json_abi_v3_11_2@nlohmann@@V?$vector@EV?$allocator@E@std@@@2@@json_abi_v3_11_2@nlohmann@@V?$allocator@V?$basic_json@Vmap@std@@Vvector@2@V?$basic_string@DU?$char_traits@D@std@@V?$allocator@D@2@@2@_N_J_KNVallocator@2@Uadl_serializer@json_abi_v3_11_2@nlohmann@@V?$vector@EV?$allocator@E@std@@@2@@json_abi_v3_11_2@nlohmann@@@std@@@std@@V<lambda_1>@?1???$create@V?$vector@V?$basic_json@Vmap@std@@Vvector@2@V?$basic_string@DU?$char_traits@D@std@@V?$allocator@D@2@@2@_N_J_KNVallocator@2@Uadl_serializer@json_abi_v3_11_2@nlohmann@@V?$vector@EV?$allocator@E@std@@@2@@json_abi_v3_11_2@nlohmann@@V?$allocator@V?$basic_json@Vmap@std@@Vvector@2@V?$basic_string@DU?$char_traits@D@std@@V?$allocator@D@2@@2@_N_J_KNVallocator@2@Uadl_serializer@json_abi_v3_11_2@nlohmann@@V?$vector@EV?$allocator@E@std@@@2@@json_abi_v3_11_2@nlohmann@@@std@@@std@@AEBV12@@?$basic_json@Vmap@std@@Vvector@2@V?$basic_string@DU?$char_traits@D@std@@V?$allocator@D@2@@2@_N_J_KNVallocator@2@Uadl_serializer@json_abi_v3_11_2@nlohmann@@V?$vector@EV?$allocator@E@std@@@2@@json_abi_v3_11_2@nlohmann@@CAPEAV12@AEBV12@@Z@@std@@QEAA@PEAV?$vector@V?$basic_json@Vmap@std@@Vvector@2@V?$basic_string@DU?$char_traits@D@std@@V?$allocator@D@2@@2@_N_J_KNVallocator@2@Uadl_serializer@json_abi_v3_11_2@nlohmann@@V?$vector@EV?$allocator@E@std@@@2@@json_abi_v3_11_2@nlohmann@@V?$allocator@V?$basic_json@Vmap@std@@Vvector@2@V?$basic_string@DU?$char_traits@D@std@@V?$allocator@D@2@@2@_N_J_KNVallocator@2@Uadl_serializer@json_abi_v3_11_2@nlohmann@@V?$vector@EV?$allocator@E@std@@@2@@json_abi_v3_11_2@nlohmann@@@std@@@1@AEBV<lambda_1>@?1???$create@V?$vector@V?$basic_json@Vmap@std@@Vvector@2@V?$basic_string@DU?$char_traits@D@std@@V?$allocator@D@2@@2@_N_J_KNVallocator@2@Uadl_serializer@json_abi_v3_11_2@nlohmann@@V?$vector@EV?$allocator@E@std@@@2@@json_abi_v3_11_2@nlohmann@@V?$allocator@V?$basic_json@Vmap@std@@Vvector@2@V?$basic_string@DU?$char_traits@D@std@@V?$allocator@D@2@@2@_N_J_KNVallocator@2@Uadl_serializer@json_abi_v3_11_2@nlohmann@@V?$vector@EV?$allocator@E@std@@@2@@json_abi_v3_11_2@nlohmann@@@std@@@std@@AEBV12@@?$basic_json@Vmap@std@@Vvector@2@V?$basic_string@DU?$char_traits@D@std@@V?$allocator@D@2@@2@_N_J_KNVallocator@2@Uadl_serializer@json_abi_v3_11_2@nlohmann@@V?$vector@EV?$allocator@E@std@@@2@@json_abi_v3_11_2@nlohmann@@CAPEAV21@AEBV21@@Z@@Z
	??$?0V<lambda_1>@?1???$create_socket@V<lambda_1>@?1??create_client_socket@detail@httplib@@YA_KAEBV?$basic_string@DU?$char_traits@D@std@@V?$allocator@D@2@@std@@0HH_N1V?$function@$$A6AX_K@Z@6@_J333330AEAW4Error@4@@Z@@detail@httplib@@YA_KAEBV?$basic_string@DU?$char_traits@D@std@@V?$allocator@D@2@@std@@0HHH_N1V?$function@$$A6AX_K@Z@4@V0?1??create_client_socket@12@YA_K00HH112_J333330AEAW4Error@2@@Z@3@Z@$0A@@?$_Func_impl_no_alloc@V<lambda_1>@?1???$create_socket@V<lambda_1>@?1??create_client_socket@detail@httplib@@YA_KAEBV?$basic_string@DU?$char_traits@D@std@@V?$allocator@D@2@@std@@0HH_N1V?$function@$$A6AX_K@Z@6@_J333330AEAW4Error@4@@Z@@detail@httplib@@YA_KAEBV?$basic_string@DU?$char_traits@D@std@@V?$allocator@D@2@@std@@0HHH_N1V?$function@$$A6AX_K@Z@5@V1?1??create_client_socket@23@YA_K00HH112_J333330AEAW4Error@3@@Z@3@Z@X$$V@std@@QEAA@$$QEAV<lambda_1>@?1???$create_socket@V<lambda_1>@?1??create_client_socket@detail@httplib@@YA_KAEBV?$basic_string@DU?$char_traits@D@std@@V?$allocator@D@2@@std@@0HH_N1V?$function@$$A6AX_K@Z@6@_J333330AEAW4Error@4@@Z@@detail@httplib@@YA_KAEBV?$basic_string@DU?$char_traits@D@std@@V?$allocator@D@2@@1@0HHH_N1V?$function@$$A6AX_K@Z@1@V2?1??create_client_socket@34@YA_K00HH112_J333330AEAW4Error@4@@Z@3@Z@@Z
	??$?0V<lambda_1>@?1???$create_socket@V<lambda_1>@?1??create_client_socket@detail@httplib@@YA_KAEBV?$basic_string@DU?$char_traits@D@std@@V?$allocator@D@2@@std@@0HH_N1V?$function@$$A6AX_K@Z@6@_J333330AEAW4Error@4@@Z@@detail@httplib@@YA_KAEBV?$basic_string@DU?$char_traits@D@std@@V?$allocator@D@2@@std@@0HHH_N1V?$function@$$A6AX_K@Z@4@V0?1??create_client_socket@12@YA_K00HH112_J333330AEAW4Error@2@@Z@3@Z@$0A@@?$function@$$A6AXXZ@std@@QEAA@$$QEAV<lambda_1>@?1???$create_socket@V<lambda_1>@?1??create_client_socket@detail@httplib@@YA_KAEBV?$basic_string@DU?$char_traits@D@std@@V?$allocator@D@2@@std@@0HH_N1V?$function@$$A6AX_K@Z@6@_J333330AEAW4Error@4@@Z@@detail@httplib@@YA_KAEBV?$basic_string@DU?$char_traits@D@std@@V?$allocator@D@2@@1@0HHH_N1V?$function@$$A6AX_K@Z@1@V2?1??create_client_socket@34@YA_K00HH112_J333330AEAW4Error@4@@Z@3@Z@@Z
	??$?0V<lambda_1>@?1???$write_content_chunked@V<lambda_1>@?1??write_content_with_provider@ClientImpl@httplib@@IEBA_NAEAVStream@4@AEBURequest@4@AEAW4Error@4@@Z@Vcompressor@detail@4@@detail@httplib@@YA_NAEAVStream@2@AEBV?$function@$$A6A_N_K0AEAVDataSink@httplib@@@Z@std@@AEBV0?1??write_content_with_provider@ClientImpl@2@IEBA_N0AEBURequest@2@AEAW4Error@2@@Z@AEAVcompressor@12@3@Z@$0A@@?$_Func_impl_no_alloc@V<lambda_1>@?1???$write_content_chunked@V<lambda_1>@?1??write_content_with_provider@ClientImpl@httplib@@IEBA_NAEAVStream@4@AEBURequest@4@AEAW4Error@4@@Z@Vcompressor@detail@4@@detail@httplib@@YA_NAEAVStream@3@AEBV?$function@$$A6A_N_K0AEAVDataSink@httplib@@@Z@std@@AEBV1?1??write_content_with_provider@ClientImpl@3@IEBA_N0AEBURequest@3@AEAW4Error@3@@Z@AEAVcompressor@23@3@Z@_NPEBD_K@std@@QEAA@$$QEAV<lambda_1>@?1???$write_content_chunked@V<lambda_1>@?1??write_content_with_provider@ClientImpl@httplib@@IEBA_NAEAVStream@4@AEBURequest@4@AEAW4Error@4@@Z@Vcompressor@detail@4@@detail@httplib@@YA_NAEAVStream@4@AEBV?$function@$$A6A_N_K0AEAVDataSink@httplib@@@Z@1@AEBV2?1??write_content_with_provider@ClientImpl@4@IEBA_N0AEBURequest@4@AEAW4Error@4@@Z@AEAVcompressor@34@3@Z@@Z
	??$?0V<lambda_1>@?1???$write_content_chunked@V<lambda_1>@?1??write_content_with_provider@ClientImpl@httplib@@IEBA_NAEAVStream@4@AEBURequest@4@AEAW4Error@4@@Z@Vcompressor@detail@4@@detail@httplib@@YA_NAEAVStream@2@AEBV?$function@$$A6A_N_K0AEAVDataSink@httplib@@@Z@std@@AEBV0?1??write_content_with_provider@ClientImpl@2@IEBA_N0AEBURequest@2@AEAW4Error@2@@Z@AEAVcompressor@12@3@Z@$0A@@?$function@$$A6A_NPEBD_K@Z@std@@QEAA@$$QEAV<lambda_1>@?1???$write_content_chunked@V<lambda_1>@?1??write_content_with_provider@ClientImpl@httplib@@IEBA_NAEAVStream@4@AEBURequest@4@AEAW4Error@4@@Z@Vcompressor@detail@4@@detail@httplib@@YA_NAEAVStream@4@AEBV?$function@$$A6A_N_K0AEAVDataSink@httplib@@@Z@1@AEBV2?1??write_content_with_provider@ClientImpl@4@IEBA_N0AEBURequest@4@AEAW4Error@4@@Z@AEAVcompressor@34@3@Z@@Z
	??$?0V<lambda_1>@?1???$write_content_with_progress@V<lambda_1>@?1??write_content_with_provider@ClientImpl@httplib@@IEBA_NAEAVStream@4@AEBURequest@4@AEAW4Error@4@@Z@@detail@httplib@@YA_NAEAVStream@2@AEBV?$function@$$A6A_N_K0AEAVDataSink@httplib@@@Z@std@@_K2V0?1??write_content_with_provider@ClientImpl@2@IEBA_N0AEBURequest@2@AEAW4Error@2@@Z@AEBV?$function@$$A6A_N_K0@Z@5@4@Z@$0A@@?$_Func_impl_no_alloc@V<lambda_1>@?1???$write_content_with_progress@V<lambda_1>@?1??write_content_with_provider@ClientImpl@httplib@@IEBA_NAEAVStream@4@AEBURequest@4@AEAW4Error@4@@Z@@detail@httplib@@YA_NAEAVStream@3@AEBV?$function@$$A6A_N_K0AEAVDataSink@httplib@@@Z@std@@_K2V1?1??write_content_with_provider@ClientImpl@3@IEBA_N0AEBURequest@3@AEAW4Error@3@@Z@AEBV?$function@$$A6A_N_K0@Z@6@4@Z@_NPEBD_K@std@@QEAA@$$QEAV<lambda_1>@?1???$write_content_with_progress@V<lambda_1>@?1??write_content_with_provider@ClientImpl@httplib@@IEBA_NAEAVStream@4@AEBURequest@4@AEAW4Error@4@@Z@@detail@httplib@@YA_NAEAVStream@4@AEBV?$function@$$A6A_N_K0AEAVDataSink@httplib@@@Z@1@_K2V2?1??write_content_with_provider@ClientImpl@4@IEBA_N0AEBURequest@4@AEAW4Error@4@@Z@AEBV?$function@$$A6A_N_K0@Z@1@4@Z@@Z
	??$?0V<lambda_1>@?1???$write_content_with_progress@V<lambda_1>@?1??write_content_with_provider@ClientImpl@httplib@@IEBA_NAEAVStream@4@AEBURequest@4@AEAW4Error@4@@Z@@detail@httplib@@YA_NAEAVStream@2@AEBV?$function@$$A6A_N_K0AEAVDataSink@httplib@@@Z@std@@_K2V0?1??write_content_with_provider@ClientImpl@2@IEBA_N0AEBURequest@2@AEAW4Error@2@@Z@AEBV?$function@$$A6A_N_K0@Z@5@4@Z@$0A@@?$function@$$A6A_NPEBD_K@Z@std@@QEAA@$$QEAV<lambda_1>@?1???$write_content_with_progress@V<lambda_1>@?1??write_content_with_provider@ClientImpl@httplib@@IEBA_NAEAVStream@4@AEBURequest@4@AEAW4Error@4@@Z@@detail@httplib@@YA_NAEAVStream@4@AEBV?$function@$$A6A_N_K0AEAVDataSink@httplib@@@Z@1@_K2V2?1??write_content_with_provider@ClientImpl@4@IEBA_N0AEBURequest@4@AEAW4Error@4@@Z@AEBV?$function@$$A6A_N_K0@Z@1@4@Z@@Z
	??$?0V<lambda_1>@?1???R0?1??normalize_query_string@detail@httplib@@YA?AV?$basic_string@DU?$char_traits@D@std@@V?$allocator@D@2@@std@@AEBV45@@Z@QEBA@PEBD1@Z@$0A@@?$_Func_impl_no_alloc@V<lambda_1>@?1???R1?1??normalize_query_string@detail@httplib@@YA?AV?$basic_string@DU?$char_traits@D@std@@V?$allocator@D@2@@std@@AEBV56@@Z@QEBA@PEBD1@Z@XPEBD_KPEBD_K@std@@QEAA@$$QEAV<lambda_1>@?1???R2?1??normalize_query_string@detail@httplib@@YA?AV?$basic_string@DU?$char_traits@D@std@@V?$allocator@D@2@@1@AEBV61@@Z@QEBA@PEBD1@Z@@Z
	??$?0V<lambda_1>@?1???R0?1??normalize_query_string@detail@httplib@@YA?AV?$basic_string@DU?$char_traits@D@std@@V?$allocator@D@2@@std@@AEBV45@@Z@QEBA@PEBD1@Z@$0A@@?$function@$$A6AXPEBD_K01@Z@std@@QEAA@$$QEAV<lambda_1>@?1???R2?1??normalize_query_string@detail@httplib@@YA?AV?$basic_string@DU?$char_traits@D@std@@V?$allocator@D@2@@1@AEBV61@@Z@QEBA@PEBD1@Z@@Z
	??$?0V<lambda_1>@?1???R0?1??parse_query_text@detail@httplib@@YAXPEBD_KAEAV?$multimap@V?$basic_string@DU?$char_traits@D@std@@V?$allocator@D@2@@std@@V12@U?$less@V?$basic_string@DU?$char_traits@D@std@@V?$allocator@D@2@@std@@@2@V?$allocator@U?$pair@$$CBV?$basic_string@DU?$char_traits@D@std@@V?$allocator@D@2@@std@@V12@@std@@@2@@std@@@Z@QEBA@00@Z@$0A@@?$_Func_impl_no_alloc@V<lambda_1>@?1???R1?1??parse_query_text@detail@httplib@@YAXPEBD_KAEAV?$multimap@V?$basic_string@DU?$char_traits@D@std@@V?$allocator@D@2@@std@@V12@U?$less@V?$basic_string@DU?$char_traits@D@std@@V?$allocator@D@2@@std@@@2@V?$allocator@U?$pair@$$CBV?$basic_string@DU?$char_traits@D@std@@V?$allocator@D@2@@std@@V12@@std@@@2@@std@@@Z@QEBA@00@Z@XPEBD_KPEBD_K@std@@QEAA@$$QEAV<lambda_1>@?1???R2?1??parse_query_text@detail@httplib@@YAXPEBD_KAEAV?$multimap@V?$basic_string@DU?$char_traits@D@std@@V?$allocator@D@2@@std@@V12@U?$less@V?$basic_string@DU?$char_traits@D@std@@V?$allocator@D@2@@std@@@2@V?$allocator@U?$pair@$$CBV?$basic_string@DU?$char_traits@D@std@@V?$allocator@D@2@@std@@V12@@std@@@2@@1@@Z@QEBA@00@Z@@Z
	??$?0V<lambda_1>@?1???R0?1??parse_query_text@detail@httplib@@YAXPEBD_KAEAV?$multimap@V?$basic_string@DU?$char_traits@D@std@@V?$allocator@D@2@@std@@V12@U?$less@V?$basic_string@DU?$char_traits@D@std@@V?$allocator@D@2@@std@@@2@V?$allocator@U?$pair@$$CBV?$basic_string@DU?$char_traits@D@std@@V?$allocator@D@2@@std@@V12@@std@@@2@@std@@@Z@QEBA@00@Z@$0A@@?$function@$$A6AXPEBD_K01@Z@std@@QEAA@$$QEAV<lambda_1>@?1???R2?1??parse_query_text@detail@httplib@@YAXPEBD_KAEAV?$multimap@V?$basic_string@DU?$char_traits@D@std@@V?$allocator@D@2@@std@@V12@U?$less@V?$basic_string@DU?$char_traits@D@std@@V?$allocator@D@2@@std@@@2@V?$allocator@U?$pair@$$CBV?$basic_string@DU?$char_traits@D@std@@V?$allocator@D@2@@std@@V12@@std@@@2@@1@@Z@QEBA@00@Z@@Z
	??$?0V<lambda_1>@?1???R0?BB@???$prepare_content_receiver@UResponse@httplib@@V<lambda_1>@?1???$read_content@UResponse@httplib@@@detail@2@YA_NAEAVStream@2@AEAU12@_KAEAHV?$function@$$A6A_N_K0@Z@std@@V?$function@$$A6A_NPEBD_K11@Z@7@_N@Z@@detail@httplib@@YA_NAEAUResponse@2@AEAHV?$function@$$A6A_NPEBD_K11@Z@std@@_N_KAEA_NV0?1???$read_content@UResponse@httplib@@@12@YA_NAEAVStream@2@041V?$function@$$A6A_N_K0@Z@5@23@Z@@Z@QEBA@PEBD444@Z@$0A@@?$_Func_impl_no_alloc@V<lambda_1>@?1???R1?BB@???$prepare_content_receiver@UResponse@httplib@@V<lambda_1>@?1???$read_content@UResponse@httplib@@@detail@2@YA_NAEAVStream@2@AEAU12@_KAEAHV?$function@$$A6A_N_K0@Z@std@@V?$function@$$A6A_NPEBD_K11@Z@7@_N@Z@@detail@httplib@@YA_NAEAUResponse@3@AEAHV?$function@$$A6A_NPEBD_K11@Z@std@@_N_KAEA_NV1?1???$read_content@UResponse@httplib@@@23@YA_NAEAVStream@3@041V?$function@$$A6A_N_K0@Z@6@23@Z@@Z@QEBA@PEBD444@Z@_NPEBD_K@std@@QEAA@$$QEAV<lambda_1>@?1???R2?BB@???$prepare_content_receiver@UResponse@httplib@@V<lambda_1>@?1???$read_content@UResponse@httplib@@@detail@2@YA_NAEAVStream@2@AEAU12@_KAEAHV?$function@$$A6A_N_K0@Z@std@@V?$function@$$A6A_NPEBD_K11@Z@7@_N@Z@@detail@httplib@@YA_NAEAUResponse@4@AEAHV?$function@$$A6A_NPEBD_K11@Z@1@_N_KAEA_NV2?1???$read_content@UResponse@httplib@@@34@YA_NAEAVStream@4@041V?$function@$$A6A_N_K0@Z@1@23@Z@@Z@QEBA@PEBD444@Z@@Z
	??$?0V<lambda_1>@?1???R0?BB@???$prepare_content_receiver@UResponse@httplib@@V<lambda_1>@?1???$read_content@UResponse@httplib@@@detail@2@YA_NAEAVStream@2@AEAU12@_KAEAHV?$function@$$A6A_N_K0@Z@std@@V?$function@$$A6A_NPEBD_K11@Z@7@_N@Z@@detail@httplib@@YA_NAEAUResponse@2@AEAHV?$function@$$A6A_NPEBD_K11@Z@std@@_N_KAEA_NV0?1???$read_content@UResponse@httplib@@@12@YA_NAEAVStream@2@041V?$function@$$A6A_N_K0@Z@5@23@Z@@Z@QEBA@PEBD444@Z@$0A@@?$function@$$A6A_NPEBD_K@Z@std@@QEAA@$$QEAV<lambda_1>@?1???R2?BB@???$prepare_content_receiver@UResponse@httplib@@V<lambda_1>@?1???$read_content@UResponse@httplib@@@detail@2@YA_NAEAVStream@2@AEAU12@_KAEAHV?$function@$$A6A_N_K0@Z@std@@V?$function@$$A6A_NPEBD_K11@Z@7@_N@Z@@detail@httplib@@YA_NAEAUResponse@4@AEAHV?$function@$$A6A_NPEBD_K11@Z@1@_N_KAEA_NV2?1???$read_content@UResponse@httplib@@@34@YA_NAEAVStream@4@041V?$function@$$A6A_N_K0@Z@1@23@Z@@Z@QEBA@PEBD444@Z@@Z
	??$?0V<lambda_1>@?1???R<lambda_3>@?1???$write_content_chunked@V<lambda_1>@?1??write_content_with_provider@ClientImpl@httplib@@IEBA_NAEAVStream@4@AEBURequest@4@AEAW4Error@4@@Z@Vcompressor@detail@4@@detail@httplib@@YA_NAEAVStream@3@AEBV?$function@$$A6A_N_K0AEAVDataSink@httplib@@@Z@std@@AEBV0?1??write_content_with_provider@ClientImpl@3@IEBA_N0AEBURequest@3@AEAW4Error@3@@Z@AEAVcompressor@23@3@Z@QEBA@PEBV?$unordered_multimap@V?$basic_string@DU?$char_traits@D@std@@V?$allocator@D@2@@std@@V12@Uhash@case_ignore@detail@httplib@@Uequal_to@456@V?$allocator@U?$pair@$$CBV?$basic_string@DU?$char_traits@D@std@@V?$allocator@D@2@@std@@V12@@std@@@2@@6@@Z@$0A@@?$_Func_impl_no_alloc@V<lambda_1>@?1???R<lambda_3>@?1???$write_content_chunked@V<lambda_1>@?1??write_content_with_provider@ClientImpl@httplib@@IEBA_NAEAVStream@4@AEBURequest@4@AEAW4Error@4@@Z@Vcompressor@detail@4@@detail@httplib@@YA_NAEAVStream@4@AEBV?$function@$$A6A_N_K0AEAVDataSink@httplib@@@Z@std@@AEBV1?1??write_content_with_provider@ClientImpl@4@IEBA_N0AEBURequest@4@AEAW4Error@4@@Z@AEAVcompressor@34@3@Z@QEBA@PEBV?$unordered_multimap@V?$basic_string@DU?$char_traits@D@std@@V?$allocator@D@2@@std@@V12@Uhash@case_ignore@detail@httplib@@Uequal_to@456@V?$allocator@U?$pair@$$CBV?$basic_string@DU?$char_traits@D@std@@V?$allocator@D@2@@std@@V12@@std@@@2@@7@@Z@_NPEBD_K@std@@QEAA@$$QEAV<lambda_1>@?1???R<lambda_3>@?1???$write_content_chunked@V<lambda_1>@?1??write_content_with_provider@ClientImpl@httplib@@IEBA_NAEAVStream@4@AEBURequest@4@AEAW4Error@4@@Z@Vcompressor@detail@4@@detail@httplib@@YA_NAEAVStream@5@AEBV?$function@$$A6A_N_K0AEAVDataSink@httplib@@@Z@1@AEBV2?1??write_content_with_provider@ClientImpl@5@IEBA_N0AEBURequest@5@AEAW4Error@5@@Z@AEAVcompressor@45@3@Z@QEBA@PEBV?$unordered_multimap@V?$basic_string@DU?$char_traits@D@std@@V?$allocator@D@2@@std@@V12@Uhash@case_ignore@detail@httplib@@Uequal_to@456@V?$allocator@U?$pair@$$CBV?$basic_string@DU?$char_traits@D@std@@V?$allocator@D@2@@std@@V12@@std@@@2@@1@@Z@@Z
	??$?0V<lambda_1>@?1???R<lambda_3>@?1???$write_content_chunked@V<lambda_1>@?1??write_content_with_provider@ClientImpl@httplib@@IEBA_NAEAVStream@4@AEBURequest@4@AEAW4Error@4@@Z@Vcompressor@detail@4@@detail@httplib@@YA_NAEAVStream@3@AEBV?$function@$$A6A_N_K0AEAVDataSink@httplib@@@Z@std@@AEBV0?1??write_content_with_provider@ClientImpl@3@IEBA_N0AEBURequest@3@AEAW4Error@3@@Z@AEAVcompressor@23@3@Z@QEBA@PEBV?$unordered_multimap@V?$basic_string@DU?$char_traits@D@std@@V?$allocator@D@2@@std@@V12@Uhash@case_ignore@detail@httplib@@Uequal_to@456@V?$allocator@U?$pair@$$CBV?$basic_string@DU?$char_traits@D@std@@V?$allocator@D@2@@std@@V12@@std@@@2@@6@@Z@$0A@@?$function@$$A6A_NPEBD_K@Z@std@@QEAA@$$QEAV<lambda_1>@?1???R<lambda_3>@?1???$write_content_chunked@V<lambda_1>@?1??write_content_with_provider@ClientImpl@httplib@@IEBA_NAEAVStream@4@AEBURequest@4@AEAW4Error@4@@Z@Vcompressor@detail@4@@detail@httplib@@YA_NAEAVStream@5@AEBV?$function@$$A6A_N_K0AEAVDataSink@httplib@@@Z@1@AEBV2?1??write_content_with_provider@ClientImpl@5@IEBA_N0AEBURequest@5@AEAW4Error@5@@Z@AEAVcompressor@45@3@Z@QEBA@PEBV?$unordered_multimap@V?$basic_string@DU?$char_traits@D@std@@V?$allocator@D@2@@std@@V12@Uhash@case_ignore@detail@httplib@@Uequal_to@456@V?$allocator@U?$pair@$$CBV?$basic_string@DU?$char_traits@D@std@@V?$allocator@D@2@@std@@V12@@std@@@2@@1@@Z@@Z
	??$?0V<lambda_1>@?1??connect_nonblocking@tls@httplib@@YA_NPEAX_K_J2PEAUTlsError@23@@Z@$0A@@?$_Func_impl_no_alloc@V<lambda_1>@?1??connect_nonblocking@tls@httplib@@YA_NPEAX_K_J2PEAUTlsError@34@@Z@X$$V@std@@QEAA@$$QEAV<lambda_1>@?1??connect_nonblocking@tls@httplib@@YA_NPEAX_K_J2PEAUTlsError@45@@Z@@Z
	??$?0V<lambda_1>@?1??connect_nonblocking@tls@httplib@@YA_NPEAX_K_J2PEAUTlsError@23@@Z@$0A@@?$function@$$A6AXXZ@std@@QEAA@$$QEAV<lambda_1>@?1??connect_nonblocking@tls@httplib@@YA_NPEAX_K_J2PEAUTlsError@45@@Z@@Z
	??$?0V<lambda_1>@?1??initialize_ssl@SSLClient@httplib@@AEAA_NAEAUSocket@ClientImpl@3@AEAW4Error@3@@Z@$0A@@?$_Func_impl_no_alloc@V<lambda_1>@?1??initialize_ssl@SSLClient@httplib@@AEAA_NAEAUSocket@ClientImpl@4@AEAW4Error@4@@Z@X$$V@std@@QEAA@$$QEAV<lambda_1>@?1??initialize_ssl@SSLClient@httplib@@AEAA_NAEAUSocket@ClientImpl@5@AEAW4Error@5@@Z@@Z
	??$?0V<lambda_1>@?1??initialize_ssl@SSLClient@httplib@@AEAA_NAEAUSocket@ClientImpl@3@AEAW4Error@3@@Z@$0A@@?$function@$$A6AXXZ@std@@QEAA@$$QEAV<lambda_1>@?1??initialize_ssl@SSLClient@httplib@@AEAA_NAEAUSocket@ClientImpl@5@AEAW4Error@5@@Z@@Z
	??$?0V<lambda_1>@?1??is_peer_closed@tls@httplib@@YA_NPEAX_K@Z@$0A@@?$_Func_impl_no_alloc@V<lambda_1>@?1??is_peer_closed@tls@httplib@@YA_NPEAX_K@Z@X$$V@std@@QEAA@$$QEAV<lambda_1>@?1??is_peer_closed@tls@httplib@@YA_NPEAX_K@Z@@Z
	??$?0V<lambda_1>@?1??is_peer_closed@tls@httplib@@YA_NPEAX_K@Z@$0A@@?$function@$$A6AXXZ@std@@QEAA@$$QEAV<lambda_1>@?1??is_peer_closed@tls@httplib@@YA_NPEAX_K@Z@@Z
	??$?0V<lambda_1>@?1??normalize_query_string@detail@httplib@@YA?AV?$basic_string@DU?$char_traits@D@std@@V?$allocator@D@2@@std@@AEBV45@@Z@$0A@@?$_Func_impl_no_alloc@V<lambda_1>@?1??normalize_query_string@detail@httplib@@YA?AV?$basic_string@DU?$char_traits@D@std@@V?$allocator@D@2@@std@@AEBV56@@Z@XPEBDPEBD@std@@QEAA@$$QEAV<lambda_1>@?1??normalize_query_string@detail@httplib@@YA?AV?$basic_string@DU?$char_traits@D@std@@V?$allocator@D@2@@1@AEBV61@@Z@@Z
	??$?0V<lambda_1>@?1??normalize_query_string@detail@httplib@@YA?AV?$basic_string@DU?$char_traits@D@std@@V?$allocator@D@2@@std@@AEBV45@@Z@$0A@@?$function@$$A6AXPEBD0@Z@std@@QEAA@$$QEAV<lambda_1>@?1??normalize_query_string@detail@httplib@@YA?AV?$basic_string@DU?$char_traits@D@std@@V?$allocator@D@2@@1@AEBV61@@Z@@Z
	??$?0V<lambda_1>@?1??parse_query_text@detail@httplib@@YAXPEBD_KAEAV?$multimap@V?$basic_string@DU?$char_traits@D@std@@V?$allocator@D@2@@std@@V12@U?$less@V?$basic_string@DU?$char_traits@D@std@@V?$allocator@D@2@@std@@@2@V?$allocator@U?$pair@$$CBV?$basic_string@DU?$char_traits@D@std@@V?$allocator@D@2@@std@@V12@@std@@@2@@std@@@Z@$0A@@?$_Func_impl_no_alloc@V<lambda_1>@?1??parse_query_text@detail@httplib@@YAXPEBD_KAEAV?$multimap@V?$basic_string@DU?$char_traits@D@std@@V?$allocator@D@2@@std@@V12@U?$less@V?$basic_string@DU?$char_traits@D@std@@V?$allocator@D@2@@std@@@2@V?$allocator@U?$pair@$$CBV?$basic_string@DU?$char_traits@D@std@@V?$allocator@D@2@@std@@V12@@std@@@2@@std@@@Z@XPEBDPEBD@std@@QEAA@$$QEAV<lambda_1>@?1??parse_query_text@detail@httplib@@YAXPEBD_KAEAV?$multimap@V?$basic_string@DU?$char_traits@D@std@@V?$allocator@D@2@@std@@V12@U?$less@V?$basic_string@DU?$char_traits@D@std@@V?$allocator@D@2@@std@@@2@V?$allocator@U?$pair@$$CBV?$basic_string@DU?$char_traits@D@std@@V?$allocator@D@2@@std@@V12@@std@@@2@@1@@Z@@Z
	??$?0V<lambda_1>@?1??parse_query_text@detail@httplib@@YAXPEBD_KAEAV?$multimap@V?$basic_string@DU?$char_traits@D@std@@V?$allocator@D@2@@std@@V12@U?$less@V?$basic_string@DU?$char_traits@D@std@@V?$allocator@D@2@@std@@@2@V?$allocator@U?$pair@$$CBV?$basic_string@DU?$char_traits@D@std@@V?$allocator@D@2@@std@@V12@@std@@@2@@std@@@Z@$0A@@?$function@$$A6AXPEBD0@Z@std@@QEAA@$$QEAV<lambda_1>@?1??parse_query_text@detail@httplib@@YAXPEBD_KAEAV?$multimap@V?$basic_string@DU?$char_traits@D@std@@V?$allocator@D@2@@std@@V12@U?$less@V?$basic_string@DU?$char_traits@D@std@@V?$allocator@D@2@@std@@@2@V?$allocator@U?$pair@$$CBV?$basic_string@DU?$char_traits@D@std@@V?$allocator@D@2@@std@@V12@@std@@@2@@1@@Z@@Z
	??$?0V<lambda_1>@?1??send_@ClientImpl@httplib@@AEAA_NAEAURequest@3@AEAUResponse@3@AEAW4Error@3@@Z@$0A@@?$_Func_impl_no_alloc@V<lambda_1>@?1??send_@ClientImpl@httplib@@AEAA_NAEAURequest@4@AEAUResponse@4@AEAW4Error@4@@Z@X$$V@std@@QEAA@$$QEAV<lambda_1>@?1??send_@ClientImpl@httplib@@AEAA_NAEAURequest@5@AEAUResponse@5@AEAW4Error@5@@Z@@Z
	??$?0V<lambda_1>@?1??send_@ClientImpl@httplib@@AEAA_NAEAURequest@3@AEAUResponse@3@AEAW4Error@3@@Z@$0A@@?$function@$$A6AXXZ@std@@QEAA@$$QEAV<lambda_1>@?1??send_@ClientImpl@httplib@@AEAA_NAEAURequest@5@AEAUResponse@5@AEAW4Error@5@@Z@@Z
	??$?0V<lambda_1>@?1??set_server_certificate_verifier@SSLClient@httplib@@UEAAXV?$function@$$A6A?AW4SSLVerifierResponse@httplib@@PEAUssl_st@@@Z@std@@@Z@$0A@@?$_Func_impl_no_alloc@V<lambda_1>@?1??set_server_certificate_verifier@SSLClient@httplib@@UEAAXV?$function@$$A6A?AW4SSLVerifierResponse@httplib@@PEAUssl_st@@@Z@std@@@Z@W4SSLVerifierResponse@4@PEAX@std@@QEAA@$$QEAV<lambda_1>@?1??set_server_certificate_verifier@SSLClient@httplib@@UEAAXV?$function@$$A6A?AW4SSLVerifierResponse@httplib@@PEAUssl_st@@@Z@1@@Z@@Z
	??$?0V<lambda_1>@?1??set_server_certificate_verifier@SSLClient@httplib@@UEAAXV?$function@$$A6A?AW4SSLVerifierResponse@httplib@@PEAUssl_st@@@Z@std@@@Z@$0A@@?$function@$$A6A?AW4SSLVerifierResponse@httplib@@PEAX@Z@std@@QEAA@$$QEAV<lambda_1>@?1??set_server_certificate_verifier@SSLClient@httplib@@UEAAXV?$function@$$A6A?AW4SSLVerifierResponse@httplib@@PEAUssl_st@@@Z@1@@Z@@Z
	??$?0V<lambda_1>@?1??verify_cert_with_windows_schannel@detail@httplib@@YA_NAEBV?$vector@EV?$allocator@E@std@@@std@@AEBV?$basic_string@DU?$char_traits@D@std@@V?$allocator@D@2@@5@_NAEA_K@Z@$0A@@?$_Func_impl_no_alloc@V<lambda_1>@?1??verify_cert_with_windows_schannel@detail@httplib@@YA_NAEBV?$vector@EV?$allocator@E@std@@@std@@AEBV?$basic_string@DU?$char_traits@D@std@@V?$allocator@D@2@@6@_NAEA_K@Z@X$$V@std@@QEAA@$$QEAV<lambda_1>@?1??verify_cert_with_windows_schannel@detail@httplib@@YA_NAEBV?$vector@EV?$allocator@E@std@@@1@AEBV?$basic_string@DU?$char_traits@D@std@@V?$allocator@D@2@@1@_NAEA_K@Z@@Z
	??$?0V<lambda_1>@?1??verify_cert_with_windows_schannel@detail@httplib@@YA_NAEBV?$vector@EV?$allocator@E@std@@@std@@AEBV?$basic_string@DU?$char_traits@D@std@@V?$allocator@D@2@@5@_NAEA_K@Z@$0A@@?$function@$$A6AXXZ@std@@QEAA@$$QEAV<lambda_1>@?1??verify_cert_with_windows_schannel@detail@httplib@@YA_NAEBV?$vector@EV?$allocator@E@std@@@1@AEBV?$basic_string@DU?$char_traits@D@std@@V?$allocator@D@2@@1@_NAEA_K@Z@@Z
	??$?0V<lambda_1>@?4???R0?1???$write_content_chunked@V<lambda_1>@?1??write_content_with_provider@ClientImpl@httplib@@IEBA_NAEAVStream@4@AEBURequest@4@AEAW4Error@4@@Z@Vcompressor@detail@4@@detail@httplib@@YA_NAEAVStream@2@AEBV?$function@$$A6A_N_K0AEAVDataSink@httplib@@@Z@std@@AEBV0?1??write_content_with_provider@ClientImpl@2@IEBA_N0AEBURequest@2@AEAW4Error@2@@Z@AEAVcompressor@12@3@Z@QEBA_NPEBD_K@Z@$0A@@?$_Func_impl_no_alloc@V<lambda_1>@?4???R1?1???$write_content_chunked@V<lambda_1>@?1??write_content_with_provider@ClientImpl@httplib@@IEBA_NAEAVStream@4@AEBURequest@4@AEAW4Error@4@@Z@Vcompressor@detail@4@@detail@httplib@@YA_NAEAVStream@3@AEBV?$function@$$A6A_N_K0AEAVDataSink@httplib@@@Z@std@@AEBV1?1??write_content_with_provider@ClientImpl@3@IEBA_N0AEBURequest@3@AEAW4Error@3@@Z@AEAVcompressor@23@3@Z@QEBA_NPEBD_K@Z@_NPEBD_K@std@@QEAA@$$QEAV<lambda_1>@?4???R2?1???$write_content_chunked@V<lambda_1>@?1??write_content_with_provider@ClientImpl@httplib@@IEBA_NAEAVStream@4@AEBURequest@4@AEAW4Error@4@@Z@Vcompressor@detail@4@@detail@httplib@@YA_NAEAVStream@4@AEBV?$function@$$A6A_N_K0AEAVDataSink@httplib@@@Z@1@AEBV2?1??write_content_with_provider@ClientImpl@4@IEBA_N0AEBURequest@4@AEAW4Error@4@@Z@AEAVcompressor@34@3@Z@QEBA_NPEBD_K@Z@@Z
	??$?0V<lambda_1>@?4???R0?1???$write_content_chunked@V<lambda_1>@?1??write_content_with_provider@ClientImpl@httplib@@IEBA_NAEAVStream@4@AEBURequest@4@AEAW4Error@4@@Z@Vcompressor@detail@4@@detail@httplib@@YA_NAEAVStream@2@AEBV?$function@$$A6A_N_K0AEAVDataSink@httplib@@@Z@std@@AEBV0?1??write_content_with_provider@ClientImpl@2@IEBA_N0AEBURequest@2@AEAW4Error@2@@Z@AEAVcompressor@12@3@Z@QEBA_NPEBD_K@Z@$0A@@?$function@$$A6A_NPEBD_K@Z@std@@QEAA@$$QEAV<lambda_1>@?4???R2?1???$write_content_chunked@V<lambda_1>@?1??write_content_with_provider@ClientImpl@httplib@@IEBA_NAEAVStream@4@AEBURequest@4@AEAW4Error@4@@Z@Vcompressor@detail@4@@detail@httplib@@YA_NAEAVStream@4@AEBV?$function@$$A6A_N_K0AEAVDataSink@httplib@@@Z@1@AEBV2?1??write_content_with_provider@ClientImpl@4@IEBA_N0AEBURequest@4@AEAW4Error@4@@Z@AEAVcompressor@34@3@Z@QEBA_NPEBD_K@Z@@Z
	??$?0V<lambda_1>@?4???R0?O@??send_with_content_provider_and_receiver@ClientImpl@httplib@@AEAA?AV?$unique_ptr@UResponse@httplib@@U?$default_delete@UResponse@httplib@@@std@@@std@@AEAURequest@3@PEBD_KV?$function@$$A6A_N_K0AEAVDataSink@httplib@@@Z@5@V?$function@$$A6A_N_KAEAVDataSink@httplib@@@Z@5@AEBV?$basic_string@DU?$char_traits@D@std@@V?$allocator@D@2@@5@V?$function@$$A6A_NPEBD_K@Z@5@AEAW4Error@3@@Z@QEBA_N12@Z@$0A@@?$_Func_impl_no_alloc@V<lambda_1>@?4???R1?O@??send_with_content_provider_and_receiver@ClientImpl@httplib@@AEAA?AV?$unique_ptr@UResponse@httplib@@U?$default_delete@UResponse@httplib@@@std@@@std@@AEAURequest@4@PEBD_KV?$function@$$A6A_N_K0AEAVDataSink@httplib@@@Z@6@V?$function@$$A6A_N_KAEAVDataSink@httplib@@@Z@6@AEBV?$basic_string@DU?$char_traits@D@std@@V?$allocator@D@2@@6@V?$function@$$A6A_NPEBD_K@Z@6@AEAW4Error@4@@Z@QEBA_N12@Z@_NPEBD_K@std@@QEAA@$$QEAV<lambda_1>@?4???R2?O@??send_with_content_provider_and_receiver@ClientImpl@httplib@@AEAA?AV?$unique_ptr@UResponse@httplib@@U?$default_delete@UResponse@httplib@@@std@@@1@AEAURequest@5@PEBD_KV?$function@$$A6A_N_K0AEAVDataSink@httplib@@@Z@1@V?$function@$$A6A_N_KAEAVDataSink@httplib@@@Z@1@AEBV?$basic_string@DU?$char_traits@D@std@@V?$allocator@D@2@@1@V?$function@$$A6A_NPEBD_K@Z@1@AEAW4Error@5@@Z@QEBA_N12@Z@@Z
	??$?0V<lambda_1>@?4???R0?O@??send_with_content_provider_and_receiver@ClientImpl@httplib@@AEAA?AV?$unique_ptr@UResponse@httplib@@U?$default_delete@UResponse@httplib@@@std@@@std@@AEAURequest@3@PEBD_KV?$function@$$A6A_N_K0AEAVDataSink@httplib@@@Z@5@V?$function@$$A6A_N_KAEAVDataSink@httplib@@@Z@5@AEBV?$basic_string@DU?$char_traits@D@std@@V?$allocator@D@2@@5@V?$function@$$A6A_NPEBD_K@Z@5@AEAW4Error@3@@Z@QEBA_N12@Z@$0A@@?$function@$$A6A_NPEBD_K@Z@std@@QEAA@$$QEAV<lambda_1>@?4???R2?O@??send_with_content_provider_and_receiver@ClientImpl@httplib@@AEAA?AV?$unique_ptr@UResponse@httplib@@U?$default_delete@UResponse@httplib@@@std@@@1@AEAURequest@5@PEBD_KV?$function@$$A6A_N_K0AEAVDataSink@httplib@@@Z@1@V?$function@$$A6A_N_KAEAVDataSink@httplib@@@Z@1@AEBV?$basic_string@DU?$char_traits@D@std@@V?$allocator@D@2@@1@V01@AEAW4Error@5@@Z@QEBA_N12@Z@@Z
	??$?0V<lambda_1>@?4??parse_trailers@detail@httplib@@YA_NAEAVstream_line_reader@23@AEAV?$unordered_multimap@V?$basic_string@DU?$char_traits@D@std@@V?$allocator@D@2@@std@@V12@Uhash@case_ignore@detail@httplib@@Uequal_to@456@V?$allocator@U?$pair@$$CBV?$basic_string@DU?$char_traits@D@std@@V?$allocator@D@2@@std@@V12@@std@@@2@@std@@AEBV56@@Z@$0A@@?$_Func_impl_no_alloc@V<lambda_1>@?4??parse_trailers@detail@httplib@@YA_NAEAVstream_line_reader@34@AEAV?$unordered_multimap@V?$basic_string@DU?$char_traits@D@std@@V?$allocator@D@2@@std@@V12@Uhash@case_ignore@detail@httplib@@Uequal_to@456@V?$allocator@U?$pair@$$CBV?$basic_string@DU?$char_traits@D@std@@V?$allocator@D@2@@std@@V12@@std@@@2@@std@@AEBV67@@Z@XPEBDPEBD@std@@QEAA@$$QEAV<lambda_1>@?4??parse_trailers@detail@httplib@@YA_NAEAVstream_line_reader@45@AEAV?$unordered_multimap@V?$basic_string@DU?$char_traits@D@std@@V?$allocator@D@2@@std@@V12@Uhash@case_ignore@detail@httplib@@Uequal_to@456@V?$allocator@U?$pair@$$CBV?$basic_string@DU?$char_traits@D@std@@V?$allocator@D@2@@std@@V12@@std@@@2@@1@AEBV71@@Z@@Z
	??$?0V<lambda_1>@?4??parse_trailers@detail@httplib@@YA_NAEAVstream_line_reader@23@AEAV?$unordered_multimap@V?$basic_string@DU?$char_traits@D@std@@V?$allocator@D@2@@std@@V12@Uhash@case_ignore@detail@httplib@@Uequal_to@456@V?$allocator@U?$pair@$$CBV?$basic_string@DU?$char_traits@D@std@@V?$allocator@D@2@@std@@V12@@std@@@2@@std@@AEBV56@@Z@$0A@@?$function@$$A6AXPEBD0@Z@std@@QEAA@$$QEAV<lambda_1>@?4??parse_trailers@detail@httplib@@YA_NAEAVstream_line_reader@45@AEAV?$unordered_multimap@V?$basic_string@DU?$char_traits@D@std@@V?$allocator@D@2@@std@@V12@Uhash@case_ignore@detail@httplib@@Uequal_to@456@V?$allocator@U?$pair@$$CBV?$basic_string@DU?$char_traits@D@std@@V?$allocator@D@2@@std@@V12@@std@@@2@@1@AEBV71@@Z@@Z
	??$?0V<lambda_1>@?BB@???$prepare_content_receiver@UResponse@httplib@@V<lambda_1>@?1???$read_content@UResponse@httplib@@@detail@2@YA_NAEAVStream@2@AEAU12@_KAEAHV?$function@$$A6A_N_K0@Z@std@@V?$function@$$A6A_NPEBD_K11@Z@7@_N@Z@@detail@httplib@@YA_NAEAUResponse@2@AEAHV?$function@$$A6A_NPEBD_K11@Z@std@@_N_KAEA_NV0?1???$read_content@UResponse@httplib@@@12@YA_NAEAVStream@2@041V?$function@$$A6A_N_K0@Z@5@23@Z@@Z@$0A@@?$_Func_impl_no_alloc@V<lambda_1>@?BB@???$prepare_content_receiver@UResponse@httplib@@V<lambda_1>@?1???$read_content@UResponse@httplib@@@detail@2@YA_NAEAVStream@2@AEAU12@_KAEAHV?$function@$$A6A_N_K0@Z@std@@V?$function@$$A6A_NPEBD_K11@Z@7@_N@Z@@detail@httplib@@YA_NAEAUResponse@3@AEAHV?$function@$$A6A_NPEBD_K11@Z@std@@_N_KAEA_NV1?1???$read_content@UResponse@httplib@@@23@YA_NAEAVStream@3@041V?$function@$$A6A_N_K0@Z@6@23@Z@@Z@_NPEBD_K_K_K@std@@QEAA@$$QEAV<lambda_1>@?BB@???$prepare_content_receiver@UResponse@httplib@@V<lambda_1>@?1???$read_content@UResponse@httplib@@@detail@2@YA_NAEAVStream@2@AEAU12@_KAEAHV?$function@$$A6A_N_K0@Z@std@@V?$function@$$A6A_NPEBD_K11@Z@7@_N@Z@@detail@httplib@@YA_NAEAUResponse@4@AEAHV?$function@$$A6A_NPEBD_K11@Z@1@_N_KAEA_NV2?1???$read_content@UResponse@httplib@@@34@YA_NAEAVStream@4@041V?$function@$$A6A_N_K0@Z@1@23@Z@@Z@@Z
	??$?0V<lambda_1>@?BB@???$prepare_content_receiver@UResponse@httplib@@V<lambda_1>@?1???$read_content@UResponse@httplib@@@detail@2@YA_NAEAVStream@2@AEAU12@_KAEAHV?$function@$$A6A_N_K0@Z@std@@V?$function@$$A6A_NPEBD_K11@Z@7@_N@Z@@detail@httplib@@YA_NAEAUResponse@2@AEAHV?$function@$$A6A_NPEBD_K11@Z@std@@_N_KAEA_NV0?1???$read_content@UResponse@httplib@@@12@YA_NAEAVStream@2@041V?$function@$$A6A_N_K0@Z@5@23@Z@@Z@$0A@@?$function@$$A6A_NPEBD_K11@Z@std@@QEAA@$$QEAV<lambda_1>@?BB@???$prepare_content_receiver@UResponse@httplib@@V<lambda_1>@?1???$read_content@UResponse@httplib@@@detail@2@YA_NAEAVStream@2@AEAU12@_KAEAHV?$function@$$A6A_N_K0@Z@std@@V?$function@$$A6A_NPEBD_K11@Z@7@_N@Z@@detail@httplib@@YA_NAEAUResponse@4@AEAHV01@_N_KAEA_NV2?1???$read_content@UResponse@httplib@@@34@YA_NAEAVStream@4@041V?$function@$$A6A_N_K0@Z@1@23@Z@@Z@@Z
	??$?0V<lambda_1>@?DC@??process_request@ClientImpl@httplib@@IEAA_NAEAVStream@3@AEAURequest@3@AEAUResponse@3@_NAEAW4Error@3@@Z@$0A@@?$_Func_impl_no_alloc@V<lambda_1>@?DC@??process_request@ClientImpl@httplib@@IEAA_NAEAVStream@4@AEAURequest@4@AEAUResponse@4@_NAEAW4Error@4@@Z@_NPEBD_K_K_K@std@@QEAA@$$QEAV<lambda_1>@?DC@??process_request@ClientImpl@httplib@@IEAA_NAEAVStream@5@AEAURequest@5@AEAUResponse@5@_NAEAW4Error@5@@Z@@Z
	??$?0V<lambda_1>@?DC@??process_request@ClientImpl@httplib@@IEAA_NAEAVStream@3@AEAURequest@3@AEAUResponse@3@_NAEAW4Error@3@@Z@$0A@@?$function@$$A6A_NPEBD_K11@Z@std@@QEAA@$$QEAV<lambda_1>@?DC@??process_request@ClientImpl@httplib@@IEAA_NAEAVStream@5@AEAURequest@5@AEAUResponse@5@_NAEAW4Error@5@@Z@@Z
	??$?0V<lambda_1>@?O@??send_with_content_provider_and_receiver@ClientImpl@httplib@@AEAA?AV?$unique_ptr@UResponse@httplib@@U?$default_delete@UResponse@httplib@@@std@@@std@@AEAURequest@3@PEBD_KV?$function@$$A6A_N_K0AEAVDataSink@httplib@@@Z@5@V?$function@$$A6A_N_KAEAVDataSink@httplib@@@Z@5@AEBV?$basic_string@DU?$char_traits@D@std@@V?$allocator@D@2@@5@V?$function@$$A6A_NPEBD_K@Z@5@AEAW4Error@3@@Z@$0A@@?$_Func_impl_no_alloc@V<lambda_1>@?O@??send_with_content_provider_and_receiver@ClientImpl@httplib@@AEAA?AV?$unique_ptr@UResponse@httplib@@U?$default_delete@UResponse@httplib@@@std@@@std@@AEAURequest@4@PEBD_KV?$function@$$A6A_N_K0AEAVDataSink@httplib@@@Z@6@V?$function@$$A6A_N_KAEAVDataSink@httplib@@@Z@6@AEBV?$basic_string@DU?$char_traits@D@std@@V?$allocator@D@2@@6@V?$function@$$A6A_NPEBD_K@Z@6@AEAW4Error@4@@Z@_NPEBD_K@std@@QEAA@$$QEAV<lambda_1>@?O@??send_with_content_provider_and_receiver@ClientImpl@httplib@@AEAA?AV?$unique_ptr@UResponse@httplib@@U?$default_delete@UResponse@httplib@@@std@@@1@AEAURequest@5@PEBD_KV?$function@$$A6A_N_K0AEAVDataSink@httplib@@@Z@1@V?$function@$$A6A_N_KAEAVDataSink@httplib@@@Z@1@AEBV?$basic_string@DU?$char_traits@D@std@@V?$allocator@D@2@@1@V?$function@$$A6A_NPEBD_K@Z@1@AEAW4Error@5@@Z@@Z
	??$?0V<lambda_1>@?O@??send_with_content_provider_and_receiver@ClientImpl@httplib@@AEAA?AV?$unique_ptr@UResponse@httplib@@U?$default_delete@UResponse@httplib@@@std@@@std@@AEAURequest@3@PEBD_KV?$function@$$A6A_N_K0AEAVDataSink@httplib@@@Z@5@V?$function@$$A6A_N_KAEAVDataSink@httplib@@@Z@5@AEBV?$basic_string@DU?$char_traits@D@std@@V?$allocator@D@2@@5@V?$function@$$A6A_NPEBD_K@Z@5@AEAW4Error@3@@Z@$0A@@?$function@$$A6A_NPEBD_K@Z@std@@QEAA@$$QEAV<lambda_1>@?O@??send_with_content_provider_and_receiver@ClientImpl@httplib@@AEAA?AV?$unique_ptr@UResponse@httplib@@U?$default_delete@UResponse@httplib@@@std@@@1@AEAURequest@5@PEBD_KV?$function@$$A6A_N_K0AEAVDataSink@httplib@@@Z@1@V?$function@$$A6A_N_KAEAVDataSink@httplib@@@Z@1@AEBV?$basic_string@DU?$char_traits@D@std@@V?$allocator@D@2@@1@V01@AEAW4Error@5@@Z@@Z
	??$?0V<lambda_2>@?0??connect_with_proxy@SSLClient@httplib@@AEAA_NAEAUSocket@ClientImpl@3@V?$time_point@Usteady_clock@chrono@std@@V?$duration@_JU?$ratio@$00$0DLJKMKAA@@std@@@23@@chrono@std@@AEAUResponse@3@AEA_NAEAW4Error@3@@Z@$0A@@?$_Func_impl_no_alloc@V<lambda_2>@?0??connect_with_proxy@SSLClient@httplib@@AEAA_NAEAUSocket@ClientImpl@4@V?$time_point@Usteady_clock@chrono@std@@V?$duration@_JU?$ratio@$00$0DLJKMKAA@@std@@@23@@chrono@std@@AEAUResponse@4@AEA_NAEAW4Error@4@@Z@_NAEAVStream@4@@std@@QEAA@$$QEAV<lambda_2>@?0??connect_with_proxy@SSLClient@httplib@@AEAA_NAEAUSocket@ClientImpl@5@V?$time_point@Usteady_clock@chrono@std@@V?$duration@_JU?$ratio@$00$0DLJKMKAA@@std@@@23@@chrono@1@AEAUResponse@5@AEA_NAEAW4Error@5@@Z@@Z
	??$?0V<lambda_2>@?0??connect_with_proxy@SSLClient@httplib@@AEAA_NAEAUSocket@ClientImpl@3@V?$time_point@Usteady_clock@chrono@std@@V?$duration@_JU?$ratio@$00$0DLJKMKAA@@std@@@23@@chrono@std@@AEAUResponse@3@AEA_NAEAW4Error@3@@Z@$0A@@?$function@$$A6A_NAEAVStream@httplib@@@Z@std@@QEAA@$$QEAV<lambda_2>@?0??connect_with_proxy@SSLClient@httplib@@AEAA_NAEAUSocket@ClientImpl@5@V?$time_point@Usteady_clock@chrono@std@@V?$duration@_JU?$ratio@$00$0DLJKMKAA@@std@@@23@@chrono@1@AEAUResponse@5@AEA_NAEAW4Error@5@@Z@@Z
	??$?0V<lambda_2>@?0??send_with_content_provider_and_receiver@ClientImpl@httplib@@AEAA?AV?$unique_ptr@UResponse@httplib@@U?$default_delete@UResponse@httplib@@@std@@@std@@AEAURequest@3@PEBD_KV?$function@$$A6A_N_K0AEAVDataSink@httplib@@@Z@5@V?$function@$$A6A_N_KAEAVDataSink@httplib@@@Z@5@AEBV?$basic_string@DU?$char_traits@D@std@@V?$allocator@D@2@@5@V?$function@$$A6A_NPEBD_K@Z@5@AEAW4Error@3@@Z@$0A@@?$_Func_impl_no_alloc@V<lambda_2>@?0??send_with_content_provider_and_receiver@ClientImpl@httplib@@AEAA?AV?$unique_ptr@UResponse@httplib@@U?$default_delete@UResponse@httplib@@@std@@@std@@AEAURequest@4@PEBD_KV?$function@$$A6A_N_K0AEAVDataSink@httplib@@@Z@6@V?$function@$$A6A_N_KAEAVDataSink@httplib@@@Z@6@AEBV?$basic_string@DU?$char_traits@D@std@@V?$allocator@D@2@@6@V?$function@$$A6A_NPEBD_K@Z@6@AEAW4Error@4@@Z@_NPEBD_K@std@@QEAA@$$QEAV<lambda_2>@?0??send_with_content_provider_and_receiver@ClientImpl@httplib@@AEAA?AV?$unique_ptr@UResponse@httplib@@U?$default_delete@UResponse@httplib@@@std@@@1@AEAURequest@5@PEBD_KV?$function@$$A6A_N_K0AEAVDataSink@httplib@@@Z@1@V?$function@$$A6A_N_KAEAVDataSink@httplib@@@Z@1@AEBV?$basic_string@DU?$char_traits@D@std@@V?$allocator@D@2@@1@V?$function@$$A6A_NPEBD_K@Z@1@AEAW4Error@5@@Z@@Z
	??$?0V<lambda_2>@?0??send_with_content_provider_and_receiver@ClientImpl@httplib@@AEAA?AV?$unique_ptr@UResponse@httplib@@U?$default_delete@UResponse@httplib@@@std@@@std@@AEAURequest@3@PEBD_KV?$function@$$A6A_N_K0AEAVDataSink@httplib@@@Z@5@V?$function@$$A6A_N_KAEAVDataSink@httplib@@@Z@5@AEBV?$basic_string@DU?$char_traits@D@std@@V?$allocator@D@2@@5@V?$function@$$A6A_NPEBD_K@Z@5@AEAW4Error@3@@Z@$0A@@?$function@$$A6A_NPEBD_K@Z@std@@QEAA@$$QEAV<lambda_2>@?0??send_with_content_provider_and_receiver@ClientImpl@httplib@@AEAA?AV?$unique_ptr@UResponse@httplib@@U?$default_delete@UResponse@httplib@@@std@@@1@AEAURequest@5@PEBD_KV?$function@$$A6A_N_K0AEAVDataSink@httplib@@@Z@1@V?$function@$$A6A_N_KAEAVDataSink@httplib@@@Z@1@AEBV?$basic_string@DU?$char_traits@D@std@@V?$allocator@D@2@@1@V01@AEAW4Error@5@@Z@@Z
	??$?0V<lambda_2>@?1???$prepare_content_receiver@UResponse@httplib@@V<lambda_1>@?1???$read_content@UResponse@httplib@@@detail@2@YA_NAEAVStream@2@AEAU12@_KAEAHV?$function@$$A6A_N_K0@Z@std@@V?$function@$$A6A_NPEBD_K11@Z@7@_N@Z@@detail@httplib@@YA_NAEAUResponse@2@AEAHV?$function@$$A6A_NPEBD_K11@Z@std@@_N_KAEA_NV<lambda_1>@?1???$read_content@UResponse@httplib@@@12@YA_NAEAVStream@2@041V?$function@$$A6A_N_K0@Z@5@23@Z@@Z@$0A@@?$_Func_impl_no_alloc@V<lambda_2>@?1???$prepare_content_receiver@UResponse@httplib@@V<lambda_1>@?1???$read_content@UResponse@httplib@@@detail@2@YA_NAEAVStream@2@AEAU12@_KAEAHV?$function@$$A6A_N_K0@Z@std@@V?$function@$$A6A_NPEBD_K11@Z@7@_N@Z@@detail@httplib@@YA_NAEAUResponse@3@AEAHV?$function@$$A6A_NPEBD_K11@Z@std@@_N_KAEA_NV<lambda_1>@?1???$read_content@UResponse@httplib@@@23@YA_NAEAVStream@3@041V?$function@$$A6A_N_K0@Z@6@23@Z@@Z@_NPEBD_K_K_K@std@@QEAA@$$QEAV<lambda_2>@?1???$prepare_content_receiver@UResponse@httplib@@V<lambda_1>@?1???$read_content@UResponse@httplib@@@detail@2@YA_NAEAVStream@2@AEAU12@_KAEAHV?$function@$$A6A_N_K0@Z@std@@V?$function@$$A6A_NPEBD_K11@Z@7@_N@Z@@detail@httplib@@YA_NAEAUResponse@4@AEAHV?$function@$$A6A_NPEBD_K11@Z@1@_N_KAEA_NV<lambda_1>@?1???$read_content@UResponse@httplib@@@34@YA_NAEAVStream@4@041V?$function@$$A6A_N_K0@Z@1@23@Z@@Z@@Z
	??$?0V<lambda_2>@?1???$prepare_content_receiver@UResponse@httplib@@V<lambda_1>@?1???$read_content@UResponse@httplib@@@detail@2@YA_NAEAVStream@2@AEAU12@_KAEAHV?$function@$$A6A_N_K0@Z@std@@V?$function@$$A6A_NPEBD_K11@Z@7@_N@Z@@detail@httplib@@YA_NAEAUResponse@2@AEAHV?$function@$$A6A_NPEBD_K11@Z@std@@_N_KAEA_NV<lambda_1>@?1???$read_content@UResponse@httplib@@@12@YA_NAEAVStream@2@041V?$function@$$A6A_N_K0@Z@5@23@Z@@Z@$0A@@?$function@$$A6A_NPEBD_K11@Z@std@@QEAA@$$QEAV<lambda_2>@?1???$prepare_content_receiver@UResponse@httplib@@V<lambda_1>@?1???$read_content@UResponse@httplib@@@detail@2@YA_NAEAVStream@2@AEAU12@_KAEAHV?$function@$$A6A_N_K0@Z@std@@V?$function@$$A6A_NPEBD_K11@Z@7@_N@Z@@detail@httplib@@YA_NAEAUResponse@4@AEAHV01@_N_KAEA_NV<lambda_1>@?1???$read_content@UResponse@httplib@@@34@YA_NAEAVStream@4@041V?$function@$$A6A_N_K0@Z@1@23@Z@@Z@@Z
	??$?0V<lambda_2>@?1???$write_content_chunked@V<lambda_1>@?1??write_content_with_provider@ClientImpl@httplib@@IEBA_NAEAVStream@4@AEBURequest@4@AEAW4Error@4@@Z@Vcompressor@detail@4@@detail@httplib@@YA_NAEAVStream@2@AEBV?$function@$$A6A_N_K0AEAVDataSink@httplib@@@Z@std@@AEBV<lambda_1>@?1??write_content_with_provider@ClientImpl@2@IEBA_N0AEBURequest@2@AEAW4Error@2@@Z@AEAVcompressor@12@3@Z@$0A@@?$_Func_impl_no_alloc@V<lambda_2>@?1???$write_content_chunked@V<lambda_1>@?1??write_content_with_provider@ClientImpl@httplib@@IEBA_NAEAVStream@4@AEBURequest@4@AEAW4Error@4@@Z@Vcompressor@detail@4@@detail@httplib@@YA_NAEAVStream@3@AEBV?$function@$$A6A_N_K0AEAVDataSink@httplib@@@Z@std@@AEBV<lambda_1>@?1??write_content_with_provider@ClientImpl@3@IEBA_N0AEBURequest@3@AEAW4Error@3@@Z@AEAVcompressor@23@3@Z@_N$$V@std@@QEAA@$$QEAV<lambda_2>@?1???$write_content_chunked@V<lambda_1>@?1??write_content_with_provider@ClientImpl@httplib@@IEBA_NAEAVStream@4@AEBURequest@4@AEAW4Error@4@@Z@Vcompressor@detail@4@@detail@httplib@@YA_NAEAVStream@4@AEBV?$function@$$A6A_N_K0AEAVDataSink@httplib@@@Z@1@AEBV<lambda_1>@?1??write_content_with_provider@ClientImpl@4@IEBA_N0AEBURequest@4@AEAW4Error@4@@Z@AEAVcompressor@34@3@Z@@Z
	??$?0V<lambda_2>@?1???$write_content_chunked@V<lambda_1>@?1??write_content_with_provider@ClientImpl@httplib@@IEBA_NAEAVStream@4@AEBURequest@4@AEAW4Error@4@@Z@Vcompressor@detail@4@@detail@httplib@@YA_NAEAVStream@2@AEBV?$function@$$A6A_N_K0AEAVDataSink@httplib@@@Z@std@@AEBV<lambda_1>@?1??write_content_with_provider@ClientImpl@2@IEBA_N0AEBURequest@2@AEAW4Error@2@@Z@AEAVcompressor@12@3@Z@$0A@@?$function@$$A6A_NXZ@std@@QEAA@$$QEAV<lambda_2>@?1???$write_content_chunked@V<lambda_1>@?1??write_content_with_provider@ClientImpl@httplib@@IEBA_NAEAVStream@4@AEBURequest@4@AEAW4Error@4@@Z@Vcompressor@detail@4@@detail@httplib@@YA_NAEAVStream@4@AEBV?$function@$$A6A_N_K0AEAVDataSink@httplib@@@Z@1@AEBV<lambda_1>@?1??write_content_with_provider@ClientImpl@4@IEBA_N0AEBURequest@4@AEAW4Error@4@@Z@AEAVcompressor@34@3@Z@@Z
	??$?0V<lambda_2>@?1???$write_content_with_progress@V<lambda_1>@?1??write_content_with_provider@ClientImpl@httplib@@IEBA_NAEAVStream@4@AEBURequest@4@AEAW4Error@4@@Z@@detail@httplib@@YA_NAEAVStream@2@AEBV?$function@$$A6A_N_K0AEAVDataSink@httplib@@@Z@std@@_K2V<lambda_1>@?1??write_content_with_provider@ClientImpl@2@IEBA_N0AEBURequest@2@AEAW4Error@2@@Z@AEBV?$function@$$A6A_N_K0@Z@5@4@Z@$0A@@?$_Func_impl_no_alloc@V<lambda_2>@?1???$write_content_with_progress@V<lambda_1>@?1??write_content_with_provider@ClientImpl@httplib@@IEBA_NAEAVStream@4@AEBURequest@4@AEAW4Error@4@@Z@@detail@httplib@@YA_NAEAVStream@3@AEBV?$function@$$A6A_N_K0AEAVDataSink@httplib@@@Z@std@@_K2V<lambda_1>@?1??write_content_with_provider@ClientImpl@3@IEBA_N0AEBURequest@3@AEAW4Error@3@@Z@AEBV?$function@$$A6A_N_K0@Z@6@4@Z@_N$$V@std@@QEAA@$$QEAV<lambda_2>@?1???$write_content_with_progress@V<lambda_1>@?1??write_content_with_provider@ClientImpl@httplib@@IEBA_NAEAVStream@4@AEBURequest@4@AEAW4Error@4@@Z@@detail@httplib@@YA_NAEAVStream@4@AEBV?$function@$$A6A_N_K0AEAVDataSink@httplib@@@Z@1@_K2V<lambda_1>@?1??write_content_with_provider@ClientImpl@4@IEBA_N0AEBURequest@4@AEAW4Error@4@@Z@AEBV?$function@$$A6A_N_K0@Z@1@4@Z@@Z
	??$?0V<lambda_2>@?1???$write_content_with_progress@V<lambda_1>@?1??write_content_with_provider@ClientImpl@httplib@@IEBA_NAEAVStream@4@AEBURequest@4@AEAW4Error@4@@Z@@detail@httplib@@YA_NAEAVStream@2@AEBV?$function@$$A6A_N_K0AEAVDataSink@httplib@@@Z@std@@_K2V<lambda_1>@?1??write_content_with_provider@ClientImpl@2@IEBA_N0AEBURequest@2@AEAW4Error@2@@Z@AEBV?$function@$$A6A_N_K0@Z@5@4@Z@$0A@@?$function@$$A6A_NXZ@std@@QEAA@$$QEAV<lambda_2>@?1???$write_content_with_progress@V<lambda_1>@?1??write_content_with_provider@ClientImpl@httplib@@IEBA_NAEAVStream@4@AEBURequest@4@AEAW4Error@4@@Z@@detail@httplib@@YA_NAEAVStream@4@AEBV?$function@$$A6A_N_K0AEAVDataSink@httplib@@@Z@1@_K2V<lambda_1>@?1??write_content_with_provider@ClientImpl@4@IEBA_N0AEBURequest@4@AEAW4Error@4@@Z@AEBV?$function@$$A6A_N_K0@Z@1@4@Z@@Z
	??$?0V<lambda_2>@?1??send_@ClientImpl@httplib@@AEAA_NAEAURequest@3@AEAUResponse@3@AEAW4Error@3@@Z@$0A@@?$_Func_impl_no_alloc@V<lambda_2>@?1??send_@ClientImpl@httplib@@AEAA_NAEAURequest@4@AEAUResponse@4@AEAW4Error@4@@Z@_NAEAVStream@4@@std@@QEAA@$$QEAV<lambda_2>@?1??send_@ClientImpl@httplib@@AEAA_NAEAURequest@5@AEAUResponse@5@AEAW4Error@5@@Z@@Z
	??$?0V<lambda_2>@?1??send_@ClientImpl@httplib@@AEAA_NAEAURequest@3@AEAUResponse@3@AEAW4Error@3@@Z@$0A@@?$function@$$A6A_NAEAVStream@httplib@@@Z@std@@QEAA@$$QEAV<lambda_2>@?1??send_@ClientImpl@httplib@@AEAA_NAEAURequest@5@AEAUResponse@5@AEAW4Error@5@@Z@@Z
	??$?0V<lambda_2>@?1??verify_cert_with_windows_schannel@detail@httplib@@YA_NAEBV?$vector@EV?$allocator@E@std@@@std@@AEBV?$basic_string@DU?$char_traits@D@std@@V?$allocator@D@2@@5@_NAEA_K@Z@$0A@@?$_Func_impl_no_alloc@V<lambda_2>@?1??verify_cert_with_windows_schannel@detail@httplib@@YA_NAEBV?$vector@EV?$allocator@E@std@@@std@@AEBV?$basic_string@DU?$char_traits@D@std@@V?$allocator@D@2@@6@_NAEA_K@Z@X$$V@std@@QEAA@$$QEAV<lambda_2>@?1??verify_cert_with_windows_schannel@detail@httplib@@YA_NAEBV?$vector@EV?$allocator@E@std@@@1@AEBV?$basic_string@DU?$char_traits@D@std@@V?$allocator@D@2@@1@_NAEA_K@Z@@Z
	??$?0V<lambda_2>@?1??verify_cert_with_windows_schannel@detail@httplib@@YA_NAEBV?$vector@EV?$allocator@E@std@@@std@@AEBV?$basic_string@DU?$char_traits@D@std@@V?$allocator@D@2@@5@_NAEA_K@Z@$0A@@?$function@$$A6AXXZ@std@@QEAA@$$QEAV<lambda_2>@?1??verify_cert_with_windows_schannel@detail@httplib@@YA_NAEBV?$vector@EV?$allocator@E@std@@@1@AEBV?$basic_string@DU?$char_traits@D@std@@V?$allocator@D@2@@1@_NAEA_K@Z@@Z
	??$?0V<lambda_2>@?CH@??initialize_ssl@SSLClient@httplib@@AEAA_NAEAUSocket@ClientImpl@3@AEAW4Error@3@@Z@$0A@@?$_Func_impl_no_alloc@V<lambda_2>@?CH@??initialize_ssl@SSLClient@httplib@@AEAA_NAEAUSocket@ClientImpl@4@AEAW4Error@4@@Z@X$$V@std@@QEAA@$$QEAV<lambda_2>@?CH@??initialize_ssl@SSLClient@httplib@@AEAA_NAEAUSocket@ClientImpl@5@AEAW4Error@5@@Z@@Z
	??$?0V<lambda_2>@?CH@??initialize_ssl@SSLClient@httplib@@AEAA_NAEAUSocket@ClientImpl@3@AEAW4Error@3@@Z@$0A@@?$function@$$A6AXXZ@std@@QEAA@$$QEAV<lambda_2>@?CH@??initialize_ssl@SSLClient@httplib@@AEAA_NAEAUSocket@ClientImpl@5@AEAW4Error@5@@Z@@Z
	??$?0V<lambda_2>@?DC@??process_request@ClientImpl@httplib@@IEAA_NAEAVStream@3@AEAURequest@3@AEAUResponse@3@_NAEAW4Error@3@@Z@$0A@@?$_Func_impl_no_alloc@V<lambda_2>@?DC@??process_request@ClientImpl@httplib@@IEAA_NAEAVStream@4@AEAURequest@4@AEAUResponse@4@_NAEAW4Error@4@@Z@_NPEBD_K_K_K@std@@QEAA@$$QEAV<lambda_2>@?DC@??process_request@ClientImpl@httplib@@IEAA_NAEAVStream@5@AEAURequest@5@AEAUResponse@5@_NAEAW4Error@5@@Z@@Z
	??$?0V<lambda_2>@?DC@??process_request@ClientImpl@httplib@@IEAA_NAEAVStream@3@AEAURequest@3@AEAUResponse@3@_NAEAW4Error@3@@Z@$0A@@?$function@$$A6A_NPEBD_K11@Z@std@@QEAA@$$QEAV<lambda_2>@?DC@??process_request@ClientImpl@httplib@@IEAA_NAEAVStream@5@AEAURequest@5@AEAUResponse@5@_NAEAW4Error@5@@Z@@Z
	??$?0V<lambda_2_>@Request@httplib@@$0A@@?$_Func_impl_no_alloc@V<lambda_2_>@Request@httplib@@_N$$V@std@@QEAA@$$QEAV<lambda_2_>@Request@httplib@@@Z
	??$?0V<lambda_2_>@Request@httplib@@$0A@@?$function@$$A6A_NXZ@std@@QEAA@$$QEAV<lambda_2_>@Request@httplib@@@Z
	??$?0V<lambda_3>@?CG@??send_with_content_provider_and_receiver@ClientImpl@httplib@@AEAA?AV?$unique_ptr@UResponse@httplib@@U?$default_delete@UResponse@httplib@@@std@@@std@@AEAURequest@3@PEBD_KV?$function@$$A6A_N_K0AEAVDataSink@httplib@@@Z@5@V?$function@$$A6A_N_KAEAVDataSink@httplib@@@Z@5@AEBV?$basic_string@DU?$char_traits@D@std@@V?$allocator@D@2@@5@V?$function@$$A6A_NPEBD_K@Z@5@AEAW4Error@3@@Z@$0A@@?$_Func_impl_no_alloc@V<lambda_3>@?CG@??send_with_content_provider_and_receiver@ClientImpl@httplib@@AEAA?AV?$unique_ptr@UResponse@httplib@@U?$default_delete@UResponse@httplib@@@std@@@std@@AEAURequest@4@PEBD_KV?$function@$$A6A_N_K0AEAVDataSink@httplib@@@Z@6@V?$function@$$A6A_N_KAEAVDataSink@httplib@@@Z@6@AEBV?$basic_string@DU?$char_traits@D@std@@V?$allocator@D@2@@6@V?$function@$$A6A_NPEBD_K@Z@6@AEAW4Error@4@@Z@_NPEBD_K_K_K@std@@QEAA@$$QEAV<lambda_3>@?CG@??send_with_content_provider_and_receiver@ClientImpl@httplib@@AEAA?AV?$unique_ptr@UResponse@httplib@@U?$default_delete@UResponse@httplib@@@std@@@1@AEAURequest@5@PEBD_KV?$function@$$A6A_N_K0AEAVDataSink@httplib@@@Z@1@V?$function@$$A6A_N_KAEAVDataSink@httplib@@@Z@1@AEBV?$basic_string@DU?$char_traits@D@std@@V?$allocator@D@2@@1@V?$function@$$A6A_NPEBD_K@Z@1@AEAW4Error@5@@Z@@Z
	??$?0V<lambda_3>@?CG@??send_with_content_provider_and_receiver@ClientImpl@httplib@@AEAA?AV?$unique_ptr@UResponse@httplib@@U?$default_delete@UResponse@httplib@@@std@@@std@@AEAURequest@3@PEBD_KV?$function@$$A6A_N_K0AEAVDataSink@httplib@@@Z@5@V?$function@$$A6A_N_KAEAVDataSink@httplib@@@Z@5@AEBV?$basic_string@DU?$char_traits@D@std@@V?$allocator@D@2@@5@V?$function@$$A6A_NPEBD_K@Z@5@AEAW4Error@3@@Z@$0A@@?$function@$$A6A_NPEBD_K11@Z@std@@QEAA@$$QEAV<lambda_3>@?CG@??send_with_content_provider_and_receiver@ClientImpl@httplib@@AEAA?AV?$unique_ptr@UResponse@httplib@@U?$default_delete@UResponse@httplib@@@std@@@1@AEAURequest@5@PEBD_KV?$function@$$A6A_N_K0AEAVDataSink@httplib@@@Z@1@V?$function@$$A6A_N_KAEAVDataSink@httplib@@@Z@1@AEBV?$basic_string@DU?$char_traits@D@std@@V?$allocator@D@2@@1@V?$function@$$A6A_NPEBD_K@Z@1@AEAW4Error@5@@Z@@Z
	??$?0V<lambda_3>@?DC@??process_request@ClientImpl@httplib@@IEAA_NAEAVStream@3@AEAURequest@3@AEAUResponse@3@_NAEAW4Error@3@@Z@$0A@@?$_Func_impl_no_alloc@V<lambda_3>@?DC@??process_request@ClientImpl@httplib@@IEAA_NAEAVStream@4@AEAURequest@4@AEAUResponse@4@_NAEAW4Error@4@@Z@_N_K_K@std@@QEAA@$$QEAV<lambda_3>@?DC@??process_request@ClientImpl@httplib@@IEAA_NAEAVStream@5@AEAURequest@5@AEAUResponse@5@_NAEAW4Error@5@@Z@@Z
	??$?0V<lambda_3>@?DC@??process_request@ClientImpl@httplib@@IEAA_NAEAVStream@3@AEAURequest@3@AEAUResponse@3@_NAEAW4Error@3@@Z@$0A@@?$function@$$A6A_N_K0@Z@std@@QEAA@$$QEAV<lambda_3>@?DC@??process_request@ClientImpl@httplib@@IEAA_NAEAVStream@5@AEAURequest@5@AEAUResponse@5@_NAEAW4Error@5@@Z@@Z
	??$?0V<lambda_4>@?1???$write_content_chunked@V<lambda_1>@?1??write_content_with_provider@ClientImpl@httplib@@IEBA_NAEAVStream@4@AEBURequest@4@AEAW4Error@4@@Z@Vcompressor@detail@4@@detail@httplib@@YA_NAEAVStream@2@AEBV?$function@$$A6A_N_K0AEAVDataSink@httplib@@@Z@std@@AEBV<lambda_1>@?1??write_content_with_provider@ClientImpl@2@IEBA_N0AEBURequest@2@AEAW4Error@2@@Z@AEAVcompressor@12@3@Z@$0A@@?$_Func_impl_no_alloc@V<lambda_4>@?1???$write_content_chunked@V<lambda_1>@?1??write_content_with_provider@ClientImpl@httplib@@IEBA_NAEAVStream@4@AEBURequest@4@AEAW4Error@4@@Z@Vcompressor@detail@4@@detail@httplib@@YA_NAEAVStream@3@AEBV?$function@$$A6A_N_K0AEAVDataSink@httplib@@@Z@std@@AEBV<lambda_1>@?1??write_content_with_provider@ClientImpl@3@IEBA_N0AEBURequest@3@AEAW4Error@3@@Z@AEAVcompressor@23@3@Z@X$$V@std@@QEAA@$$QEAV<lambda_4>@?1???$write_content_chunked@V<lambda_1>@?1??write_content_with_provider@ClientImpl@httplib@@IEBA_NAEAVStream@4@AEBURequest@4@AEAW4Error@4@@Z@Vcompressor@detail@4@@detail@httplib@@YA_NAEAVStream@4@AEBV?$function@$$A6A_N_K0AEAVDataSink@httplib@@@Z@1@AEBV<lambda_1>@?1??write_content_with_provider@ClientImpl@4@IEBA_N0AEBURequest@4@AEAW4Error@4@@Z@AEAVcompressor@34@3@Z@@Z
	??$?0V<lambda_4>@?1???$write_content_chunked@V<lambda_1>@?1??write_content_with_provider@ClientImpl@httplib@@IEBA_NAEAVStream@4@AEBURequest@4@AEAW4Error@4@@Z@Vcompressor@detail@4@@detail@httplib@@YA_NAEAVStream@2@AEBV?$function@$$A6A_N_K0AEAVDataSink@httplib@@@Z@std@@AEBV<lambda_1>@?1??write_content_with_provider@ClientImpl@2@IEBA_N0AEBURequest@2@AEAW4Error@2@@Z@AEAVcompressor@12@3@Z@$0A@@?$function@$$A6AXXZ@std@@QEAA@$$QEAV<lambda_4>@?1???$write_content_chunked@V<lambda_1>@?1??write_content_with_provider@ClientImpl@httplib@@IEBA_NAEAVStream@4@AEBURequest@4@AEAW4Error@4@@Z@Vcompressor@detail@4@@detail@httplib@@YA_NAEAVStream@4@AEBV?$function@$$A6A_N_K0AEAVDataSink@httplib@@@Z@1@AEBV<lambda_1>@?1??write_content_with_provider@ClientImpl@4@IEBA_N0AEBURequest@4@AEAW4Error@4@@Z@AEAVcompressor@34@3@Z@@Z
	??$?0V<lambda_5>@?1???$write_content_chunked@V<lambda_1>@?1??write_content_with_provider@ClientImpl@httplib@@IEBA_NAEAVStream@4@AEBURequest@4@AEAW4Error@4@@Z@Vcompressor@detail@4@@detail@httplib@@YA_NAEAVStream@2@AEBV?$function@$$A6A_N_K0AEAVDataSink@httplib@@@Z@std@@AEBV<lambda_1>@?1??write_content_with_provider@ClientImpl@2@IEBA_N0AEBURequest@2@AEAW4Error@2@@Z@AEAVcompressor@12@3@Z@$0A@@?$_Func_impl_no_alloc@V<lambda_5>@?1???$write_content_chunked@V<lambda_1>@?1??write_content_with_provider@ClientImpl@httplib@@IEBA_NAEAVStream@4@AEBURequest@4@AEAW4Error@4@@Z@Vcompressor@detail@4@@detail@httplib@@YA_NAEAVStream@3@AEBV?$function@$$A6A_N_K0AEAVDataSink@httplib@@@Z@std@@AEBV<lambda_1>@?1??write_content_with_provider@ClientImpl@3@IEBA_N0AEBURequest@3@AEAW4Error@3@@Z@AEAVcompressor@23@3@Z@XAEBV?$unordered_multimap@V?$basic_string@DU?$char_traits@D@std@@V?$allocator@D@2@@std@@V12@Uhash@case_ignore@detail@httplib@@Uequal_to@456@V?$allocator@U?$pair@$$CBV?$basic_string@DU?$char_traits@D@std@@V?$allocator@D@2@@std@@V12@@std@@@2@@6@@std@@QEAA@$$QEAV<lambda_5>@?1???$write_content_chunked@V<lambda_1>@?1??write_content_with_provider@ClientImpl@httplib@@IEBA_NAEAVStream@4@AEBURequest@4@AEAW4Error@4@@Z@Vcompressor@detail@4@@detail@httplib@@YA_NAEAVStream@4@AEBV?$function@$$A6A_N_K0AEAVDataSink@httplib@@@Z@1@AEBV<lambda_1>@?1??write_content_with_provider@ClientImpl@4@IEBA_N0AEBURequest@4@AEAW4Error@4@@Z@AEAVcompressor@34@3@Z@@Z
	??$?0V<lambda_5>@?1???$write_content_chunked@V<lambda_1>@?1??write_content_with_provider@ClientImpl@httplib@@IEBA_NAEAVStream@4@AEBURequest@4@AEAW4Error@4@@Z@Vcompressor@detail@4@@detail@httplib@@YA_NAEAVStream@2@AEBV?$function@$$A6A_N_K0AEAVDataSink@httplib@@@Z@std@@AEBV<lambda_1>@?1??write_content_with_provider@ClientImpl@2@IEBA_N0AEBURequest@2@AEAW4Error@2@@Z@AEAVcompressor@12@3@Z@$0A@@?$function@$$A6AXAEBV?$unordered_multimap@V?$basic_string@DU?$char_traits@D@std@@V?$allocator@D@2@@std@@V12@Uhash@case_ignore@detail@httplib@@Uequal_to@456@V?$allocator@U?$pair@$$CBV?$basic_string@DU?$char_traits@D@std@@V?$allocator@D@2@@std@@V12@@std@@@2@@std@@@Z@std@@QEAA@$$QEAV<lambda_5>@?1???$write_content_chunked@V<lambda_1>@?1??write_content_with_provider@ClientImpl@httplib@@IEBA_NAEAVStream@4@AEBURequest@4@AEAW4Error@4@@Z@Vcompressor@detail@4@@detail@httplib@@YA_NAEAVStream@4@AEBV?$function@$$A6A_N_K0AEAVDataSink@httplib@@@Z@1@AEBV<lambda_1>@?1??write_content_with_provider@ClientImpl@4@IEBA_N0AEBURequest@4@AEAW4Error@4@@Z@AEAVcompressor@34@3@Z@@Z
	??$?0V?$_Array_const_iterator@E$0CA@@std@@$0A@@?$vector@EV?$allocator@E@std@@@std@@QEAA@V?$_Array_const_iterator@E$0CA@@1@0AEBV?$allocator@E@1@@Z
	??$?0V?$_Array_iterator@E$0EA@@std@@$0A@@?$vector@EV?$allocator@E@std@@@std@@QEAA@V?$_Array_iterator@E$0EA@@1@0AEBV?$allocator@E@1@@Z
	??$?0V?$_List_const_iterator@V?$_List_val@U?$_List_simple_types@U?$pair@$$CBV?$basic_string@DU?$char_traits@D@std@@V?$allocator@D@2@@std@@V12@@std@@@std@@@std@@@std@@V01@$0A@@?$pair@V?$_List_const_iterator@V?$_List_val@U?$_List_simple_types@U?$pair@$$CBV?$basic_string@DU?$char_traits@D@std@@V?$allocator@D@2@@std@@V12@@std@@@std@@@std@@@std@@V12@@std@@QEAA@$$QEAV?$_List_const_iterator@V?$_List_val@U?$_List_simple_types@U?$pair@$$CBV?$basic_string@DU?$char_traits@D@std@@V?$allocator@D@2@@std@@V12@@std@@@std@@@std@@@1@0@Z
	??$?0V?$_List_iterator@V?$_List_val@U?$_List_simple_types@U?$pair@$$CBV?$basic_string@DU?$char_traits@D@std@@V?$allocator@D@2@@std@@V12@@std@@@std@@@std@@@std@@V01@$0A@@?$pair@V?$_List_iterator@V?$_List_val@U?$_List_simple_types@U?$pair@$$CBV?$basic_string@DU?$char_traits@D@std@@V?$allocator@D@2@@std@@V12@@std@@@std@@@std@@@std@@V12@@std@@QEAA@$$QEAV?$_List_iterator@V?$_List_val@U?$_List_simple_types@U?$pair@$$CBV?$basic_string@DU?$char_traits@D@std@@V?$allocator@D@2@@std@@V12@@std@@@std@@@std@@@1@0@Z
	??$?0V?$_List_iterator@V?$_List_val@U?$_List_simple_types@U?$pair@$$CBV?$basic_string@DU?$char_traits@D@std@@V?$allocator@D@2@@std@@V12@@std@@@std@@@std@@@std@@_N$0A@@?$pair@V?$_List_iterator@V?$_List_val@U?$_List_simple_types@U?$pair@$$CBV?$basic_string@DU?$char_traits@D@std@@V?$allocator@D@2@@std@@V12@@std@@@std@@@std@@@std@@_N@std@@QEAA@$$QEAV?$_List_iterator@V?$_List_val@U?$_List_simple_types@U?$pair@$$CBV?$basic_string@DU?$char_traits@D@std@@V?$allocator@D@2@@std@@V12@@std@@@std@@@std@@@1@$$QEA_N@Z
	??$?0V?$_List_iterator@V?$_List_val@U?$_List_simple_types@V?$basic_string@DU?$char_traits@D@std@@V?$allocator@D@2@@std@@@std@@@std@@@std@@_N$0A@@?$pair@V?$_List_const_iterator@V?$_List_val@U?$_List_simple_types@V?$basic_string@DU?$char_traits@D@std@@V?$allocator@D@2@@std@@@std@@@std@@@std@@_N@std@@QEAA@$$QEAV?$_List_iterator@V?$_List_val@U?$_List_simple_types@V?$basic_string@DU?$char_traits@D@std@@V?$allocator@D@2@@std@@@std@@@std@@@1@$$QEA_N@Z
	??$?0V?$_List_unchecked_const_iterator@V?$_List_val@U?$_List_simple_types@V?$basic_string@DU?$char_traits@D@std@@V?$allocator@D@2@@std@@@std@@@std@@U_Iterator_base0@2@@std@@@?$allocator@U_Container_proxy@std@@@std@@QEAA@AEBV?$allocator@V?$_List_unchecked_const_iterator@V?$_List_val@U?$_List_simple_types@V?$basic_string@DU?$char_traits@D@std@@V?$allocator@D@2@@std@@@std@@@std@@U_Iterator_base0@2@@std@@@1@@Z
	??$?0V?$_List_unchecked_iterator@V?$_List_val@U?$_List_simple_types@U?$pair@$$CBV?$basic_string@DU?$char_traits@D@std@@V?$allocator@D@2@@std@@V12@@std@@@std@@@std@@@std@@@?$allocator@U_Container_proxy@std@@@std@@QEAA@AEBV?$allocator@V?$_List_unchecked_iterator@V?$_List_val@U?$_List_simple_types@U?$pair@$$CBV?$basic_string@DU?$char_traits@D@std@@V?$allocator@D@2@@std@@V12@@std@@@std@@@std@@@std@@@1@@Z
	??$?0V?$_List_unchecked_iterator@V?$_List_val@U?$_List_simple_types@U?$pair@$$CBV?$basic_string@DU?$char_traits@D@std@@V?$allocator@D@2@@std@@V?$unique_ptr@Uany_storage@detail@httplib@@U?$default_delete@Uany_storage@detail@httplib@@@std@@@2@@std@@@std@@@std@@@std@@@?$allocator@U_Container_proxy@std@@@std@@QEAA@AEBV?$allocator@V?$_List_unchecked_iterator@V?$_List_val@U?$_List_simple_types@U?$pair@$$CBV?$basic_string@DU?$char_traits@D@std@@V?$allocator@D@2@@std@@V?$unique_ptr@Uany_storage@detail@httplib@@U?$default_delete@Uany_storage@detail@httplib@@@std@@@2@@std@@@std@@@std@@@std@@@1@@Z
	??$?0V?$_String_const_iterator@V?$_String_val@U?$_Simple_types@D@std@@@std@@@std@@$0A@@?$vector@EV?$allocator@E@std@@@std@@QEAA@V?$_String_const_iterator@V?$_String_val@U?$_Simple_types@D@std@@@std@@@1@0AEBV?$allocator@E@1@@Z
	??$?0V?$_String_const_iterator@V?$_String_val@U?$_Simple_types@D@std@@@std@@@std@@V01@$0A@@?$pair@V?$_String_const_iterator@V?$_String_val@U?$_Simple_types@D@std@@@std@@@std@@V12@@std@@QEAA@XZ
	??$?0V?$_String_iterator@V?$_String_val@U?$_Simple_types@D@std@@@std@@@std@@$0A@@?$basic_string@DU?$char_traits@D@std@@V?$allocator@D@2@@std@@QEAA@V?$_String_iterator@V?$_String_val@U?$_Simple_types@D@std@@@std@@@1@0AEBV?$allocator@D@1@@Z
	??$?0V?$_Tgt_state_t@PEBD@std@@@?$allocator@U_Container_proxy@std@@@std@@QEAA@AEBV?$allocator@V?$_Tgt_state_t@PEBD@std@@@1@@Z
	??$?0V?$_Tgt_state_t@V?$_String_const_iterator@V?$_String_val@U?$_Simple_types@D@std@@@std@@@std@@@std@@@?$allocator@U_Container_proxy@std@@@std@@QEAA@AEBV?$allocator@V?$_Tgt_state_t@V?$_String_const_iterator@V?$_String_val@U?$_Simple_types@D@std@@@std@@@std@@@std@@@1@@Z
	??$?0V?$_Tree_const_iterator@V?$_Tree_val@U?$_Tree_simple_types@V?$basic_string@DU?$char_traits@D@std@@V?$allocator@D@2@@std@@@std@@@std@@@std@@AEB_N$0A@@?$pair@V?$_Tree_const_iterator@V?$_Tree_val@U?$_Tree_simple_types@V?$basic_string@DU?$char_traits@D@std@@V?$allocator@D@2@@std@@@std@@@std@@@std@@_N@std@@QEAA@$$QEAV?$_Tree_const_iterator@V?$_Tree_val@U?$_Tree_simple_types@V?$basic_string@DU?$char_traits@D@std@@V?$allocator@D@2@@std@@@std@@@std@@@1@AEB_N@Z
	??$?0V?$_Tree_iterator@V?$_Tree_val@U?$_Tree_simple_types@U?$pair@$$CBV?$basic_string@DU?$char_traits@D@std@@V?$allocator@D@2@@std@@V12@@std@@@std@@@std@@@std@@AEB_N$0A@@?$pair@V?$_Tree_iterator@V?$_Tree_val@U?$_Tree_simple_types@U?$pair@$$CBV?$basic_string@DU?$char_traits@D@std@@V?$allocator@D@2@@std@@V12@@std@@@std@@@std@@@std@@_N@std@@QEAA@$$QEAV?$_Tree_iterator@V?$_Tree_val@U?$_Tree_simple_types@U?$pair@$$CBV?$basic_string@DU?$char_traits@D@std@@V?$allocator@D@2@@std@@V12@@std@@@std@@@std@@@1@AEB_N@Z
	??$?0V?$_Tree_iterator@V?$_Tree_val@U?$_Tree_simple_types@U?$pair@$$CBV?$basic_string@DU?$char_traits@D@std@@V?$allocator@D@2@@std@@V?$basic_json@Vmap@std@@Vvector@2@V?$basic_string@DU?$char_traits@D@std@@V?$allocator@D@2@@2@_N_J_KNVallocator@2@Uadl_serializer@json_abi_v3_11_2@nlohmann@@V?$vector@EV?$allocator@E@std@@@2@@json_abi_v3_11_2@nlohmann@@@std@@@std@@@std@@@std@@AEB_N$0A@@?$pair@V?$_Tree_iterator@V?$_Tree_val@U?$_Tree_simple_types@U?$pair@$$CBV?$basic_string@DU?$char_traits@D@std@@V?$allocator@D@2@@std@@V?$basic_json@Vmap@std@@Vvector@2@V?$basic_string@DU?$char_traits@D@std@@V?$allocator@D@2@@2@_N_J_KNVallocator@2@Uadl_serializer@json_abi_v3_11_2@nlohmann@@V?$vector@EV?$allocator@E@std@@@2@@json_abi_v3_11_2@nlohmann@@@std@@@std@@@std@@@std@@_N@std@@QEAA@$$QEAV?$_Tree_iterator@V?$_Tree_val@U?$_Tree_simple_types@U?$pair@$$CBV?$basic_string@DU?$char_traits@D@std@@V?$allocator@D@2@@std@@V?$basic_json@Vmap@std@@Vvector@2@V?$basic_string@DU?$char_traits@D@std@@V?$allocator@D@2@@2@_N_J_KNVallocator@2@Uadl_serializer@json_abi_v3_11_2@nlohmann@@V?$vector@EV?$allocator@E@std@@@2@@json_abi_v3_11_2@nlohmann@@@std@@@std@@@std@@@1@AEB_N@Z
	??$?0V?$_Vector_const_iterator@V?$_Vector_val@U?$_Simple_types@UBlockEvent@zk@midnight@@@std@@@std@@@std@@$0A@@?$vector@UBlockEvent@zk@midnight@@V?$allocator@UBlockEvent@zk@midnight@@@std@@@std@@QEAA@V?$_Vector_const_iterator@V?$_Vector_val@U?$_Simple_types@UBlockEvent@zk@midnight@@@std@@@std@@@1@0AEBV?$allocator@UBlockEvent@zk@midnight@@@1@@Z
	??$?0V?$_Vector_const_iterator@V?$_Vector_val@U?$_Simple_types@UContractState@zk@midnight@@@std@@@std@@@std@@$0A@@?$vector@UContractState@zk@midnight@@V?$allocator@UContractState@zk@midnight@@@std@@@std@@QEAA@V?$_Vector_const_iterator@V?$_Vector_val@U?$_Simple_types@UContractState@zk@midnight@@@std@@@std@@@1@0AEBV?$allocator@UContractState@zk@midnight@@@1@@Z
	??$?0V?$allocator@D@std@@$$V@?$_Compressed_pair@V?$allocator@D@std@@V?$_String_val@U?$_Simple_types@D@std@@@2@$00@std@@QEAA@U_One_then_variadic_args_t@1@$$QEAV?$allocator@D@1@@Z
	??$?0V?$allocator@D@std@@$0A@@?$vector@DV?$allocator@D@std@@@std@@QEAA@_KAEBDAEBV?$allocator@D@1@@Z
	??$?0V?$allocator@E@std@@$$V@?$_Compressed_pair@V?$allocator@E@std@@V?$_Vector_val@U?$_Simple_types@E@std@@@2@$00@std@@QEAA@U_One_then_variadic_args_t@1@$$QEAV?$allocator@E@1@@Z
	??$?0V?$allocator@E@std@@$0A@@?$vector@EV?$allocator@E@std@@@std@@QEAA@_KAEBEAEBV?$allocator@E@1@@Z
	??$?0V?$allocator@E@std@@PEAEPEAEPEAE@?$_Compressed_pair@V?$allocator@E@std@@V?$_Vector_val@U?$_Simple_types@E@std@@@2@$00@std@@QEAA@U_One_then_variadic_args_t@1@$$QEAV?$allocator@E@1@$$QEAPEAE22@Z
	??$?0V?$allocator@I@std@@$$V@?$_Compressed_pair@V?$allocator@I@std@@V?$_Vector_val@U?$_Simple_types@I@std@@@2@$00@std@@QEAA@U_One_then_variadic_args_t@1@$$QEAV?$allocator@I@1@@Z
	??$?0V?$allocator@I@std@@PEAIPEAIPEAI@?$_Compressed_pair@V?$allocator@I@std@@V?$_Vector_val@U?$_Simple_types@I@std@@@2@$00@std@@QEAA@U_One_then_variadic_args_t@1@$$QEAV?$allocator@I@1@$$QEAPEAI22@Z
	??$?0V?$allocator@U?$_List_node@U?$pair@$$CBV?$basic_string@DU?$char_traits@D@std@@V?$allocator@D@2@@std@@V12@@std@@PEAX@std@@@std@@$$V@?$_Compressed_pair@V?$allocator@U?$_List_node@U?$pair@$$CBV?$basic_string@DU?$char_traits@D@std@@V?$allocator@D@2@@std@@V12@@std@@PEAX@std@@@std@@V?$_List_val@U?$_List_simple_types@U?$pair@$$CBV?$basic_string@DU?$char_traits@D@std@@V?$allocator@D@2@@std@@V12@@std@@@std@@@2@$00@std@@QEAA@U_One_then_variadic_args_t@1@$$QEAV?$allocator@U?$_List_node@U?$pair@$$CBV?$basic_string@DU?$char_traits@D@std@@V?$allocator@D@2@@std@@V12@@std@@PEAX@std@@@1@@Z
	??$?0V?$allocator@U?$_List_node@U?$pair@$$CBV?$basic_string@DU?$char_traits@D@std@@V?$allocator@D@2@@std@@V12@@std@@PEAX@std@@@std@@@?$_Hash@V?$_Umap_traits@V?$basic_string@DU?$char_traits@D@std@@V?$allocator@D@2@@std@@V12@V?$_Uhash_compare@V?$basic_string@DU?$char_traits@D@std@@V?$allocator@D@2@@std@@U?$hash@V?$basic_string@DU?$char_traits@D@std@@V?$allocator@D@2@@std@@@2@U?$equal_to@V?$basic_string@DU?$char_traits@D@std@@V?$allocator@D@2@@std@@@2@@2@V?$allocator@U?$pair@$$CBV?$basic_string@DU?$char_traits@D@std@@V?$allocator@D@2@@std@@V12@@std@@@2@$0A@@std@@@std@@IEAA@AEBV01@AEBV?$allocator@U?$_List_node@U?$pair@$$CBV?$basic_string@DU?$char_traits@D@std@@V?$allocator@D@2@@std@@V12@@std@@PEAX@std@@@1@@Z
	??$?0V?$allocator@U?$_List_node@U?$pair@$$CBV?$basic_string@DU?$char_traits@D@std@@V?$allocator@D@2@@std@@V12@@std@@PEAX@std@@@std@@@?$_Hash@V?$_Umap_traits@V?$basic_string@DU?$char_traits@D@std@@V?$allocator@D@2@@std@@V12@V?$_Uhash_compare@V?$basic_string@DU?$char_traits@D@std@@V?$allocator@D@2@@std@@Uhash@case_ignore@detail@httplib@@Uequal_to@456@@2@V?$allocator@U?$pair@$$CBV?$basic_string@DU?$char_traits@D@std@@V?$allocator@D@2@@std@@V12@@std@@@2@$00@std@@@std@@IEAA@AEBV01@AEBV?$allocator@U?$_List_node@U?$pair@$$CBV?$basic_string@DU?$char_traits@D@std@@V?$allocator@D@2@@std@@V12@@std@@PEAX@std@@@1@@Z
	??$?0V?$allocator@U?$_Tree_node@U?$pair@$$CBV?$basic_string@DU?$char_traits@D@std@@V?$allocator@D@2@@std@@UContractState@zk@midnight@@@std@@PEAX@std@@@std@@$$V@?$_Compressed_pair@V?$allocator@U?$_Tree_node@U?$pair@$$CBV?$basic_string@DU?$char_traits@D@std@@V?$allocator@D@2@@std@@UContractState@zk@midnight@@@std@@PEAX@std@@@std@@V?$_Tree_val@U?$_Tree_simple_types@U?$pair@$$CBV?$basic_string@DU?$char_traits@D@std@@V?$allocator@D@2@@std@@UContractState@zk@midnight@@@std@@@std@@@2@$00@std@@QEAA@U_One_then_variadic_args_t@1@$$QEAV?$allocator@U?$_Tree_node@U?$pair@$$CBV?$basic_string@DU?$char_traits@D@std@@V?$allocator@D@2@@std@@UContractState@zk@midnight@@@std@@PEAX@std@@@1@@Z
	??$?0V?$allocator@U?$_Tree_node@U?$pair@$$CBV?$basic_string@DU?$char_traits@D@std@@V?$allocator@D@2@@std@@UContractState@zk@midnight@@@std@@PEAX@std@@@std@@@?$_Tree@V?$_Tmap_traits@V?$basic_string@DU?$char_traits@D@std@@V?$allocator@D@2@@std@@UContractState@zk@midnight@@U?$less@V?$basic_string@DU?$char_traits@D@std@@V?$allocator@D@2@@std@@@2@V?$allocator@U?$pair@$$CBV?$basic_string@DU?$char_traits@D@std@@V?$allocator@D@2@@std@@UContractState@zk@midnight@@@std@@@2@$0A@@std@@@std@@QEAA@AEBV01@$$QEAV?$allocator@U?$_Tree_node@U?$pair@$$CBV?$basic_string@DU?$char_traits@D@std@@V?$allocator@D@2@@std@@UContractState@zk@midnight@@@std@@PEAX@std@@@1@@Z
	??$?0V?$allocator@U?$_Tree_node@U?$pair@$$CBV?$basic_string@DU?$char_traits@D@std@@V?$allocator@D@2@@std@@UFormData@httplib@@@std@@PEAX@std@@@std@@$$V@?$_Compressed_pair@V?$allocator@U?$_Tree_node@U?$pair@$$CBV?$basic_string@DU?$char_traits@D@std@@V?$allocator@D@2@@std@@UFormData@httplib@@@std@@PEAX@std@@@std@@V?$_Tree_val@U?$_Tree_simple_types@U?$pair@$$CBV?$basic_string@DU?$char_traits@D@std@@V?$allocator@D@2@@std@@UFormData@httplib@@@std@@@std@@@2@$00@std@@QEAA@U_One_then_variadic_args_t@1@$$QEAV?$allocator@U?$_Tree_node@U?$pair@$$CBV?$basic_string@DU?$char_traits@D@std@@V?$allocator@D@2@@std@@UFormData@httplib@@@std@@PEAX@std@@@1@@Z
	??$?0V?$allocator@U?$_Tree_node@U?$pair@$$CBV?$basic_string@DU?$char_traits@D@std@@V?$allocator@D@2@@std@@UFormData@httplib@@@std@@PEAX@std@@@std@@@?$_Tree@V?$_Tmap_traits@V?$basic_string@DU?$char_traits@D@std@@V?$allocator@D@2@@std@@UFormData@httplib@@U?$less@V?$basic_string@DU?$char_traits@D@std@@V?$allocator@D@2@@std@@@2@V?$allocator@U?$pair@$$CBV?$basic_string@DU?$char_traits@D@std@@V?$allocator@D@2@@std@@UFormData@httplib@@@std@@@2@$00@std@@@std@@QEAA@AEBV01@$$QEAV?$allocator@U?$_Tree_node@U?$pair@$$CBV?$basic_string@DU?$char_traits@D@std@@V?$allocator@D@2@@std@@UFormData@httplib@@@std@@PEAX@std@@@1@@Z
	??$?0V?$allocator@U?$_Tree_node@U?$pair@$$CBV?$basic_string@DU?$char_traits@D@std@@V?$allocator@D@2@@std@@UFormField@httplib@@@std@@PEAX@std@@@std@@$$V@?$_Compressed_pair@V?$allocator@U?$_Tree_node@U?$pair@$$CBV?$basic_string@DU?$char_traits@D@std@@V?$allocator@D@2@@std@@UFormField@httplib@@@std@@PEAX@std@@@std@@V?$_Tree_val@U?$_Tree_simple_types@U?$pair@$$CBV?$basic_string@DU?$char_traits@D@std@@V?$allocator@D@2@@std@@UFormField@httplib@@@std@@@std@@@2@$00@std@@QEAA@U_One_then_variadic_args_t@1@$$QEAV?$allocator@U?$_Tree_node@U?$pair@$$CBV?$basic_string@DU?$char_traits@D@std@@V?$allocator@D@2@@std@@UFormField@httplib@@@std@@PEAX@std@@@1@@Z
	??$?0V?$allocator@U?$_Tree_node@U?$pair@$$CBV?$basic_string@DU?$char_traits@D@std@@V?$allocator@D@2@@std@@UFormField@httplib@@@std@@PEAX@std@@@std@@@?$_Tree@V?$_Tmap_traits@V?$basic_string@DU?$char_traits@D@std@@V?$allocator@D@2@@std@@UFormField@httplib@@U?$less@V?$basic_string@DU?$char_traits@D@std@@V?$allocator@D@2@@std@@@2@V?$allocator@U?$pair@$$CBV?$basic_string@DU?$char_traits@D@std@@V?$allocator@D@2@@std@@UFormField@httplib@@@std@@@2@$00@std@@@std@@QEAA@AEBV01@$$QEAV?$allocator@U?$_Tree_node@U?$pair@$$CBV?$basic_string@DU?$char_traits@D@std@@V?$allocator@D@2@@std@@UFormField@httplib@@@std@@PEAX@std@@@1@@Z
	??$?0V?$allocator@U?$_Tree_node@U?$pair@$$CBV?$basic_string@DU?$char_traits@D@std@@V?$allocator@D@2@@std@@V12@@std@@PEAX@std@@@std@@$$V@?$_Compressed_pair@V?$allocator@U?$_Tree_node@U?$pair@$$CBV?$basic_string@DU?$char_traits@D@std@@V?$allocator@D@2@@std@@V12@@std@@PEAX@std@@@std@@V?$_Tree_val@U?$_Tree_simple_types@U?$pair@$$CBV?$basic_string@DU?$char_traits@D@std@@V?$allocator@D@2@@std@@V12@@std@@@std@@@2@$00@std@@QEAA@U_One_then_variadic_args_t@1@$$QEAV?$allocator@U?$_Tree_node@U?$pair@$$CBV?$basic_string@DU?$char_traits@D@std@@V?$allocator@D@2@@std@@V12@@std@@PEAX@std@@@1@@Z
	??$?0V?$allocator@U?$_Tree_node@U?$pair@$$CBV?$basic_string@DU?$char_traits@D@std@@V?$allocator@D@2@@std@@V12@@std@@PEAX@std@@@std@@@?$_Tree@V?$_Tmap_traits@V?$basic_string@DU?$char_traits@D@std@@V?$allocator@D@2@@std@@V12@U?$less@V?$basic_string@DU?$char_traits@D@std@@V?$allocator@D@2@@std@@@2@V?$allocator@U?$pair@$$CBV?$basic_string@DU?$char_traits@D@std@@V?$allocator@D@2@@std@@V12@@std@@@2@$00@std@@@std@@QEAA@AEBV01@$$QEAV?$allocator@U?$_Tree_node@U?$pair@$$CBV?$basic_string@DU?$char_traits@D@std@@V?$allocator@D@2@@std@@V12@@std@@PEAX@std@@@1@@Z
	??$?0V?$allocator@U?$_Tree_node@U?$pair@$$CBV?$basic_string@DU?$char_traits@D@std@@V?$allocator@D@2@@std@@V12@@std@@PEAX@std@@@std@@@?$_Tree@V?$_Tmap_traits@V?$basic_string@DU?$char_traits@D@std@@V?$allocator@D@2@@std@@V12@U?$less@V?$basic_string@DU?$char_traits@D@std@@V?$allocator@D@2@@std@@@2@V?$allocator@U?$pair@$$CBV?$basic_string@DU?$char_traits@D@std@@V?$allocator@D@2@@std@@V12@@std@@@2@$0A@@std@@@std@@QEAA@AEBV01@$$QEAV?$allocator@U?$_Tree_node@U?$pair@$$CBV?$basic_string@DU?$char_traits@D@std@@V?$allocator@D@2@@std@@V12@@std@@PEAX@std@@@1@@Z
	??$?0V?$allocator@U?$_Tree_node@U?$pair@$$CBV?$basic_string@DU?$char_traits@D@std@@V?$allocator@D@2@@std@@V?$basic_json@Vmap@std@@Vvector@2@V?$basic_string@DU?$char_traits@D@std@@V?$allocator@D@2@@2@_N_J_KNVallocator@2@Uadl_serializer@json_abi_v3_11_2@nlohmann@@V?$vector@EV?$allocator@E@std@@@2@@json_abi_v3_11_2@nlohmann@@@std@@PEAX@std@@@std@@$$V@?$_Compressed_pair@V?$allocator@U?$_Tree_node@U?$pair@$$CBV?$basic_string@DU?$char_traits@D@std@@V?$allocator@D@2@@std@@V?$basic_json@Vmap@std@@Vvector@2@V?$basic_string@DU?$char_traits@D@std@@V?$allocator@D@2@@2@_N_J_KNVallocator@2@Uadl_serializer@json_abi_v3_11_2@nlohmann@@V?$vector@EV?$allocator@E@std@@@2@@json_abi_v3_11_2@nlohmann@@@std@@PEAX@std@@@std@@V?$_Tree_val@U?$_Tree_simple_types@U?$pair@$$CBV?$basic_string@DU?$char_traits@D@std@@V?$allocator@D@2@@std@@V?$basic_json@Vmap@std@@Vvector@2@V?$basic_string@DU?$char_traits@D@std@@V?$allocator@D@2@@2@_N_J_KNVallocator@2@Uadl_serializer@json_abi_v3_11_2@nlohmann@@V?$vector@EV?$allocator@E@std@@@2@@json_abi_v3_11_2@nlohmann@@@std@@@std@@@2@$00@std@@QEAA@U_One_then_variadic_args_t@1@$$QEAV?$allocator@U?$_Tree_node@U?$pair@$$CBV?$basic_string@DU?$char_traits@D@std@@V?$allocator@D@2@@std@@V?$basic_json@Vmap@std@@Vvector@2@V?$basic_string@DU?$char_traits@D@std@@V?$allocator@D@2@@2@_N_J_KNVallocator@2@Uadl_serializer@json_abi_v3_11_2@nlohmann@@V?$vector@EV?$allocator@E@std@@@2@@json_abi_v3_11_2@nlohmann@@@std@@PEAX@std@@@1@@Z
	??$?0V?$allocator@U?$_Tree_node@U?$pair@$$CBV?$basic_string@DU?$char_traits@D@std@@V?$allocator@D@2@@std@@V?$basic_json@Vmap@std@@Vvector@2@V?$basic_string@DU?$char_traits@D@std@@V?$allocator@D@2@@2@_N_J_KNVallocator@2@Uadl_serializer@json_abi_v3_11_2@nlohmann@@V?$vector@EV?$allocator@E@std@@@2@@json_abi_v3_11_2@nlohmann@@@std@@PEAX@std@@@std@@@?$_Tree@V?$_Tmap_traits@V?$basic_string@DU?$char_traits@D@std@@V?$allocator@D@2@@std@@V?$basic_json@Vmap@std@@Vvector@2@V?$basic_string@DU?$char_traits@D@std@@V?$allocator@D@2@@2@_N_J_KNVallocator@2@Uadl_serializer@json_abi_v3_11_2@nlohmann@@V?$vector@EV?$allocator@E@std@@@2@@json_abi_v3_11_2@nlohmann@@U?$less@X@2@V?$allocator@U?$pair@$$CBV?$basic_string@DU?$char_traits@D@std@@V?$allocator@D@2@@std@@V?$basic_json@Vmap@std@@Vvector@2@V?$basic_string@DU?$char_traits@D@std@@V?$allocator@D@2@@2@_N_J_KNVallocator@2@Uadl_serializer@json_abi_v3_11_2@nlohmann@@V?$vector@EV?$allocator@E@std@@@2@@json_abi_v3_11_2@nlohmann@@@std@@@2@$0A@@std@@@std@@QEAA@AEBV01@$$QEAV?$allocator@U?$_Tree_node@U?$pair@$$CBV?$basic_string@DU?$char_traits@D@std@@V?$allocator@D@2@@std@@V?$basic_json@Vmap@std@@Vvector@2@V?$basic_string@DU?$char_traits@D@std@@V?$allocator@D@2@@2@_N_J_KNVallocator@2@Uadl_serializer@json_abi_v3_11_2@nlohmann@@V?$vector@EV?$allocator@E@std@@@2@@json_abi_v3_11_2@nlohmann@@@std@@PEAX@std@@@1@@Z
	??$?0V?$allocator@U?$_Tree_node@U?$pair@$$CBV?$basic_string@DU?$char_traits@D@std@@V?$allocator@D@2@@std@@V?$map@V?$basic_string@DU?$char_traits@D@std@@V?$allocator@D@2@@std@@_KU?$less@V?$basic_string@DU?$char_traits@D@std@@V?$allocator@D@2@@std@@@2@V?$allocator@U?$pair@$$CBV?$basic_string@DU?$char_traits@D@std@@V?$allocator@D@2@@std@@_K@std@@@2@@2@@std@@PEAX@std@@@std@@$$V@?$_Compressed_pair@V?$allocator@U?$_Tree_node@U?$pair@$$CBV?$basic_string@DU?$char_traits@D@std@@V?$allocator@D@2@@std@@V?$map@V?$basic_string@DU?$char_traits@D@std@@V?$allocator@D@2@@std@@_KU?$less@V?$basic_string@DU?$char_traits@D@std@@V?$allocator@D@2@@std@@@2@V?$allocator@U?$pair@$$CBV?$basic_string@DU?$char_traits@D@std@@V?$allocator@D@2@@std@@_K@std@@@2@@2@@std@@PEAX@std@@@std@@V?$_Tree_val@U?$_Tree_simple_types@U?$pair@$$CBV?$basic_string@DU?$char_traits@D@std@@V?$allocator@D@2@@std@@V?$map@V?$basic_string@DU?$char_traits@D@std@@V?$allocator@D@2@@std@@_KU?$less@V?$basic_string@DU?$char_traits@D@std@@V?$allocator@D@2@@std@@@2@V?$allocator@U?$pair@$$CBV?$basic_string@DU?$char_traits@D@std@@V?$allocator@D@2@@std@@_K@std@@@2@@2@@std@@@std@@@2@$00@std@@QEAA@U_One_then_variadic_args_t@1@$$QEAV?$allocator@U?$_Tree_node@U?$pair@$$CBV?$basic_string@DU?$char_traits@D@std@@V?$allocator@D@2@@std@@V?$map@V?$basic_string@DU?$char_traits@D@std@@V?$allocator@D@2@@std@@_KU?$less@V?$basic_string@DU?$char_traits@D@std@@V?$allocator@D@2@@std@@@2@V?$allocator@U?$pair@$$CBV?$basic_string@DU?$char_traits@D@std@@V?$allocator@D@2@@std@@_K@std@@@2@@2@@std@@PEAX@std@@@1@@Z
	??$?0V?$allocator@U?$_Tree_node@U?$pair@$$CBV?$basic_string@DU?$char_traits@D@std@@V?$allocator@D@2@@std@@V?$map@V?$basic_string@DU?$char_traits@D@std@@V?$allocator@D@2@@std@@_KU?$less@V?$basic_string@DU?$char_traits@D@std@@V?$allocator@D@2@@std@@@2@V?$allocator@U?$pair@$$CBV?$basic_string@DU?$char_traits@D@std@@V?$allocator@D@2@@std@@_K@std@@@2@@2@@std@@PEAX@std@@@std@@@?$_Tree@V?$_Tmap_traits@V?$basic_string@DU?$char_traits@D@std@@V?$allocator@D@2@@std@@V?$map@V?$basic_string@DU?$char_traits@D@std@@V?$allocator@D@2@@std@@_KU?$less@V?$basic_string@DU?$char_traits@D@std@@V?$allocator@D@2@@std@@@2@V?$allocator@U?$pair@$$CBV?$basic_string@DU?$char_traits@D@std@@V?$allocator@D@2@@std@@_K@std@@@2@@2@U?$less@V?$basic_string@DU?$char_traits@D@std@@V?$allocator@D@2@@std@@@2@V?$allocator@U?$pair@$$CBV?$basic_string@DU?$char_traits@D@std@@V?$allocator@D@2@@std@@V?$map@V?$basic_string@DU?$char_traits@D@std@@V?$allocator@D@2@@std@@_KU?$less@V?$basic_string@DU?$char_traits@D@std@@V?$allocator@D@2@@std@@@2@V?$allocator@U?$pair@$$CBV?$basic_string@DU?$char_traits@D@std@@V?$allocator@D@2@@std@@_K@std@@@2@@2@@std@@@2@$0A@@std@@@std@@QEAA@AEBV01@$$QEAV?$allocator@U?$_Tree_node@U?$pair@$$CBV?$basic_string@DU?$char_traits@D@std@@V?$allocator@D@2@@std@@V?$map@V?$basic_string@DU?$char_traits@D@std@@V?$allocator@D@2@@std@@_KU?$less@V?$basic_string@DU?$char_traits@D@std@@V?$allocator@D@2@@std@@@2@V?$allocator@U?$pair@$$CBV?$basic_string@DU?$char_traits@D@std@@V?$allocator@D@2@@std@@_K@std@@@2@@2@@std@@PEAX@std@@@1@@Z
	??$?0V?$allocator@U?$_Tree_node@U?$pair@$$CBV?$basic_string@DU?$char_traits@D@std@@V?$allocator@D@2@@std@@_K@std@@PEAX@std@@@std@@$$V@?$_Compressed_pair@V?$allocator@U?$_Tree_node@U?$pair@$$CBV?$basic_string@DU?$char_traits@D@std@@V?$allocator@D@2@@std@@_K@std@@PEAX@std@@@std@@V?$_Tree_val@U?$_Tree_simple_types@U?$pair@$$CBV?$basic_string@DU?$char_traits@D@std@@V?$allocator@D@2@@std@@_K@std@@@std@@@2@$00@std@@QEAA@U_One_then_variadic_args_t@1@$$QEAV?$allocator@U?$_Tree_node@U?$pair@$$CBV?$basic_string@DU?$char_traits@D@std@@V?$allocator@D@2@@std@@_K@std@@PEAX@std@@@1@@Z
	??$?0V?$allocator@U?$_Tree_node@U?$pair@$$CBV?$basic_string@DU?$char_traits@D@std@@V?$allocator@D@2@@std@@_K@std@@PEAX@std@@@std@@@?$_Tree@V?$_Tmap_traits@V?$basic_string@DU?$char_traits@D@std@@V?$allocator@D@2@@std@@_KU?$less@V?$basic_string@DU?$char_traits@D@std@@V?$allocator@D@2@@std@@@2@V?$allocator@U?$pair@$$CBV?$basic_string@DU?$char_traits@D@std@@V?$allocator@D@2@@std@@_K@std@@@2@$0A@@std@@@std@@QEAA@AEBV01@$$QEAV?$allocator@U?$_Tree_node@U?$pair@$$CBV?$basic_string@DU?$char_traits@D@std@@V?$allocator@D@2@@std@@_K@std@@PEAX@std@@@1@@Z
	??$?0V?$allocator@U?$_Tree_node@V?$basic_string@DU?$char_traits@D@std@@V?$allocator@D@2@@std@@PEAX@std@@@std@@$$V@?$_Compressed_pair@V?$allocator@U?$_Tree_node@V?$basic_string@DU?$char_traits@D@std@@V?$allocator@D@2@@std@@PEAX@std@@@std@@V?$_Tree_val@U?$_Tree_simple_types@V?$basic_string@DU?$char_traits@D@std@@V?$allocator@D@2@@std@@@std@@@2@$00@std@@QEAA@U_One_then_variadic_args_t@1@$$QEAV?$allocator@U?$_Tree_node@V?$basic_string@DU?$char_traits@D@std@@V?$allocator@D@2@@std@@PEAX@std@@@1@@Z
	??$?0V?$allocator@U?$_Tree_node@V?$basic_string@DU?$char_traits@D@std@@V?$allocator@D@2@@std@@PEAX@std@@@std@@@?$_Tree@V?$_Tset_traits@V?$basic_string@DU?$char_traits@D@std@@V?$allocator@D@2@@std@@U?$less@V?$basic_string@DU?$char_traits@D@std@@V?$allocator@D@2@@std@@@2@V?$allocator@V?$basic_string@DU?$char_traits@D@std@@V?$allocator@D@2@@std@@@2@$0A@@std@@@std@@QEAA@AEBV01@$$QEAV?$allocator@U?$_Tree_node@V?$basic_string@DU?$char_traits@D@std@@V?$allocator@D@2@@std@@PEAX@std@@@1@@Z
	??$?0V?$allocator@U?$pair@_J_J@std@@@std@@$$V@?$_Compressed_pair@V?$allocator@U?$pair@_J_J@std@@@std@@V?$_Vector_val@U?$_Simple_types@U?$pair@_J_J@std@@@std@@@2@$00@std@@QEAA@U_One_then_variadic_args_t@1@$$QEAV?$allocator@U?$pair@_J_J@std@@@1@@Z
	??$?0V?$allocator@UAbiFunction@phase2@midnight@@@std@@$$V@?$_Compressed_pair@V?$allocator@UAbiFunction@phase2@midnight@@@std@@V?$_Vector_val@U?$_Simple_types@UAbiFunction@phase2@midnight@@@std@@@2@$00@std@@QEAA@U_One_then_variadic_args_t@1@$$QEAV?$allocator@UAbiFunction@phase2@midnight@@@1@@Z
	??$?0V?$allocator@UAbiFunction@phase2@midnight@@@std@@PEAUAbiFunction@phase2@midnight@@PEAU234@PEAU234@@?$_Compressed_pair@V?$allocator@UAbiFunction@phase2@midnight@@@std@@V?$_Vector_val@U?$_Simple_types@UAbiFunction@phase2@midnight@@@std@@@2@$00@std@@QEAA@U_One_then_variadic_args_t@1@$$QEAV?$allocator@UAbiFunction@phase2@midnight@@@1@$$QEAPEAUAbiFunction@phase2@midnight@@22@Z
	??$?0V?$allocator@UAbiParam@phase2@midnight@@@std@@$$V@?$_Compressed_pair@V?$allocator@UAbiParam@phase2@midnight@@@std@@V?$_Vector_val@U?$_Simple_types@UAbiParam@phase2@midnight@@@std@@@2@$00@std@@QEAA@U_One_then_variadic_args_t@1@$$QEAV?$allocator@UAbiParam@phase2@midnight@@@1@@Z
	??$?0V?$allocator@UAbiParam@phase2@midnight@@@std@@PEAUAbiParam@phase2@midnight@@PEAU234@PEAU234@@?$_Compressed_pair@V?$allocator@UAbiParam@phase2@midnight@@@std@@V?$_Vector_val@U?$_Simple_types@UAbiParam@phase2@midnight@@@std@@@2@$00@std@@QEAA@U_One_then_variadic_args_t@1@$$QEAV?$allocator@UAbiParam@phase2@midnight@@@1@$$QEAPEAUAbiParam@phase2@midnight@@22@Z
	??$?0V?$allocator@UBlockEvent@zk@midnight@@@std@@$$V@?$_Compressed_pair@V?$allocator@UBlockEvent@zk@midnight@@@std@@V?$_Vector_val@U?$_Simple_types@UBlockEvent@zk@midnight@@@std@@@2@$00@std@@QEAA@U_One_then_variadic_args_t@1@$$QEAV?$allocator@UBlockEvent@zk@midnight@@@1@@Z
	??$?0V?$allocator@UContractState@zk@midnight@@@std@@$$V@?$_Compressed_pair@V?$allocator@UContractState@zk@midnight@@@std@@V?$_Vector_val@U?$_Simple_types@UContractState@zk@midnight@@@std@@@2@$00@std@@QEAA@U_One_then_variadic_args_t@1@$$QEAV?$allocator@UContractState@zk@midnight@@@1@@Z
	??$?0V?$allocator@UContractState@zk@midnight@@@std@@PEAUContractState@zk@midnight@@PEAU234@PEAU234@@?$_Compressed_pair@V?$allocator@UContractState@zk@midnight@@@std@@V?$_Vector_val@U?$_Simple_types@UContractState@zk@midnight@@@std@@@2@$00@std@@QEAA@U_One_then_variadic_args_t@1@$$QEAV?$allocator@UContractState@zk@midnight@@@1@$$QEAPEAUContractState@zk@midnight@@22@Z
	??$?0V?$allocator@UUtxo@phase3@midnight@@@std@@$$V@?$_Compressed_pair@V?$allocator@UUtxo@phase3@midnight@@@std@@V?$_Vector_val@U?$_Simple_types@UUtxo@phase3@midnight@@@std@@@2@$00@std@@QEAA@U_One_then_variadic_args_t@1@$$QEAV?$allocator@UUtxo@phase3@midnight@@@1@@Z
	??$?0V?$allocator@UUtxo@phase3@midnight@@@std@@PEAUUtxo@phase3@midnight@@PEAU234@PEAU234@@?$_Compressed_pair@V?$allocator@UUtxo@phase3@midnight@@@std@@V?$_Vector_val@U?$_Simple_types@UUtxo@phase3@midnight@@@std@@@2@$00@std@@QEAA@U_One_then_variadic_args_t@1@$$QEAV?$allocator@UUtxo@phase3@midnight@@@1@$$QEAPEAUUtxo@phase3@midnight@@22@Z
	??$?0V?$allocator@UUtxoInput@phase3@midnight@@@std@@$$V@?$_Compressed_pair@V?$allocator@UUtxoInput@phase3@midnight@@@std@@V?$_Vector_val@U?$_Simple_types@UUtxoInput@phase3@midnight@@@std@@@2@$00@std@@QEAA@U_One_then_variadic_args_t@1@$$QEAV?$allocator@UUtxoInput@phase3@midnight@@@1@@Z
	??$?0V?$allocator@UUtxoOutput@phase3@midnight@@@std@@$$V@?$_Compressed_pair@V?$allocator@UUtxoOutput@phase3@midnight@@@std@@V?$_Vector_val@U?$_Simple_types@UUtxoOutput@phase3@midnight@@@std@@@2@$00@std@@QEAA@U_One_then_variadic_args_t@1@$$QEAV?$allocator@UUtxoOutput@phase3@midnight@@@1@@Z
	??$?0V?$allocator@U_Grp_t@?$_Tgt_state_t@PEBD@std@@@std@@$$V@?$_Compressed_pair@V?$allocator@U_Grp_t@?$_Tgt_state_t@PEBD@std@@@std@@V?$_Vector_val@U?$_Simple_types@U_Grp_t@?$_Tgt_state_t@PEBD@std@@@std@@@2@$00@std@@QEAA@U_One_then_variadic_args_t@1@$$QEAV?$allocator@U_Grp_t@?$_Tgt_state_t@PEBD@std@@@1@@Z
	??$?0V?$allocator@U_Grp_t@?$_Tgt_state_t@PEBD@std@@@std@@PEAU_Grp_t@?$_Tgt_state_t@PEBD@1@PEAU231@PEAU231@@?$_Compressed_pair@V?$allocator@U_Grp_t@?$_Tgt_state_t@PEBD@std@@@std@@V?$_Vector_val@U?$_Simple_types@U_Grp_t@?$_Tgt_state_t@PEBD@std@@@std@@@2@$00@std@@QEAA@U_One_then_variadic_args_t@1@$$QEAV?$allocator@U_Grp_t@?$_Tgt_state_t@PEBD@std@@@1@$$QEAPEAU_Grp_t@?$_Tgt_state_t@PEBD@1@22@Z
	??$?0V?$allocator@U_Grp_t@?$_Tgt_state_t@V?$_String_const_iterator@V?$_String_val@U?$_Simple_types@D@std@@@std@@@std@@@std@@@std@@$$V@?$_Compressed_pair@V?$allocator@U_Grp_t@?$_Tgt_state_t@V?$_String_const_iterator@V?$_String_val@U?$_Simple_types@D@std@@@std@@@std@@@std@@@std@@V?$_Vector_val@U?$_Simple_types@U_Grp_t@?$_Tgt_state_t@V?$_String_const_iterator@V?$_String_val@U?$_Simple_types@D@std@@@std@@@std@@@std@@@std@@@2@$00@std@@QEAA@U_One_then_variadic_args_t@1@$$QEAV?$allocator@U_Grp_t@?$_Tgt_state_t@V?$_String_const_iterator@V?$_String_val@U?$_Simple_types@D@std@@@std@@@std@@@std@@@1@@Z
	??$?0V?$allocator@U_Grp_t@?$_Tgt_state_t@V?$_String_const_iterator@V?$_String_val@U?$_Simple_types@D@std@@@std@@@std@@@std@@@std@@PEAU_Grp_t@?$_Tgt_state_t@V?$_String_const_iterator@V?$_String_val@U?$_Simple_types@D@std@@@std@@@std@@@1@PEAU231@PEAU231@@?$_Compressed_pair@V?$allocator@U_Grp_t@?$_Tgt_state_t@V?$_String_const_iterator@V?$_String_val@U?$_Simple_types@D@std@@@std@@@std@@@std@@@std@@V?$_Vector_val@U?$_Simple_types@U_Grp_t@?$_Tgt_state_t@V?$_String_const_iterator@V?$_String_val@U?$_Simple_types@D@std@@@std@@@std@@@std@@@std@@@2@$00@std@@QEAA@U_One_then_variadic_args_t@1@$$QEAV?$allocator@U_Grp_t@?$_Tgt_state_t@V?$_String_const_iterator@V?$_String_val@U?$_Simple_types@D@std@@@std@@@std@@@std@@@1@$$QEAPEAU_Grp_t@?$_Tgt_state_t@V?$_String_const_iterator@V?$_String_val@U?$_Simple_types@D@std@@@std@@@std@@@1@22@Z
	??$?0V?$allocator@V?$_List_unchecked_iterator@V?$_List_val@U?$_List_simple_types@U?$pair@$$CBV?$basic_string@DU?$char_traits@D@std@@V?$allocator@D@2@@std@@V12@@std@@@std@@@std@@@std@@@std@@$$V@?$_Compressed_pair@V?$allocator@V?$_List_unchecked_iterator@V?$_List_val@U?$_List_simple_types@U?$pair@$$CBV?$basic_string@DU?$char_traits@D@std@@V?$allocator@D@2@@std@@V12@@std@@@std@@@std@@@std@@@std@@V?$_Vector_val@U?$_Simple_types@V?$_List_unchecked_iterator@V?$_List_val@U?$_List_simple_types@U?$pair@$$CBV?$basic_string@DU?$char_traits@D@std@@V?$allocator@D@2@@std@@V12@@std@@@std@@@std@@@std@@@std@@@2@$00@std@@QEAA@U_One_then_variadic_args_t@1@$$QEAV?$allocator@V?$_List_unchecked_iterator@V?$_List_val@U?$_List_simple_types@U?$pair@$$CBV?$basic_string@DU?$char_traits@D@std@@V?$allocator@D@2@@std@@V12@@std@@@std@@@std@@@std@@@1@@Z
	??$?0V?$allocator@V?$_List_unchecked_iterator@V?$_List_val@U?$_List_simple_types@U?$pair@$$CBV?$basic_string@DU?$char_traits@D@std@@V?$allocator@D@2@@std@@V12@@std@@@std@@@std@@@std@@@std@@$0A@@?$_Hash_vec@V?$allocator@V?$_List_unchecked_iterator@V?$_List_val@U?$_List_simple_types@U?$pair@$$CBV?$basic_string@DU?$char_traits@D@std@@V?$allocator@D@2@@std@@V12@@std@@@std@@@std@@@std@@@std@@@std@@QEAA@$$QEAV?$allocator@V?$_List_unchecked_iterator@V?$_List_val@U?$_List_simple_types@U?$pair@$$CBV?$basic_string@DU?$char_traits@D@std@@V?$allocator@D@2@@std@@V12@@std@@@std@@@std@@@std@@@1@@Z
	??$?0V?$allocator@V?$basic_json@Vmap@std@@Vvector@2@V?$basic_string@DU?$char_traits@D@std@@V?$allocator@D@2@@2@_N_J_KNVallocator@2@Uadl_serializer@json_abi_v3_11_2@nlohmann@@V?$vector@EV?$allocator@E@std@@@2@@json_abi_v3_11_2@nlohmann@@@std@@$$V@?$_Compressed_pair@V?$allocator@V?$basic_json@Vmap@std@@Vvector@2@V?$basic_string@DU?$char_traits@D@std@@V?$allocator@D@2@@2@_N_J_KNVallocator@2@Uadl_serializer@json_abi_v3_11_2@nlohmann@@V?$vector@EV?$allocator@E@std@@@2@@json_abi_v3_11_2@nlohmann@@@std@@V?$_Vector_val@U?$_Simple_types@V?$basic_json@Vmap@std@@Vvector@2@V?$basic_string@DU?$char_traits@D@std@@V?$allocator@D@2@@2@_N_J_KNVallocator@2@Uadl_serializer@json_abi_v3_11_2@nlohmann@@V?$vector@EV?$allocator@E@std@@@2@@json_abi_v3_11_2@nlohmann@@@std@@@2@$00@std@@QEAA@U_One_then_variadic_args_t@1@$$QEAV?$allocator@V?$basic_json@Vmap@std@@Vvector@2@V?$basic_string@DU?$char_traits@D@std@@V?$allocator@D@2@@2@_N_J_KNVallocator@2@Uadl_serializer@json_abi_v3_11_2@nlohmann@@V?$vector@EV?$allocator@E@std@@@2@@json_abi_v3_11_2@nlohmann@@@1@@Z
	??$?0V?$allocator@V?$basic_string@DU?$char_traits@D@std@@V?$allocator@D@2@@std@@@std@@$$V@?$_Compressed_pair@V?$allocator@V?$basic_string@DU?$char_traits@D@std@@V?$allocator@D@2@@std@@@std@@V?$_Vector_val@U?$_Simple_types@V?$basic_string@DU?$char_traits@D@std@@V?$allocator@D@2@@std@@@std@@@2@$00@std@@QEAA@U_One_then_variadic_args_t@1@$$QEAV?$allocator@V?$basic_string@DU?$char_traits@D@std@@V?$allocator@D@2@@std@@@1@@Z
	??$?0V?$allocator@V?$basic_string@DU?$char_traits@D@std@@V?$allocator@D@2@@std@@@std@@PEAV?$basic_string@DU?$char_traits@D@std@@V?$allocator@D@2@@1@PEAV21@PEAV21@@?$_Compressed_pair@V?$allocator@V?$basic_string@DU?$char_traits@D@std@@V?$allocator@D@2@@std@@@std@@V?$_Vector_val@U?$_Simple_types@V?$basic_string@DU?$char_traits@D@std@@V?$allocator@D@2@@std@@@std@@@2@$00@std@@QEAA@U_One_then_variadic_args_t@1@$$QEAV?$allocator@V?$basic_string@DU?$char_traits@D@std@@V?$allocator@D@2@@std@@@1@$$QEAPEAV?$basic_string@DU?$char_traits@D@std@@V?$allocator@D@2@@1@22@Z
	??$?0V?$allocator@V?$sub_match@V?$_String_const_iterator@V?$_String_val@U?$_Simple_types@D@std@@@std@@@std@@@std@@@std@@$$V@?$_Compressed_pair@V?$allocator@V?$sub_match@V?$_String_const_iterator@V?$_String_val@U?$_Simple_types@D@std@@@std@@@std@@@std@@@std@@V?$_Vector_val@U?$_Simple_types@V?$sub_match@V?$_String_const_iterator@V?$_String_val@U?$_Simple_types@D@std@@@std@@@std@@@std@@@std@@@2@$00@std@@QEAA@U_One_then_variadic_args_t@1@$$QEAV?$allocator@V?$sub_match@V?$_String_const_iterator@V?$_String_val@U?$_Simple_types@D@std@@@std@@@std@@@std@@@1@@Z
	??$?0V?$allocator@_W@std@@$$V@?$_Compressed_pair@V?$allocator@_W@std@@V?$_String_val@U?$_Simple_types@_W@std@@@2@$00@std@@QEAA@U_One_then_variadic_args_t@1@$$QEAV?$allocator@_W@1@@Z
	??$?0V?$basic_json@Vmap@std@@Vvector@2@V?$basic_string@DU?$char_traits@D@std@@V?$allocator@D@2@@2@_N_J_KNVallocator@2@Uadl_serializer@json_abi_v3_11_2@nlohmann@@V?$vector@EV?$allocator@E@std@@@2@@json_abi_v3_11_2@nlohmann@@@?$allocator@U_Container_proxy@std@@@std@@QEAA@AEBV?$allocator@V?$basic_json@Vmap@std@@Vvector@2@V?$basic_string@DU?$char_traits@D@std@@V?$allocator@D@2@@2@_N_J_KNVallocator@2@Uadl_serializer@json_abi_v3_11_2@nlohmann@@V?$vector@EV?$allocator@E@std@@@2@@json_abi_v3_11_2@nlohmann@@@1@@Z
	??$?0V?$basic_string@DU?$char_traits@D@std@@V?$allocator@D@2@@std@@$$T$0A@@?$pair@$$CBV?$basic_string@DU?$char_traits@D@std@@V?$allocator@D@2@@std@@V?$basic_json@Vmap@std@@Vvector@2@V?$basic_string@DU?$char_traits@D@std@@V?$allocator@D@2@@2@_N_J_KNVallocator@2@Uadl_serializer@json_abi_v3_11_2@nlohmann@@V?$vector@EV?$allocator@E@std@@@2@@json_abi_v3_11_2@nlohmann@@@std@@QEAA@$$QEAV?$basic_string@DU?$char_traits@D@std@@V?$allocator@D@2@@1@$$QEA$$T@Z
	??$?0V?$basic_string@DU?$char_traits@D@std@@V?$allocator@D@2@@std@@$$T@?$_Tree_temp_node@V?$allocator@U?$_Tree_node@U?$pair@$$CBV?$basic_string@DU?$char_traits@D@std@@V?$allocator@D@2@@std@@V?$basic_json@Vmap@std@@Vvector@2@V?$basic_string@DU?$char_traits@D@std@@V?$allocator@D@2@@2@_N_J_KNVallocator@2@Uadl_serializer@json_abi_v3_11_2@nlohmann@@V?$vector@EV?$allocator@E@std@@@2@@json_abi_v3_11_2@nlohmann@@@std@@PEAX@std@@@std@@@std@@QEAA@AEAV?$allocator@U?$_Tree_node@U?$pair@$$CBV?$basic_string@DU?$char_traits@D@std@@V?$allocator@D@2@@std@@V?$basic_json@Vmap@std@@Vvector@2@V?$basic_string@DU?$char_traits@D@std@@V?$allocator@D@2@@2@_N_J_KNVallocator@2@Uadl_serializer@json_abi_v3_11_2@nlohmann@@V?$vector@EV?$allocator@E@std@@@2@@json_abi_v3_11_2@nlohmann@@@std@@PEAX@std@@@1@PEAU?$_Tree_node@U?$pair@$$CBV?$basic_string@DU?$char_traits@D@std@@V?$allocator@D@2@@std@@V?$basic_json@Vmap@std@@Vvector@2@V?$basic_string@DU?$char_traits@D@std@@V?$allocator@D@2@@2@_N_J_KNVallocator@2@Uadl_serializer@json_abi_v3_11_2@nlohmann@@V?$vector@EV?$allocator@E@std@@@2@@json_abi_v3_11_2@nlohmann@@@std@@PEAX@1@$$QEAV?$basic_string@DU?$char_traits@D@std@@V?$allocator@D@2@@1@$$QEA$$T@Z
	??$?0V?$basic_string@DU?$char_traits@D@std@@V?$allocator@D@2@@std@@$$V$0A@@?$tuple@$$QEAV?$basic_string@DU?$char_traits@D@std@@V?$allocator@D@2@@std@@@std@@QEAA@$$QEAV?$basic_string@DU?$char_traits@D@std@@V?$allocator@D@2@@1@@Z
	??$?0V?$basic_string@DU?$char_traits@D@std@@V?$allocator@D@2@@std@@$0A@@?$optional@V?$basic_string@DU?$char_traits@D@std@@V?$allocator@D@2@@std@@@std@@QEAA@$$QEAV?$basic_string@DU?$char_traits@D@std@@V?$allocator@D@2@@1@@Z
	??$?0V?$basic_string@DU?$char_traits@D@std@@V?$allocator@D@2@@std@@@?$_Non_trivial_copy@U?$_Optional_construct_base@V?$basic_string@DU?$char_traits@D@std@@V?$allocator@D@2@@std@@@std@@@std@@QEAA@Uin_place_t@1@$$QEAV?$basic_string@DU?$char_traits@D@std@@V?$allocator@D@2@@1@@Z
	??$?0V?$basic_string@DU?$char_traits@D@std@@V?$allocator@D@2@@std@@@?$_Non_trivial_copy_assign@U?$_Optional_construct_base@V?$basic_string@DU?$char_traits@D@std@@V?$allocator@D@2@@std@@@std@@V?$basic_string@DU?$char_traits@D@std@@V?$allocator@D@2@@2@@std@@QEAA@Uin_place_t@1@$$QEAV?$basic_string@DU?$char_traits@D@std@@V?$allocator@D@2@@1@@Z
	??$?0V?$basic_string@DU?$char_traits@D@std@@V?$allocator@D@2@@std@@@?$_Non_trivial_move@U?$_Optional_construct_base@V?$basic_string@DU?$char_traits@D@std@@V?$allocator@D@2@@std@@@std@@V?$basic_string@DU?$char_traits@D@std@@V?$allocator@D@2@@2@@std@@QEAA@Uin_place_t@1@$$QEAV?$basic_string@DU?$char_traits@D@std@@V?$allocator@D@2@@1@@Z
	??$?0V?$basic_string@DU?$char_traits@D@std@@V?$allocator@D@2@@std@@@?$_Non_trivial_move_assign@U?$_Optional_construct_base@V?$basic_string@DU?$char_traits@D@std@@V?$allocator@D@2@@std@@@std@@V?$basic_string@DU?$char_traits@D@std@@V?$allocator@D@2@@2@@std@@QEAA@Uin_place_t@1@$$QEAV?$basic_string@DU?$char_traits@D@std@@V?$allocator@D@2@@1@@Z
	??$?0V?$basic_string@DU?$char_traits@D@std@@V?$allocator@D@2@@std@@@?$_Optional_construct_base@V?$basic_string@DU?$char_traits@D@std@@V?$allocator@D@2@@std@@@std@@QEAA@Uin_place_t@1@$$QEAV?$basic_string@DU?$char_traits@D@std@@V?$allocator@D@2@@1@@Z
	??$?0V?$basic_string@DU?$char_traits@D@std@@V?$allocator@D@2@@std@@@?$_Optional_destruct_base@V?$basic_string@DU?$char_traits@D@std@@V?$allocator@D@2@@std@@$0A@@std@@QEAA@Uin_place_t@1@$$QEAV?$basic_string@DU?$char_traits@D@std@@V?$allocator@D@2@@1@@Z
	??$?0V?$basic_string@DU?$char_traits@D@std@@V?$allocator@D@2@@std@@@?$_Tree_temp_node@V?$allocator@U?$_Tree_node@V?$basic_string@DU?$char_traits@D@std@@V?$allocator@D@2@@std@@PEAX@std@@@std@@@std@@QEAA@AEAV?$allocator@U?$_Tree_node@V?$basic_string@DU?$char_traits@D@std@@V?$allocator@D@2@@std@@PEAX@std@@@1@PEAU?$_Tree_node@V?$basic_string@DU?$char_traits@D@std@@V?$allocator@D@2@@std@@PEAX@1@$$QEAV?$basic_string@DU?$char_traits@D@std@@V?$allocator@D@2@@1@@Z
	??$?0V?$basic_string@DU?$char_traits@D@std@@V?$allocator@D@2@@std@@@?$_Tuple_val@$$QEAV?$basic_string@DU?$char_traits@D@std@@V?$allocator@D@2@@std@@@std@@QEAA@$$QEAV?$basic_string@DU?$char_traits@D@std@@V?$allocator@D@2@@1@@Z
	??$?0V?$basic_string@DU?$char_traits@D@std@@V?$allocator@D@2@@std@@@?$allocator@U?$_List_node@V?$basic_string@DU?$char_traits@D@std@@V?$allocator@D@2@@std@@PEAX@std@@@std@@QEAA@AEBV?$allocator@V?$basic_string@DU?$char_traits@D@std@@V?$allocator@D@2@@std@@@1@@Z
	??$?0V?$basic_string@DU?$char_traits@D@std@@V?$allocator@D@2@@std@@@?$allocator@U_Container_proxy@std@@@std@@QEAA@AEBV?$allocator@V?$basic_string@DU?$char_traits@D@std@@V?$allocator@D@2@@std@@@1@@Z
	??$?0V?$basic_string@DU?$char_traits@D@std@@V?$allocator@D@2@@std@@@?$allocator@V?$_List_unchecked_const_iterator@V?$_List_val@U?$_List_simple_types@V?$basic_string@DU?$char_traits@D@std@@V?$allocator@D@2@@std@@@std@@@std@@U_Iterator_base0@2@@std@@@std@@QEAA@AEBV?$allocator@V?$basic_string@DU?$char_traits@D@std@@V?$allocator@D@2@@std@@@1@@Z
	??$?0V?$basic_string@DU?$char_traits@D@std@@V?$allocator@D@2@@std@@@?$basic_format_args@V?$basic_format_context@Vappender@v9@fmt@@D@v9@fmt@@@v9@fmt@@QEAA@AEBV?$format_arg_store@V?$basic_format_context@Vappender@v9@fmt@@D@v9@fmt@@V?$basic_string@DU?$char_traits@D@std@@V?$allocator@D@2@@std@@@12@@Z
	??$?0V?$basic_string@DU?$char_traits@D@std@@V?$allocator@D@2@@std@@I@?$_Ref_count_obj2@VNetworkClient@network@midnight@@@std@@QEAA@$$QEAV?$basic_string@DU?$char_traits@D@std@@V?$allocator@D@2@@1@$$QEAI@Z
	??$?0V?$basic_string@DU?$char_traits@D@std@@V?$allocator@D@2@@std@@V01@$0A@@?$basic_json@Vmap@std@@Vvector@2@V?$basic_string@DU?$char_traits@D@std@@V?$allocator@D@2@@2@_N_J_KNVallocator@2@Uadl_serializer@json_abi_v3_11_2@nlohmann@@V?$vector@EV?$allocator@E@std@@@2@@json_abi_v3_11_2@nlohmann@@QEAA@$$QEAV?$basic_string@DU?$char_traits@D@std@@V?$allocator@D@2@@std@@@Z
	??$?0V?$basic_string@DU?$char_traits@D@std@@V?$allocator@D@2@@std@@V01@$0A@@?$pair@$$CBV?$basic_string@DU?$char_traits@D@std@@V?$allocator@D@2@@std@@V12@@std@@QEAA@$$QEAU?$pair@V?$basic_string@DU?$char_traits@D@std@@V?$allocator@D@2@@std@@V12@@1@@Z
	??$?0V?$basic_string@DU?$char_traits@D@std@@V?$allocator@D@2@@std@@V01@$0A@@?$pair@$$CBV?$basic_string@DU?$char_traits@D@std@@V?$allocator@D@2@@std@@V12@@std@@QEAA@$$QEAV?$basic_string@DU?$char_traits@D@std@@V?$allocator@D@2@@1@0@Z
	??$?0V?$basic_string@DU?$char_traits@D@std@@V?$allocator@D@2@@std@@V01@@?$_Tree_temp_node@V?$allocator@U?$_Tree_node@U?$pair@$$CBV?$basic_string@DU?$char_traits@D@std@@V?$allocator@D@2@@std@@V12@@std@@PEAX@std@@@std@@@std@@QEAA@AEAV?$allocator@U?$_Tree_node@U?$pair@$$CBV?$basic_string@DU?$char_traits@D@std@@V?$allocator@D@2@@std@@V12@@std@@PEAX@std@@@1@PEAU?$_Tree_node@U?$pair@$$CBV?$basic_string@DU?$char_traits@D@std@@V?$allocator@D@2@@std@@V12@@std@@PEAX@1@$$QEAV?$basic_string@DU?$char_traits@D@std@@V?$allocator@D@2@@1@2@Z
	??$?0V?$basic_string@DU?$char_traits@D@std@@V?$allocator@D@2@@std@@V01@G@?$basic_format_args@V?$basic_format_context@Vappender@v9@fmt@@D@v9@fmt@@@v9@fmt@@QEAA@AEBV?$format_arg_store@V?$basic_format_context@Vappender@v9@fmt@@D@v9@fmt@@V?$basic_string@DU?$char_traits@D@std@@V?$allocator@D@2@@std@@V45@G@12@@Z
	??$?0V?$basic_string@DU?$char_traits@D@std@@V?$allocator@D@2@@std@@V01@I_JV01@@?$basic_format_args@V?$basic_format_context@Vappender@v9@fmt@@D@v9@fmt@@@v9@fmt@@QEAA@AEBV?$format_arg_store@V?$basic_format_context@Vappender@v9@fmt@@D@v9@fmt@@V?$basic_string@DU?$char_traits@D@std@@V?$allocator@D@2@@std@@V45@I_JV45@@12@@Z
	??$?0V?$basic_string@DU?$char_traits@D@std@@V?$allocator@D@2@@std@@V?$basic_json@Vmap@std@@Vvector@2@V?$basic_string@DU?$char_traits@D@std@@V?$allocator@D@2@@2@_N_J_KNVallocator@2@Uadl_serializer@json_abi_v3_11_2@nlohmann@@V?$vector@EV?$allocator@E@std@@@2@@json_abi_v3_11_2@nlohmann@@$0A@@?$pair@$$CBV?$basic_string@DU?$char_traits@D@std@@V?$allocator@D@2@@std@@V?$basic_json@Vmap@std@@Vvector@2@V?$basic_string@DU?$char_traits@D@std@@V?$allocator@D@2@@2@_N_J_KNVallocator@2@Uadl_serializer@json_abi_v3_11_2@nlohmann@@V?$vector@EV?$allocator@E@std@@@2@@json_abi_v3_11_2@nlohmann@@@std@@QEAA@$$QEAV?$basic_string@DU?$char_traits@D@std@@V?$allocator@D@2@@1@$$QEAV?$basic_json@Vmap@std@@Vvector@2@V?$basic_string@DU?$char_traits@D@std@@V?$allocator@D@2@@2@_N_J_KNVallocator@2@Uadl_serializer@json_abi_v3_11_2@nlohmann@@V?$vector@EV?$allocator@E@std@@@2@@json_abi_v3_11_2@nlohmann@@@Z
	??$?0V?$basic_string@DU?$char_traits@D@std@@V?$allocator@D@2@@std@@V?$basic_json@Vmap@std@@Vvector@2@V?$basic_string@DU?$char_traits@D@std@@V?$allocator@D@2@@2@_N_J_KNVallocator@2@Uadl_serializer@json_abi_v3_11_2@nlohmann@@V?$vector@EV?$allocator@E@std@@@2@@json_abi_v3_11_2@nlohmann@@@?$_Tree_temp_node@V?$allocator@U?$_Tree_node@U?$pair@$$CBV?$basic_string@DU?$char_traits@D@std@@V?$allocator@D@2@@std@@V?$basic_json@Vmap@std@@Vvector@2@V?$basic_string@DU?$char_traits@D@std@@V?$allocator@D@2@@2@_N_J_KNVallocator@2@Uadl_serializer@json_abi_v3_11_2@nlohmann@@V?$vector@EV?$allocator@E@std@@@2@@json_abi_v3_11_2@nlohmann@@@std@@PEAX@std@@@std@@@std@@QEAA@AEAV?$allocator@U?$_Tree_node@U?$pair@$$CBV?$basic_string@DU?$char_traits@D@std@@V?$allocator@D@2@@std@@V?$basic_json@Vmap@std@@Vvector@2@V?$basic_string@DU?$char_traits@D@std@@V?$allocator@D@2@@2@_N_J_KNVallocator@2@Uadl_serializer@json_abi_v3_11_2@nlohmann@@V?$vector@EV?$allocator@E@std@@@2@@json_abi_v3_11_2@nlohmann@@@std@@PEAX@std@@@1@PEAU?$_Tree_node@U?$pair@$$CBV?$basic_string@DU?$char_traits@D@std@@V?$allocator@D@2@@std@@V?$basic_json@Vmap@std@@Vvector@2@V?$basic_string@DU?$char_traits@D@std@@V?$allocator@D@2@@2@_N_J_KNVallocator@2@Uadl_serializer@json_abi_v3_11_2@nlohmann@@V?$vector@EV?$allocator@E@std@@@2@@json_abi_v3_11_2@nlohmann@@@std@@PEAX@1@$$QEAV?$basic_string@DU?$char_traits@D@std@@V?$allocator@D@2@@1@$$QEAV?$basic_json@Vmap@std@@Vvector@2@V?$basic_string@DU?$char_traits@D@std@@V?$allocator@D@2@@2@_N_J_KNVallocator@2@Uadl_serializer@json_abi_v3_11_2@nlohmann@@V?$vector@EV?$allocator@E@std@@@2@@json_abi_v3_11_2@nlohmann@@@Z
	??$?0V?$function@$$A6A?AW4SSLVerifierResponse@httplib@@PEAUssl_st@@@Z@std@@@?$_Ref_count_obj2@V?$function@$$A6A?AW4SSLVerifierResponse@httplib@@PEAUssl_st@@@Z@std@@@std@@QEAA@$$QEAV?$function@$$A6A?AW4SSLVerifierResponse@httplib@@PEAUssl_st@@@Z@1@@Z
	??$?0V?$istreambuf_iterator@DU?$char_traits@D@std@@@std@@$0A@@?$basic_string@DU?$char_traits@D@std@@V?$allocator@D@2@@std@@QEAA@V?$istreambuf_iterator@DU?$char_traits@D@std@@@1@0AEBV?$allocator@D@1@@Z
	??$?0V?$json_ref@V?$basic_json@Vmap@std@@Vvector@2@V?$basic_string@DU?$char_traits@D@std@@V?$allocator@D@2@@2@_N_J_KNVallocator@2@Uadl_serializer@json_abi_v3_11_2@nlohmann@@V?$vector@EV?$allocator@E@std@@@2@@json_abi_v3_11_2@nlohmann@@@detail@json_abi_v3_11_2@nlohmann@@$0A@@?$basic_json@Vmap@std@@Vvector@2@V?$basic_string@DU?$char_traits@D@std@@V?$allocator@D@2@@2@_N_J_KNVallocator@2@Uadl_serializer@json_abi_v3_11_2@nlohmann@@V?$vector@EV?$allocator@E@std@@@2@@json_abi_v3_11_2@nlohmann@@QEAA@AEBV?$json_ref@V?$basic_json@Vmap@std@@Vvector@2@V?$basic_string@DU?$char_traits@D@std@@V?$allocator@D@2@@2@_N_J_KNVallocator@2@Uadl_serializer@json_abi_v3_11_2@nlohmann@@V?$vector@EV?$allocator@E@std@@@2@@json_abi_v3_11_2@nlohmann@@@detail@12@@Z
	??$?0V?$output_string_adapter@DV?$basic_string@DU?$char_traits@D@std@@V?$allocator@D@2@@std@@@detail@json_abi_v3_11_2@nlohmann@@$0A@@?$shared_ptr@U?$output_adapter_protocol@D@detail@json_abi_v3_11_2@nlohmann@@@std@@QEAA@$$QEAV?$shared_ptr@V?$output_string_adapter@DV?$basic_string@DU?$char_traits@D@std@@V?$allocator@D@2@@std@@@detail@json_abi_v3_11_2@nlohmann@@@1@@Z
	??$?0V?$sub_match@PEBD@std@@@?$allocator@U_Container_proxy@std@@@std@@QEAA@AEBV?$allocator@V?$sub_match@PEBD@std@@@1@@Z
	??$?0V?$sub_match@V?$_String_const_iterator@V?$_String_val@U?$_Simple_types@D@std@@@std@@@std@@@std@@@?$allocator@U_Container_proxy@std@@@std@@QEAA@AEBV?$allocator@V?$sub_match@V?$_String_const_iterator@V?$_String_val@U?$_Simple_types@D@std@@@std@@@std@@@std@@@1@@Z
	??$?0V?$tuple@$$QEAV?$basic_string@DU?$char_traits@D@std@@V?$allocator@D@2@@std@@@std@@V?$tuple@$$V@1@$0A@$$Z$S@?$pair@$$CBV?$basic_string@DU?$char_traits@D@std@@V?$allocator@D@2@@std@@V12@@std@@AEAA@AEAV?$tuple@$$QEAV?$basic_string@DU?$char_traits@D@std@@V?$allocator@D@2@@std@@@1@AEAV?$tuple@$$V@1@U?$integer_sequence@_K$0A@@1@U?$integer_sequence@_K$S@1@@Z
	??$?0V?$tuple@AEBV?$basic_string@DU?$char_traits@D@std@@V?$allocator@D@2@@std@@@std@@V?$tuple@$$V@1@$0A@$$Z$S@?$pair@$$CBV?$basic_string@DU?$char_traits@D@std@@V?$allocator@D@2@@std@@U?$pair@UZkProof@phase4@midnight@@_K@2@@std@@AEAA@AEAV?$tuple@AEBV?$basic_string@DU?$char_traits@D@std@@V?$allocator@D@2@@std@@@1@AEAV?$tuple@$$V@1@U?$integer_sequence@_K$0A@@1@U?$integer_sequence@_K$S@1@@Z
	??$?0V?$tuple@AEBV?$basic_string@DU?$char_traits@D@std@@V?$allocator@D@2@@std@@@std@@V?$tuple@$$V@1@$0A@$$Z$S@?$pair@$$CBV?$basic_string@DU?$char_traits@D@std@@V?$allocator@D@2@@std@@UContractState@zk@midnight@@@std@@AEAA@AEAV?$tuple@AEBV?$basic_string@DU?$char_traits@D@std@@V?$allocator@D@2@@std@@@1@AEAV?$tuple@$$V@1@U?$integer_sequence@_K$0A@@1@U?$integer_sequence@_K$S@1@@Z
	??$?0V?$tuple@AEBV?$basic_string@DU?$char_traits@D@std@@V?$allocator@D@2@@std@@@std@@V?$tuple@$$V@1@$0A@$$Z$S@?$pair@$$CBV?$basic_string@DU?$char_traits@D@std@@V?$allocator@D@2@@std@@ULedgerState@zk@midnight@@@std@@AEAA@AEAV?$tuple@AEBV?$basic_string@DU?$char_traits@D@std@@V?$allocator@D@2@@std@@@1@AEAV?$tuple@$$V@1@U?$integer_sequence@_K$0A@@1@U?$integer_sequence@_K$S@1@@Z
	??$?0V?$tuple@AEBV?$basic_string@DU?$char_traits@D@std@@V?$allocator@D@2@@std@@@std@@V?$tuple@$$V@1@$0A@$$Z$S@?$pair@$$CBV?$basic_string@DU?$char_traits@D@std@@V?$allocator@D@2@@std@@USessionInfo@SessionManager@midnight@@@std@@AEAA@AEAV?$tuple@AEBV?$basic_string@DU?$char_traits@D@std@@V?$allocator@D@2@@std@@@1@AEAV?$tuple@$$V@1@U?$integer_sequence@_K$0A@@1@U?$integer_sequence@_K$S@1@@Z
	??$?0V?$tuple@AEBV?$basic_string@DU?$char_traits@D@std@@V?$allocator@D@2@@std@@@std@@V?$tuple@$$V@1@$0A@$$Z$S@?$pair@$$CBV?$basic_string@DU?$char_traits@D@std@@V?$allocator@D@2@@std@@USubmissionResult@phase5@midnight@@@std@@AEAA@AEAV?$tuple@AEBV?$basic_string@DU?$char_traits@D@std@@V?$allocator@D@2@@std@@@1@AEAV?$tuple@$$V@1@U?$integer_sequence@_K$0A@@1@U?$integer_sequence@_K$S@1@@Z
	??$?0V?$tuple@AEBV?$basic_string@DU?$char_traits@D@std@@V?$allocator@D@2@@std@@@std@@V?$tuple@$$V@1@$0A@$$Z$S@?$pair@$$CBV?$basic_string@DU?$char_traits@D@std@@V?$allocator@D@2@@std@@UWitnessOutput@zk@midnight@@@std@@AEAA@AEAV?$tuple@AEBV?$basic_string@DU?$char_traits@D@std@@V?$allocator@D@2@@std@@@1@AEAV?$tuple@$$V@1@U?$integer_sequence@_K$0A@@1@U?$integer_sequence@_K$S@1@@Z
	??$?0V?$tuple@AEBV?$basic_string@DU?$char_traits@D@std@@V?$allocator@D@2@@std@@@std@@V?$tuple@$$V@1@$0A@$$Z$S@?$pair@$$CBV?$basic_string@DU?$char_traits@D@std@@V?$allocator@D@2@@std@@V12@@std@@AEAA@AEAV?$tuple@AEBV?$basic_string@DU?$char_traits@D@std@@V?$allocator@D@2@@std@@@1@AEAV?$tuple@$$V@1@U?$integer_sequence@_K$0A@@1@U?$integer_sequence@_K$S@1@@Z
	??$?0V?$tuple@AEBV?$basic_string@DU?$char_traits@D@std@@V?$allocator@D@2@@std@@@std@@V?$tuple@$$V@1@$0A@$$Z$S@?$pair@$$CBV?$basic_string@DU?$char_traits@D@std@@V?$allocator@D@2@@std@@V?$basic_json@Vmap@std@@Vvector@2@V?$basic_string@DU?$char_traits@D@std@@V?$allocator@D@2@@2@_N_J_KNVallocator@2@Uadl_serializer@json_abi_v3_11_2@nlohmann@@V?$vector@EV?$allocator@E@std@@@2@@json_abi_v3_11_2@nlohmann@@@std@@AEAA@AEAV?$tuple@AEBV?$basic_string@DU?$char_traits@D@std@@V?$allocator@D@2@@std@@@1@AEAV?$tuple@$$V@1@U?$integer_sequence@_K$0A@@1@U?$integer_sequence@_K$S@1@@Z
	??$?0V?$tuple@AEBV?$basic_string@DU?$char_traits@D@std@@V?$allocator@D@2@@std@@@std@@V?$tuple@$$V@1@$0A@$$Z$S@?$pair@$$CBV?$basic_string@DU?$char_traits@D@std@@V?$allocator@D@2@@std@@V?$function@$$A6AXAEBV?$basic_string@DU?$char_traits@D@std@@V?$allocator@D@2@@std@@@Z@2@@std@@AEAA@AEAV?$tuple@AEBV?$basic_string@DU?$char_traits@D@std@@V?$allocator@D@2@@std@@@1@AEAV?$tuple@$$V@1@U?$integer_sequence@_K$0A@@1@U?$integer_sequence@_K$S@1@@Z
	??$?0V?$tuple@AEBV?$basic_string@DU?$char_traits@D@std@@V?$allocator@D@2@@std@@@std@@V?$tuple@$$V@1@$0A@$$Z$S@?$pair@$$CBV?$basic_string@DU?$char_traits@D@std@@V?$allocator@D@2@@std@@V?$vector@EV?$allocator@E@std@@@2@@std@@AEAA@AEAV?$tuple@AEBV?$basic_string@DU?$char_traits@D@std@@V?$allocator@D@2@@std@@@1@AEAV?$tuple@$$V@1@U?$integer_sequence@_K$0A@@1@U?$integer_sequence@_K$S@1@@Z
	??$?0V?$tuple@AEBV?$basic_string@DU?$char_traits@D@std@@V?$allocator@D@2@@std@@@std@@V?$tuple@$$V@1@$0A@$$Z$S@?$pair@$$CBV?$basic_string@DU?$char_traits@D@std@@V?$allocator@D@2@@std@@V?$vector@UContractState@zk@midnight@@V?$allocator@UContractState@zk@midnight@@@std@@@2@@std@@AEAA@AEAV?$tuple@AEBV?$basic_string@DU?$char_traits@D@std@@V?$allocator@D@2@@std@@@1@AEAV?$tuple@$$V@1@U?$integer_sequence@_K$0A@@1@U?$integer_sequence@_K$S@1@@Z
	??$?0V?$tuple@AEBV?$basic_string@DU?$char_traits@D@std@@V?$allocator@D@2@@std@@@std@@V?$tuple@$$V@1@$0A@$$Z$S@?$pair@$$CBV?$basic_string@DU?$char_traits@D@std@@V?$allocator@D@2@@std@@_K@std@@AEAA@AEAV?$tuple@AEBV?$basic_string@DU?$char_traits@D@std@@V?$allocator@D@2@@std@@@1@AEAV?$tuple@$$V@1@U?$integer_sequence@_K$0A@@1@U?$integer_sequence@_K$S@1@@Z
	??$?0V?$value@V?$basic_format_context@Vappender@v9@fmt@@D@v9@fmt@@@detail@v9@fmt@@@?$arg_data@V?$value@V?$basic_format_context@Vappender@v9@fmt@@D@v9@fmt@@@detail@v9@fmt@@D$00$0A@@detail@v9@fmt@@QEAA@AEBV?$value@V?$basic_format_context@Vappender@v9@fmt@@D@v9@fmt@@@123@@Z
	??$?0V?$value@V?$basic_format_context@Vappender@v9@fmt@@D@v9@fmt@@@detail@v9@fmt@@V0123@V0123@@?$arg_data@V?$value@V?$basic_format_context@Vappender@v9@fmt@@D@v9@fmt@@@detail@v9@fmt@@D$02$0A@@detail@v9@fmt@@QEAA@AEBV?$value@V?$basic_format_context@Vappender@v9@fmt@@D@v9@fmt@@@123@00@Z
	??$?0V?$value@V?$basic_format_context@Vappender@v9@fmt@@D@v9@fmt@@@detail@v9@fmt@@V0123@V0123@V0123@V0123@@?$arg_data@V?$value@V?$basic_format_context@Vappender@v9@fmt@@D@v9@fmt@@@detail@v9@fmt@@D$04$0A@@detail@v9@fmt@@QEAA@AEBV?$value@V?$basic_format_context@Vappender@v9@fmt@@D@v9@fmt@@@123@0000@Z
	??$?0V?$vector@UUtxo@phase3@midnight@@V?$allocator@UUtxo@phase3@midnight@@@std@@@std@@$0A@@?$optional@V?$vector@UUtxo@phase3@midnight@@V?$allocator@UUtxo@phase3@midnight@@@std@@@std@@@std@@QEAA@$$QEAV?$vector@UUtxo@phase3@midnight@@V?$allocator@UUtxo@phase3@midnight@@@std@@@1@@Z
	??$?0V?$vector@UUtxo@phase3@midnight@@V?$allocator@UUtxo@phase3@midnight@@@std@@@std@@@?$_Non_trivial_copy@U?$_Optional_construct_base@V?$vector@UUtxo@phase3@midnight@@V?$allocator@UUtxo@phase3@midnight@@@std@@@std@@@std@@@std@@QEAA@Uin_place_t@1@$$QEAV?$vector@UUtxo@phase3@midnight@@V?$allocator@UUtxo@phase3@midnight@@@std@@@1@@Z
	??$?0V?$vector@UUtxo@phase3@midnight@@V?$allocator@UUtxo@phase3@midnight@@@std@@@std@@@?$_Non_trivial_copy_assign@U?$_Optional_construct_base@V?$vector@UUtxo@phase3@midnight@@V?$allocator@UUtxo@phase3@midnight@@@std@@@std@@@std@@V?$vector@UUtxo@phase3@midnight@@V?$allocator@UUtxo@phase3@midnight@@@std@@@2@@std@@QEAA@Uin_place_t@1@$$QEAV?$vector@UUtxo@phase3@midnight@@V?$allocator@UUtxo@phase3@midnight@@@std@@@1@@Z
	??$?0V?$vector@UUtxo@phase3@midnight@@V?$allocator@UUtxo@phase3@midnight@@@std@@@std@@@?$_Non_trivial_move@U?$_Optional_construct_base@V?$vector@UUtxo@phase3@midnight@@V?$allocator@UUtxo@phase3@midnight@@@std@@@std@@@std@@V?$vector@UUtxo@phase3@midnight@@V?$allocator@UUtxo@phase3@midnight@@@std@@@2@@std@@QEAA@Uin_place_t@1@$$QEAV?$vector@UUtxo@phase3@midnight@@V?$allocator@UUtxo@phase3@midnight@@@std@@@1@@Z
	??$?0V?$vector@UUtxo@phase3@midnight@@V?$allocator@UUtxo@phase3@midnight@@@std@@@std@@@?$_Non_trivial_move_assign@U?$_Optional_construct_base@V?$vector@UUtxo@phase3@midnight@@V?$allocator@UUtxo@phase3@midnight@@@std@@@std@@@std@@V?$vector@UUtxo@phase3@midnight@@V?$allocator@UUtxo@phase3@midnight@@@std@@@2@@std@@QEAA@Uin_place_t@1@$$QEAV?$vector@UUtxo@phase3@midnight@@V?$allocator@UUtxo@phase3@midnight@@@std@@@1@@Z
	??$?0V?$vector@UUtxo@phase3@midnight@@V?$allocator@UUtxo@phase3@midnight@@@std@@@std@@@?$_Optional_construct_base@V?$vector@UUtxo@phase3@midnight@@V?$allocator@UUtxo@phase3@midnight@@@std@@@std@@@std@@QEAA@Uin_place_t@1@$$QEAV?$vector@UUtxo@phase3@midnight@@V?$allocator@UUtxo@phase3@midnight@@@std@@@1@@Z
	??$?0V?$vector@UUtxo@phase3@midnight@@V?$allocator@UUtxo@phase3@midnight@@@std@@@std@@@?$_Optional_destruct_base@V?$vector@UUtxo@phase3@midnight@@V?$allocator@UUtxo@phase3@midnight@@@std@@@std@@$0A@@std@@QEAA@Uin_place_t@1@$$QEAV?$vector@UUtxo@phase3@midnight@@V?$allocator@UUtxo@phase3@midnight@@@std@@@1@@Z
	??$?0V?$vector@V?$basic_string@DU?$char_traits@D@std@@V?$allocator@D@2@@std@@V?$allocator@V?$basic_string@DU?$char_traits@D@std@@V?$allocator@D@2@@std@@@2@@std@@$0A@@?$optional@V?$vector@V?$basic_string@DU?$char_traits@D@std@@V?$allocator@D@2@@std@@V?$allocator@V?$basic_string@DU?$char_traits@D@std@@V?$allocator@D@2@@std@@@2@@std@@@std@@QEAA@$$QEAV?$vector@V?$basic_string@DU?$char_traits@D@std@@V?$allocator@D@2@@std@@V?$allocator@V?$basic_string@DU?$char_traits@D@std@@V?$allocator@D@2@@std@@@2@@1@@Z
	??$?0V?$vector@V?$basic_string@DU?$char_traits@D@std@@V?$allocator@D@2@@std@@V?$allocator@V?$basic_string@DU?$char_traits@D@std@@V?$allocator@D@2@@std@@@2@@std@@@?$_Non_trivial_copy@U?$_Optional_construct_base@V?$vector@V?$basic_string@DU?$char_traits@D@std@@V?$allocator@D@2@@std@@V?$allocator@V?$basic_string@DU?$char_traits@D@std@@V?$allocator@D@2@@std@@@2@@std@@@std@@@std@@QEAA@Uin_place_t@1@$$QEAV?$vector@V?$basic_string@DU?$char_traits@D@std@@V?$allocator@D@2@@std@@V?$allocator@V?$basic_string@DU?$char_traits@D@std@@V?$allocator@D@2@@std@@@2@@1@@Z
	??$?0V?$vector@V?$basic_string@DU?$char_traits@D@std@@V?$allocator@D@2@@std@@V?$allocator@V?$basic_string@DU?$char_traits@D@std@@V?$allocator@D@2@@std@@@2@@std@@@?$_Non_trivial_copy_assign@U?$_Optional_construct_base@V?$vector@V?$basic_string@DU?$char_traits@D@std@@V?$allocator@D@2@@std@@V?$allocator@V?$basic_string@DU?$char_traits@D@std@@V?$allocator@D@2@@std@@@2@@std@@@std@@V?$vector@V?$basic_string@DU?$char_traits@D@std@@V?$allocator@D@2@@std@@V?$allocator@V?$basic_string@DU?$char_traits@D@std@@V?$allocator@D@2@@std@@@2@@2@@std@@QEAA@Uin_place_t@1@$$QEAV?$vector@V?$basic_string@DU?$char_traits@D@std@@V?$allocator@D@2@@std@@V?$allocator@V?$basic_string@DU?$char_traits@D@std@@V?$allocator@D@2@@std@@@2@@1@@Z
	??$?0V?$vector@V?$basic_string@DU?$char_traits@D@std@@V?$allocator@D@2@@std@@V?$allocator@V?$basic_string@DU?$char_traits@D@std@@V?$allocator@D@2@@std@@@2@@std@@@?$_Non_trivial_move@U?$_Optional_construct_base@V?$vector@V?$basic_string@DU?$char_traits@D@std@@V?$allocator@D@2@@std@@V?$allocator@V?$basic_string@DU?$char_traits@D@std@@V?$allocator@D@2@@std@@@2@@std@@@std@@V?$vector@V?$basic_string@DU?$char_traits@D@std@@V?$allocator@D@2@@std@@V?$allocator@V?$basic_string@DU?$char_traits@D@std@@V?$allocator@D@2@@std@@@2@@2@@std@@QEAA@Uin_place_t@1@$$QEAV?$vector@V?$basic_string@DU?$char_traits@D@std@@V?$allocator@D@2@@std@@V?$allocator@V?$basic_string@DU?$char_traits@D@std@@V?$allocator@D@2@@std@@@2@@1@@Z
	??$?0V?$vector@V?$basic_string@DU?$char_traits@D@std@@V?$allocator@D@2@@std@@V?$allocator@V?$basic_string@DU?$char_traits@D@std@@V?$allocator@D@2@@std@@@2@@std@@@?$_Non_trivial_move_assign@U?$_Optional_construct_base@V?$vector@V?$basic_string@DU?$char_traits@D@std@@V?$allocator@D@2@@std@@V?$allocator@V?$basic_string@DU?$char_traits@D@std@@V?$allocator@D@2@@std@@@2@@std@@@std@@V?$vector@V?$basic_string@DU?$char_traits@D@std@@V?$allocator@D@2@@std@@V?$allocator@V?$basic_string@DU?$char_traits@D@std@@V?$allocator@D@2@@std@@@2@@2@@std@@QEAA@Uin_place_t@1@$$QEAV?$vector@V?$basic_string@DU?$char_traits@D@std@@V?$allocator@D@2@@std@@V?$allocator@V?$basic_string@DU?$char_traits@D@std@@V?$allocator@D@2@@std@@@2@@1@@Z
	??$?0V?$vector@V?$basic_string@DU?$char_traits@D@std@@V?$allocator@D@2@@std@@V?$allocator@V?$basic_string@DU?$char_traits@D@std@@V?$allocator@D@2@@std@@@2@@std@@@?$_Optional_construct_base@V?$vector@V?$basic_string@DU?$char_traits@D@std@@V?$allocator@D@2@@std@@V?$allocator@V?$basic_string@DU?$char_traits@D@std@@V?$allocator@D@2@@std@@@2@@std@@@std@@QEAA@Uin_place_t@1@$$QEAV?$vector@V?$basic_string@DU?$char_traits@D@std@@V?$allocator@D@2@@std@@V?$allocator@V?$basic_string@DU?$char_traits@D@std@@V?$allocator@D@2@@std@@@2@@1@@Z
	??$?0V?$vector@V?$basic_string@DU?$char_traits@D@std@@V?$allocator@D@2@@std@@V?$allocator@V?$basic_string@DU?$char_traits@D@std@@V?$allocator@D@2@@std@@@2@@std@@@?$_Optional_destruct_base@V?$vector@V?$basic_string@DU?$char_traits@D@std@@V?$allocator@D@2@@std@@V?$allocator@V?$basic_string@DU?$char_traits@D@std@@V?$allocator@D@2@@std@@@2@@std@@$0A@@std@@QEAA@Uin_place_t@1@$$QEAV?$vector@V?$basic_string@DU?$char_traits@D@std@@V?$allocator@D@2@@std@@V?$allocator@V?$basic_string@DU?$char_traits@D@std@@V?$allocator@D@2@@std@@@2@@1@@Z
	??$?0VConsoleLogger@midnight@@$0A@@?$shared_ptr@VLogger@midnight@@@std@@QEAA@$$QEAV?$shared_ptr@VConsoleLogger@midnight@@@1@@Z
	??$?0VContentProviderAdapter@detail@httplib@@$0A@@?$_Func_impl_no_alloc@VContentProviderAdapter@detail@httplib@@_N_K_KAEAVDataSink@3@@std@@QEAA@$$QEAVContentProviderAdapter@detail@httplib@@@Z
	??$?0VContentProviderAdapter@detail@httplib@@$0A@@?$function@$$A6A_N_K0AEAVDataSink@httplib@@@Z@std@@QEAA@$$QEAVContentProviderAdapter@detail@httplib@@@Z
	??$?0VValue@Json@@$0A@@?$optional@VValue@Json@@@std@@QEAA@$$QEAVValue@Json@@@Z
	??$?0VValue@Json@@@?$_Non_trivial_copy@U?$_Optional_construct_base@VValue@Json@@@std@@@std@@QEAA@Uin_place_t@1@$$QEAVValue@Json@@@Z
	??$?0VValue@Json@@@?$_Non_trivial_copy_assign@U?$_Optional_construct_base@VValue@Json@@@std@@VValue@Json@@@std@@QEAA@Uin_place_t@1@$$QEAVValue@Json@@@Z
	??$?0VValue@Json@@@?$_Non_trivial_move@U?$_Optional_construct_base@VValue@Json@@@std@@VValue@Json@@@std@@QEAA@Uin_place_t@1@$$QEAVValue@Json@@@Z
	??$?0VValue@Json@@@?$_Non_trivial_move_assign@U?$_Optional_construct_base@VValue@Json@@@std@@VValue@Json@@@std@@QEAA@Uin_place_t@1@$$QEAVValue@Json@@@Z
	??$?0VValue@Json@@@?$_Optional_construct_base@VValue@Json@@@std@@QEAA@Uin_place_t@1@$$QEAVValue@Json@@@Z
	??$?0VValue@Json@@@?$_Optional_destruct_base@VValue@Json@@$0A@@std@@QEAA@Uin_place_t@1@$$QEAVValue@Json@@@Z
	??$?0Vnocompressor@detail@httplib@@$0A@@?$default_delete@Vcompressor@detail@httplib@@@std@@QEAA@AEBU?$default_delete@Vnocompressor@detail@httplib@@@1@@Z
	??$?0Vseed_seq@std@@$0A@@?$mersenne_twister_engine@I$0CA@$0CHA@$0BIN@$0BP@$0JJAILANP@$0L@$0PPPPPPPP@$06$0JNCMFGIA@$0P@$0OPMGAAAA@$0BC@$0GMAHIJGF@@std@@QEAA@AEAVseed_seq@1@@Z
	??$?0_J$0A@@?$duration@_JU?$ratio@$00$00@std@@@chrono@std@@QEAA@AEB_J@Z
	??$?0_J$0A@@?$duration@_JU?$ratio@$00$0DLJKMKAA@@std@@@chrono@std@@QEAA@AEB_J@Z
	??$?0_J$0A@@?$duration@_JU?$ratio@$00$0DOI@@std@@@chrono@std@@QEAA@AEB_J@Z
	??$?0_J$0A@@?$duration@_JU?$ratio@$00$0JIJGIA@@std@@@chrono@std@@QEAA@AEB_J@Z
	??$?0_J$0A@@?$duration@_JU?$ratio@$00$0PECEA@@std@@@chrono@std@@QEAA@AEB_J@Z
	??$?0_JU?$ratio@$00$00@std@@$0A@@?$duration@_JU?$ratio@$00$0DLJKMKAA@@std@@@chrono@std@@QEAA@AEBV?$duration@_JU?$ratio@$00$00@std@@@12@@Z
	??$?0_JU?$ratio@$00$00@std@@$0A@@?$duration@_JU?$ratio@$00$0DOI@@std@@@chrono@std@@QEAA@AEBV?$duration@_JU?$ratio@$00$00@std@@@12@@Z
	??$?0_JU?$ratio@$00$0DOI@@std@@$0A@@?$duration@_JU?$ratio@$00$0DLJKMKAA@@std@@@chrono@std@@QEAA@AEBV?$duration@_JU?$ratio@$00$0DOI@@std@@@12@@Z
	??$?0_JU?$ratio@$00$0PECEA@@std@@$0A@@?$duration@_JU?$ratio@$00$0DLJKMKAA@@std@@@chrono@std@@QEAA@AEBV?$duration@_JU?$ratio@$00$0PECEA@@std@@@12@@Z
	??$?0_K@?$allocator@U_Container_proxy@std@@@std@@QEAA@AEBV?$allocator@_K@1@@Z
	??$?0_K_K$0A@@?$basic_json@Vmap@std@@Vvector@2@V?$basic_string@DU?$char_traits@D@std@@V?$allocator@D@2@@2@_N_J_KNVallocator@2@Uadl_serializer@json_abi_v3_11_2@nlohmann@@V?$vector@EV?$allocator@E@std@@@2@@json_abi_v3_11_2@nlohmann@@QEAA@$$QEA_K@Z
	??$?0_N$$T$0A@@?$pair@_NPEAV?$basic_json@Vmap@std@@Vvector@2@V?$basic_string@DU?$char_traits@D@std@@V?$allocator@D@2@@2@_N_J_KNVallocator@2@Uadl_serializer@json_abi_v3_11_2@nlohmann@@V?$vector@EV?$allocator@E@std@@@2@@json_abi_v3_11_2@nlohmann@@@std@@QEAA@$$QEA_N$$QEA$$T@Z
	??$?0_N@?$allocator@I@std@@QEAA@AEBV?$allocator@_N@1@@Z
	??$?0_NAEAPEAV?$basic_json@Vmap@std@@Vvector@2@V?$basic_string@DU?$char_traits@D@std@@V?$allocator@D@2@@2@_N_J_KNVallocator@2@Uadl_serializer@json_abi_v3_11_2@nlohmann@@V?$vector@EV?$allocator@E@std@@@2@@json_abi_v3_11_2@nlohmann@@$0A@@?$pair@_NPEAV?$basic_json@Vmap@std@@Vvector@2@V?$basic_string@DU?$char_traits@D@std@@V?$allocator@D@2@@2@_N_J_KNVallocator@2@Uadl_serializer@json_abi_v3_11_2@nlohmann@@V?$vector@EV?$allocator@E@std@@@2@@json_abi_v3_11_2@nlohmann@@@std@@QEAA@$$QEA_NAEAPEAV?$basic_json@Vmap@std@@Vvector@2@V?$basic_string@DU?$char_traits@D@std@@V?$allocator@D@2@@2@_N_J_KNVallocator@2@Uadl_serializer@json_abi_v3_11_2@nlohmann@@V?$vector@EV?$allocator@E@std@@@2@@json_abi_v3_11_2@nlohmann@@@Z
	??$?0_NPEAV?$basic_json@Vmap@std@@Vvector@2@V?$basic_string@DU?$char_traits@D@std@@V?$allocator@D@2@@2@_N_J_KNVallocator@2@Uadl_serializer@json_abi_v3_11_2@nlohmann@@V?$vector@EV?$allocator@E@std@@@2@@json_abi_v3_11_2@nlohmann@@$0A@@?$pair@_NPEAV?$basic_json@Vmap@std@@Vvector@2@V?$basic_string@DU?$char_traits@D@std@@V?$allocator@D@2@@2@_N_J_KNVallocator@2@Uadl_serializer@json_abi_v3_11_2@nlohmann@@V?$vector@EV?$allocator@E@std@@@2@@json_abi_v3_11_2@nlohmann@@@std@@QEAA@$$QEA_N$$QEAPEAV?$basic_json@Vmap@std@@Vvector@2@V?$basic_string@DU?$char_traits@D@std@@V?$allocator@D@2@@2@_N_J_KNVallocator@2@Uadl_serializer@json_abi_v3_11_2@nlohmann@@V?$vector@EV?$allocator@E@std@@@2@@json_abi_v3_11_2@nlohmann@@@Z
	??$?0_N_N$0A@@?$basic_json@Vmap@std@@Vvector@2@V?$basic_string@DU?$char_traits@D@std@@V?$allocator@D@2@@2@_N_J_KNVallocator@2@Uadl_serializer@json_abi_v3_11_2@nlohmann@@V?$vector@EV?$allocator@E@std@@@2@@json_abi_v3_11_2@nlohmann@@QEAA@$$QEA_N@Z
	??$?0_W@?$allocator@U_Container_proxy@std@@@std@@QEAA@AEBV?$allocator@_W@1@@Z
	??$?4$$CBV?$basic_string@DU?$char_traits@D@std@@V?$allocator@D@2@@std@@V01@$0A@@?$pair@V?$basic_string@DU?$char_traits@D@std@@V?$allocator@D@2@@std@@V12@@std@@QEAAAEAU01@AEBU?$pair@$$CBV?$basic_string@DU?$char_traits@D@std@@V?$allocator@D@2@@std@@V12@@1@@Z
	??$?4U?$default_delete@UResponse@httplib@@@std@@$0A@@?$unique_ptr@UResponse@httplib@@U?$default_delete@UResponse@httplib@@@std@@@std@@QEAAAEAV01@$$QEAV01@@Z
	??$?4U?$default_delete@VMidnightNodeRPC@network@midnight@@@std@@$0A@@?$unique_ptr@VMidnightNodeRPC@network@midnight@@U?$default_delete@VMidnightNodeRPC@network@midnight@@@std@@@std@@QEAAAEAV01@$$QEAV01@@Z
	??$?4U?$default_delete@Vdecompressor@detail@httplib@@@std@@$0A@@?$unique_ptr@Vdecompressor@detail@httplib@@U?$default_delete@Vdecompressor@detail@httplib@@@std@@@std@@QEAAAEAV01@$$QEAV01@@Z
	??$?4U?$pair@UZkProof@phase4@midnight@@_K@std@@$0A@@?$pair@UZkProof@phase4@midnight@@_K@std@@QEAAAEAU01@$$QEAU01@@Z
	??$?4U?$pair@V?$_String_const_iterator@V?$_String_val@U?$_Simple_types@D@std@@@std@@@std@@V12@@std@@$0A@@?$pair@V?$_String_const_iterator@V?$_String_val@U?$_Simple_types@D@std@@@std@@@std@@V12@@std@@QEAAAEAU01@$$QEAU01@@Z
	??$?4V<lambda_1>@?1???$write_content_chunked@V<lambda_1>@?1??write_content_with_provider@ClientImpl@httplib@@IEBA_NAEAVStream@4@AEBURequest@4@AEAW4Error@4@@Z@Vcompressor@detail@4@@detail@httplib@@YA_NAEAVStream@2@AEBV?$function@$$A6A_N_K0AEAVDataSink@httplib@@@Z@std@@AEBV0?1??write_content_with_provider@ClientImpl@2@IEBA_N0AEBURequest@2@AEAW4Error@2@@Z@AEAVcompressor@12@3@Z@$0A@@?$function@$$A6A_NPEBD_K@Z@std@@QEAAAEAV01@$$QEAV<lambda_1>@?1???$write_content_chunked@V<lambda_1>@?1??write_content_with_provider@ClientImpl@httplib@@IEBA_NAEAVStream@4@AEBURequest@4@AEAW4Error@4@@Z@Vcompressor@detail@4@@detail@httplib@@YA_NAEAVStream@4@AEBV?$function@$$A6A_N_K0AEAVDataSink@httplib@@@Z@1@AEBV2?1??write_content_with_provider@ClientImpl@4@IEBA_N0AEBURequest@4@AEAW4Error@4@@Z@AEAVcompressor@34@3@Z@@Z
	??$?4V<lambda_1>@?1???$write_content_with_progress@V<lambda_1>@?1??write_content_with_provider@ClientImpl@httplib@@IEBA_NAEAVStream@4@AEBURequest@4@AEAW4Error@4@@Z@@detail@httplib@@YA_NAEAVStream@2@AEBV?$function@$$A6A_N_K0AEAVDataSink@httplib@@@Z@std@@_K2V0?1??write_content_with_provider@ClientImpl@2@IEBA_N0AEBURequest@2@AEAW4Error@2@@Z@AEBV?$function@$$A6A_N_K0@Z@5@4@Z@$0A@@?$function@$$A6A_NPEBD_K@Z@std@@QEAAAEAV01@$$QEAV<lambda_1>@?1???$write_content_with_progress@V<lambda_1>@?1??write_content_with_provider@ClientImpl@httplib@@IEBA_NAEAVStream@4@AEBURequest@4@AEAW4Error@4@@Z@@detail@httplib@@YA_NAEAVStream@4@AEBV?$function@$$A6A_N_K0AEAVDataSink@httplib@@@Z@1@_K2V2?1??write_content_with_provider@ClientImpl@4@IEBA_N0AEBURequest@4@AEAW4Error@4@@Z@AEBV?$function@$$A6A_N_K0@Z@1@4@Z@@Z
	??$?4V<lambda_1>@?1??set_server_certificate_verifier@SSLClient@httplib@@UEAAXV?$function@$$A6A?AW4SSLVerifierResponse@httplib@@PEAUssl_st@@@Z@std@@@Z@$0A@@?$function@$$A6A?AW4SSLVerifierResponse@httplib@@PEAX@Z@std@@QEAAAEAV01@$$QEAV<lambda_1>@?1??set_server_certificate_verifier@SSLClient@httplib@@UEAAXV?$function@$$A6A?AW4SSLVerifierResponse@httplib@@PEAUssl_st@@@Z@1@@Z@@Z
	??$?4V<lambda_1>@?O@??send_with_content_provider_and_receiver@ClientImpl@httplib@@AEAA?AV?$unique_ptr@UResponse@httplib@@U?$default_delete@UResponse@httplib@@@std@@@std@@AEAURequest@3@PEBD_KV?$function@$$A6A_N_K0AEAVDataSink@httplib@@@Z@5@V?$function@$$A6A_N_KAEAVDataSink@httplib@@@Z@5@AEBV?$basic_string@DU?$char_traits@D@std@@V?$allocator@D@2@@5@V?$function@$$A6A_NPEBD_K@Z@5@AEAW4Error@3@@Z@$0A@@?$function@$$A6A_NPEBD_K@Z@std@@QEAAAEAV01@$$QEAV<lambda_1>@?O@??send_with_content_provider_and_receiver@ClientImpl@httplib@@AEAA?AV?$unique_ptr@UResponse@httplib@@U?$default_delete@UResponse@httplib@@@std@@@1@AEAURequest@5@PEBD_KV?$function@$$A6A_N_K0AEAVDataSink@httplib@@@Z@1@V?$function@$$A6A_N_KAEAVDataSink@httplib@@@Z@1@AEBV?$basic_string@DU?$char_traits@D@std@@V?$allocator@D@2@@1@V01@AEAW4Error@5@@Z@@Z
	??$?4V<lambda_2>@?1???$write_content_chunked@V<lambda_1>@?1??write_content_with_provider@ClientImpl@httplib@@IEBA_NAEAVStream@4@AEBURequest@4@AEAW4Error@4@@Z@Vcompressor@detail@4@@detail@httplib@@YA_NAEAVStream@2@AEBV?$function@$$A6A_N_K0AEAVDataSink@httplib@@@Z@std@@AEBV<lambda_1>@?1??write_content_with_provider@ClientImpl@2@IEBA_N0AEBURequest@2@AEAW4Error@2@@Z@AEAVcompressor@12@3@Z@$0A@@?$function@$$A6A_NXZ@std@@QEAAAEAV01@$$QEAV<lambda_2>@?1???$write_content_chunked@V<lambda_1>@?1??write_content_with_provider@ClientImpl@httplib@@IEBA_NAEAVStream@4@AEBURequest@4@AEAW4Error@4@@Z@Vcompressor@detail@4@@detail@httplib@@YA_NAEAVStream@4@AEBV?$function@$$A6A_N_K0AEAVDataSink@httplib@@@Z@1@AEBV<lambda_1>@?1??write_content_with_provider@ClientImpl@4@IEBA_N0AEBURequest@4@AEAW4Error@4@@Z@AEAVcompressor@34@3@Z@@Z
	??$?4V<lambda_2>@?1???$write_content_with_progress@V<lambda_1>@?1??write_content_with_provider@ClientImpl@httplib@@IEBA_NAEAVStream@4@AEBURequest@4@AEAW4Error@4@@Z@@detail@httplib@@YA_NAEAVStream@2@AEBV?$function@$$A6A_N_K0AEAVDataSink@httplib@@@Z@std@@_K2V<lambda_1>@?1??write_content_with_provider@ClientImpl@2@IEBA_N0AEBURequest@2@AEAW4Error@2@@Z@AEBV?$function@$$A6A_N_K0@Z@5@4@Z@$0A@@?$function@$$A6A_NXZ@std@@QEAAAEAV01@$$QEAV<lambda_2>@?1???$write_content_with_progress@V<lambda_1>@?1??write_content_with_provider@ClientImpl@httplib@@IEBA_NAEAVStream@4@AEBURequest@4@AEAW4Error@4@@Z@@detail@httplib@@YA_NAEAVStream@4@AEBV?$function@$$A6A_N_K0AEAVDataSink@httplib@@@Z@1@_K2V<lambda_1>@?1??write_content_with_provider@ClientImpl@4@IEBA_N0AEBURequest@4@AEAW4Error@4@@Z@AEBV?$function@$$A6A_N_K0@Z@1@4@Z@@Z
	??$?4V<lambda_3>@?CG@??send_with_content_provider_and_receiver@ClientImpl@httplib@@AEAA?AV?$unique_ptr@UResponse@httplib@@U?$default_delete@UResponse@httplib@@@std@@@std@@AEAURequest@3@PEBD_KV?$function@$$A6A_N_K0AEAVDataSink@httplib@@@Z@5@V?$function@$$A6A_N_KAEAVDataSink@httplib@@@Z@5@AEBV?$basic_string@DU?$char_traits@D@std@@V?$allocator@D@2@@5@V?$function@$$A6A_NPEBD_K@Z@5@AEAW4Error@3@@Z@$0A@@?$function@$$A6A_NPEBD_K11@Z@std@@QEAAAEAV01@$$QEAV<lambda_3>@?CG@??send_with_content_provider_and_receiver@ClientImpl@httplib@@AEAA?AV?$unique_ptr@UResponse@httplib@@U?$default_delete@UResponse@httplib@@@std@@@1@AEAURequest@5@PEBD_KV?$function@$$A6A_N_K0AEAVDataSink@httplib@@@Z@1@V?$function@$$A6A_N_KAEAVDataSink@httplib@@@Z@1@AEBV?$basic_string@DU?$char_traits@D@std@@V?$allocator@D@2@@1@V?$function@$$A6A_NPEBD_K@Z@1@AEAW4Error@5@@Z@@Z
	??$?4V<lambda_4>@?1???$write_content_chunked@V<lambda_1>@?1??write_content_with_provider@ClientImpl@httplib@@IEBA_NAEAVStream@4@AEBURequest@4@AEAW4Error@4@@Z@Vcompressor@detail@4@@detail@httplib@@YA_NAEAVStream@2@AEBV?$function@$$A6A_N_K0AEAVDataSink@httplib@@@Z@std@@AEBV<lambda_1>@?1??write_content_with_provider@ClientImpl@2@IEBA_N0AEBURequest@2@AEAW4Error@2@@Z@AEAVcompressor@12@3@Z@$0A@@?$function@$$A6AXXZ@std@@QEAAAEAV01@$$QEAV<lambda_4>@?1???$write_content_chunked@V<lambda_1>@?1??write_content_with_provider@ClientImpl@httplib@@IEBA_NAEAVStream@4@AEBURequest@4@AEAW4Error@4@@Z@Vcompressor@detail@4@@detail@httplib@@YA_NAEAVStream@4@AEBV?$function@$$A6A_N_K0AEAVDataSink@httplib@@@Z@1@AEBV<lambda_1>@?1??write_content_with_provider@ClientImpl@4@IEBA_N0AEBURequest@4@AEAW4Error@4@@Z@AEAVcompressor@34@3@Z@@Z
	??$?4V<lambda_5>@?1???$write_content_chunked@V<lambda_1>@?1??write_content_with_provider@ClientImpl@httplib@@IEBA_NAEAVStream@4@AEBURequest@4@AEAW4Error@4@@Z@Vcompressor@detail@4@@detail@httplib@@YA_NAEAVStream@2@AEBV?$function@$$A6A_N_K0AEAVDataSink@httplib@@@Z@std@@AEBV<lambda_1>@?1??write_content_with_provider@ClientImpl@2@IEBA_N0AEBURequest@2@AEAW4Error@2@@Z@AEAVcompressor@12@3@Z@$0A@@?$function@$$A6AXAEBV?$unordered_multimap@V?$basic_string@DU?$char_traits@D@std@@V?$allocator@D@2@@std@@V12@Uhash@case_ignore@detail@httplib@@Uequal_to@456@V?$allocator@U?$pair@$$CBV?$basic_string@DU?$char_traits@D@std@@V?$allocator@D@2@@std@@V12@@std@@@2@@std@@@Z@std@@QEAAAEAV01@$$QEAV<lambda_5>@?1???$write_content_chunked@V<lambda_1>@?1??write_content_with_provider@ClientImpl@httplib@@IEBA_NAEAVStream@4@AEBURequest@4@AEAW4Error@4@@Z@Vcompressor@detail@4@@detail@httplib@@YA_NAEAVStream@4@AEBV?$function@$$A6A_N_K0AEAVDataSink@httplib@@@Z@1@AEBV<lambda_1>@?1??write_content_with_provider@ClientImpl@4@IEBA_N0AEBURequest@4@AEAW4Error@4@@Z@AEAVcompressor@34@3@Z@@Z
	??$?4VContentProviderAdapter@detail@httplib@@$0A@@?$function@$$A6A_N_K0AEAVDataSink@httplib@@@Z@std@@QEAAAEAV01@$$QEAVContentProviderAdapter@detail@httplib@@@Z
	??$?4Vnocompressor@detail@httplib@@U?$default_delete@Vnocompressor@detail@httplib@@@std@@$0A@@?$unique_ptr@Vcompressor@detail@httplib@@U?$default_delete@Vcompressor@detail@httplib@@@std@@@std@@QEAAAEAV01@$$QEAV?$unique_ptr@Vnocompressor@detail@httplib@@U?$default_delete@Vnocompressor@detail@httplib@@@std@@@1@@Z
	??$?5DU?$char_traits@D@std@@V?$allocator@D@1@@std@@YAAEAV?$basic_istream@DU?$char_traits@D@std@@@0@AEAV10@AEAV?$basic_string@DU?$char_traits@D@std@@V?$allocator@D@2@@0@@Z
	??$?6DU?$char_traits@D@std@@@std@@YAAEAV?$basic_ostream@DU?$char_traits@D@std@@@0@AEAV10@AEBU?$_Fillobj@D@0@@Z
	??$?6DU?$char_traits@D@std@@@std@@YAAEAV?$basic_ostream@DU?$char_traits@D@std@@@0@AEAV10@AEBU?$_Smanip@_J@0@@Z
	??$?6DU?$char_traits@D@std@@@std@@YAAEAV?$basic_ostream@DU?$char_traits@D@std@@@0@AEAV10@AEBU?$_Timeobj@DPEBUtm@@@0@@Z
	??$?6DU?$char_traits@D@std@@V?$allocator@D@1@@std@@YAAEAV?$basic_ostream@DU?$char_traits@D@std@@@0@AEAV10@AEBV?$basic_string@DU?$char_traits@D@std@@V?$allocator@D@2@@0@@Z
	??$?6U?$char_traits@D@std@@@std@@YAAEAV?$basic_ostream@DU?$char_traits@D@std@@@0@AEAV10@D@Z
	??$?6U?$char_traits@D@std@@@std@@YAAEAV?$basic_ostream@DU?$char_traits@D@std@@@0@AEAV10@PEBD@Z
	??$?8$$CBV?$basic_string@DU?$char_traits@D@std@@V?$allocator@D@2@@std@@V?$basic_json@Vmap@std@@Vvector@2@V?$basic_string@DU?$char_traits@D@std@@V?$allocator@D@2@@2@_N_J_KNVallocator@2@Uadl_serializer@json_abi_v3_11_2@nlohmann@@V?$vector@EV?$allocator@E@std@@@2@@json_abi_v3_11_2@nlohmann@@$$CBV01@V234@@std@@YA_NAEBU?$pair@$$CBV?$basic_string@DU?$char_traits@D@std@@V?$allocator@D@2@@std@@V?$basic_json@Vmap@std@@Vvector@2@V?$basic_string@DU?$char_traits@D@std@@V?$allocator@D@2@@2@_N_J_KNVallocator@2@Uadl_serializer@json_abi_v3_11_2@nlohmann@@V?$vector@EV?$allocator@E@std@@@2@@json_abi_v3_11_2@nlohmann@@@0@0@Z
	??$?8AEBV?$vector@EV?$allocator@E@std@@@std@@AEB_KAEB_N$$ZAEBV01@AEB_KAEB_N@std@@YA_NAEBV?$tuple@AEBV?$vector@EV?$allocator@E@std@@@std@@AEB_KAEB_N@0@0@Z
	??$?8DU?$char_traits@D@std@@@std@@YA_NAEBV?$istreambuf_iterator@DU?$char_traits@D@std@@@0@0@Z
	??$?8DU?$char_traits@D@std@@V?$allocator@D@1@@std@@YA_NAEBV?$basic_string@DU?$char_traits@D@std@@V?$allocator@D@2@@0@0@Z
	??$?8DU?$char_traits@D@std@@V?$allocator@D@1@@std@@YA_NAEBV?$basic_string@DU?$char_traits@D@std@@V?$allocator@D@2@@0@QEBD@Z
	??$?8EV?$allocator@E@std@@@std@@YA_NAEBV?$vector@EV?$allocator@E@std@@@0@0@Z
	??$?8UResponse@httplib@@U?$default_delete@UResponse@httplib@@@std@@@std@@YA_NAEBV?$unique_ptr@UResponse@httplib@@U?$default_delete@UResponse@httplib@@@std@@@0@$$T@Z
	??$?8V?$_String_const_iterator@V?$_String_val@U?$_Simple_types@D@std@@@std@@@std@@@std@@YA_NAEBV?$sub_match@V?$_String_const_iterator@V?$_String_val@U?$_Simple_types@D@std@@@std@@@std@@@0@0@Z
	??$?8V?$basic_json@Vmap@std@@Vvector@2@V?$basic_string@DU?$char_traits@D@std@@V?$allocator@D@2@@2@_N_J_KNVallocator@2@Uadl_serializer@json_abi_v3_11_2@nlohmann@@V?$vector@EV?$allocator@E@std@@@2@@json_abi_v3_11_2@nlohmann@@V?$allocator@V?$basic_json@Vmap@std@@Vvector@2@V?$basic_string@DU?$char_traits@D@std@@V?$allocator@D@2@@2@_N_J_KNVallocator@2@Uadl_serializer@json_abi_v3_11_2@nlohmann@@V?$vector@EV?$allocator@E@std@@@2@@json_abi_v3_11_2@nlohmann@@@std@@@std@@YA_NAEBV?$vector@V?$basic_json@Vmap@std@@Vvector@2@V?$basic_string@DU?$char_traits@D@std@@V?$allocator@D@2@@2@_N_J_KNVallocator@2@Uadl_serializer@json_abi_v3_11_2@nlohmann@@V?$vector@EV?$allocator@E@std@@@2@@json_abi_v3_11_2@nlohmann@@V?$allocator@V?$basic_json@Vmap@std@@Vvector@2@V?$basic_string@DU?$char_traits@D@std@@V?$allocator@D@2@@2@_N_J_KNVallocator@2@Uadl_serializer@json_abi_v3_11_2@nlohmann@@V?$vector@EV?$allocator@E@std@@@2@@json_abi_v3_11_2@nlohmann@@@std@@@0@0@Z
	??$?8V?$basic_string@DU?$char_traits@D@std@@V?$allocator@D@2@@std@@V<lambda_1>@?1???$create@V?$basic_string@DU?$char_traits@D@std@@V?$allocator@D@2@@std@@AEAY00$$CBD@?$basic_json@Vmap@std@@Vvector@2@V?$basic_string@DU?$char_traits@D@std@@V?$allocator@D@2@@2@_N_J_KNVallocator@2@Uadl_serializer@json_abi_v3_11_2@nlohmann@@V?$vector@EV?$allocator@E@std@@@2@@json_abi_v3_11_2@nlohmann@@CAPEAV01@AEAY00$$CBD@Z@@std@@YA_NAEBV?$unique_ptr@V?$basic_string@DU?$char_traits@D@std@@V?$allocator@D@2@@std@@V<lambda_1>@?1???$create@V?$basic_string@DU?$char_traits@D@std@@V?$allocator@D@2@@std@@AEAY00$$CBD@?$basic_json@Vmap@std@@Vvector@2@V?$basic_string@DU?$char_traits@D@std@@V?$allocator@D@2@@2@_N_J_KNVallocator@2@Uadl_serializer@json_abi_v3_11_2@nlohmann@@V?$vector@EV?$allocator@E@std@@@2@@json_abi_v3_11_2@nlohmann@@CAPEAV12@AEAY00$$CBD@Z@@0@$$T@Z
	??$?8V?$basic_string@DU?$char_traits@D@std@@V?$allocator@D@2@@std@@V<lambda_1>@?1???$create@V?$basic_string@DU?$char_traits@D@std@@V?$allocator@D@2@@std@@AEAY02$$CBD@?$basic_json@Vmap@std@@Vvector@2@V?$basic_string@DU?$char_traits@D@std@@V?$allocator@D@2@@2@_N_J_KNVallocator@2@Uadl_serializer@json_abi_v3_11_2@nlohmann@@V?$vector@EV?$allocator@E@std@@@2@@json_abi_v3_11_2@nlohmann@@CAPEAV01@AEAY02$$CBD@Z@@std@@YA_NAEBV?$unique_ptr@V?$basic_string@DU?$char_traits@D@std@@V?$allocator@D@2@@std@@V<lambda_1>@?1???$create@V?$basic_string@DU?$char_traits@D@std@@V?$allocator@D@2@@std@@AEAY02$$CBD@?$basic_json@Vmap@std@@Vvector@2@V?$basic_string@DU?$char_traits@D@std@@V?$allocator@D@2@@2@_N_J_KNVallocator@2@Uadl_serializer@json_abi_v3_11_2@nlohmann@@V?$vector@EV?$allocator@E@std@@@2@@json_abi_v3_11_2@nlohmann@@CAPEAV12@AEAY02$$CBD@Z@@0@$$T@Z
	??$?8V?$basic_string@DU?$char_traits@D@std@@V?$allocator@D@2@@std@@V<lambda_1>@?1???$create@V?$basic_string@DU?$char_traits@D@std@@V?$allocator@D@2@@std@@AEAY03$$CBD@?$basic_json@Vmap@std@@Vvector@2@V?$basic_string@DU?$char_traits@D@std@@V?$allocator@D@2@@2@_N_J_KNVallocator@2@Uadl_serializer@json_abi_v3_11_2@nlohmann@@V?$vector@EV?$allocator@E@std@@@2@@json_abi_v3_11_2@nlohmann@@CAPEAV01@AEAY03$$CBD@Z@@std@@YA_NAEBV?$unique_ptr@V?$basic_string@DU?$char_traits@D@std@@V?$allocator@D@2@@std@@V<lambda_1>@?1???$create@V?$basic_string@DU?$char_traits@D@std@@V?$allocator@D@2@@std@@AEAY03$$CBD@?$basic_json@Vmap@std@@Vvector@2@V?$basic_string@DU?$char_traits@D@std@@V?$allocator@D@2@@2@_N_J_KNVallocator@2@Uadl_serializer@json_abi_v3_11_2@nlohmann@@V?$vector@EV?$allocator@E@std@@@2@@json_abi_v3_11_2@nlohmann@@CAPEAV12@AEAY03$$CBD@Z@@0@$$T@Z
	??$?8V?$basic_string@DU?$char_traits@D@std@@V?$allocator@D@2@@std@@V<lambda_1>@?1???$create@V?$basic_string@DU?$char_traits@D@std@@V?$allocator@D@2@@std@@AEAY05$$CBD@?$basic_json@Vmap@std@@Vvector@2@V?$basic_string@DU?$char_traits@D@std@@V?$allocator@D@2@@2@_N_J_KNVallocator@2@Uadl_serializer@json_abi_v3_11_2@nlohmann@@V?$vector@EV?$allocator@E@std@@@2@@json_abi_v3_11_2@nlohmann@@CAPEAV01@AEAY05$$CBD@Z@@std@@YA_NAEBV?$unique_ptr@V?$basic_string@DU?$char_traits@D@std@@V?$allocator@D@2@@std@@V<lambda_1>@?1???$create@V?$basic_string@DU?$char_traits@D@std@@V?$allocator@D@2@@std@@AEAY05$$CBD@?$basic_json@Vmap@std@@Vvector@2@V?$basic_string@DU?$char_traits@D@std@@V?$allocator@D@2@@2@_N_J_KNVallocator@2@Uadl_serializer@json_abi_v3_11_2@nlohmann@@V?$vector@EV?$allocator@E@std@@@2@@json_abi_v3_11_2@nlohmann@@CAPEAV12@AEAY05$$CBD@Z@@0@$$T@Z
	??$?8V?$basic_string@DU?$char_traits@D@std@@V?$allocator@D@2@@std@@V<lambda_1>@?1???$create@V?$basic_string@DU?$char_traits@D@std@@V?$allocator@D@2@@std@@AEAY06$$CBD@?$basic_json@Vmap@std@@Vvector@2@V?$basic_string@DU?$char_traits@D@std@@V?$allocator@D@2@@2@_N_J_KNVallocator@2@Uadl_serializer@json_abi_v3_11_2@nlohmann@@V?$vector@EV?$allocator@E@std@@@2@@json_abi_v3_11_2@nlohmann@@CAPEAV01@AEAY06$$CBD@Z@@std@@YA_NAEBV?$unique_ptr@V?$basic_string@DU?$char_traits@D@std@@V?$allocator@D@2@@std@@V<lambda_1>@?1???$create@V?$basic_string@DU?$char_traits@D@std@@V?$allocator@D@2@@std@@AEAY06$$CBD@?$basic_json@Vmap@std@@Vvector@2@V?$basic_string@DU?$char_traits@D@std@@V?$allocator@D@2@@2@_N_J_KNVallocator@2@Uadl_serializer@json_abi_v3_11_2@nlohmann@@V?$vector@EV?$allocator@E@std@@@2@@json_abi_v3_11_2@nlohmann@@CAPEAV12@AEAY06$$CBD@Z@@0@$$T@Z
	??$?8V?$basic_string@DU?$char_traits@D@std@@V?$allocator@D@2@@std@@V<lambda_1>@?1???$create@V?$basic_string@DU?$char_traits@D@std@@V?$allocator@D@2@@std@@AEAY07$$CBD@?$basic_json@Vmap@std@@Vvector@2@V?$basic_string@DU?$char_traits@D@std@@V?$allocator@D@2@@2@_N_J_KNVallocator@2@Uadl_serializer@json_abi_v3_11_2@nlohmann@@V?$vector@EV?$allocator@E@std@@@2@@json_abi_v3_11_2@nlohmann@@CAPEAV01@AEAY07$$CBD@Z@@std@@YA_NAEBV?$unique_ptr@V?$basic_string@DU?$char_traits@D@std@@V?$allocator@D@2@@std@@V<lambda_1>@?1???$create@V?$basic_string@DU?$char_traits@D@std@@V?$allocator@D@2@@std@@AEAY07$$CBD@?$basic_json@Vmap@std@@Vvector@2@V?$basic_string@DU?$char_traits@D@std@@V?$allocator@D@2@@2@_N_J_KNVallocator@2@Uadl_serializer@json_abi_v3_11_2@nlohmann@@V?$vector@EV?$allocator@E@std@@@2@@json_abi_v3_11_2@nlohmann@@CAPEAV12@AEAY07$$CBD@Z@@0@$$T@Z
	??$?8V?$basic_string@DU?$char_traits@D@std@@V?$allocator@D@2@@std@@V<lambda_1>@?1???$create@V?$basic_string@DU?$char_traits@D@std@@V?$allocator@D@2@@std@@AEAY0BA@$$CBD@?$basic_json@Vmap@std@@Vvector@2@V?$basic_string@DU?$char_traits@D@std@@V?$allocator@D@2@@2@_N_J_KNVallocator@2@Uadl_serializer@json_abi_v3_11_2@nlohmann@@V?$vector@EV?$allocator@E@std@@@2@@json_abi_v3_11_2@nlohmann@@CAPEAV01@AEAY0BA@$$CBD@Z@@std@@YA_NAEBV?$unique_ptr@V?$basic_string@DU?$char_traits@D@std@@V?$allocator@D@2@@std@@V<lambda_1>@?1???$create@V?$basic_string@DU?$char_traits@D@std@@V?$allocator@D@2@@std@@AEAY0BA@$$CBD@?$basic_json@Vmap@std@@Vvector@2@V?$basic_string@DU?$char_traits@D@std@@V?$allocator@D@2@@2@_N_J_KNVallocator@2@Uadl_serializer@json_abi_v3_11_2@nlohmann@@V?$vector@EV?$allocator@E@std@@@2@@json_abi_v3_11_2@nlohmann@@CAPEAV12@AEAY0BA@$$CBD@Z@@0@$$T@Z
	??$?8V?$basic_string@DU?$char_traits@D@std@@V?$allocator@D@2@@std@@V<lambda_1>@?1???$create@V?$basic_string@DU?$char_traits@D@std@@V?$allocator@D@2@@std@@AEAY0BC@$$CBD@?$basic_json@Vmap@std@@Vvector@2@V?$basic_string@DU?$char_traits@D@std@@V?$allocator@D@2@@2@_N_J_KNVallocator@2@Uadl_serializer@json_abi_v3_11_2@nlohmann@@V?$vector@EV?$allocator@E@std@@@2@@json_abi_v3_11_2@nlohmann@@CAPEAV01@AEAY0BC@$$CBD@Z@@std@@YA_NAEBV?$unique_ptr@V?$basic_string@DU?$char_traits@D@std@@V?$allocator@D@2@@std@@V<lambda_1>@?1???$create@V?$basic_string@DU?$char_traits@D@std@@V?$allocator@D@2@@std@@AEAY0BC@$$CBD@?$basic_json@Vmap@std@@Vvector@2@V?$basic_string@DU?$char_traits@D@std@@V?$allocator@D@2@@2@_N_J_KNVallocator@2@Uadl_serializer@json_abi_v3_11_2@nlohmann@@V?$vector@EV?$allocator@E@std@@@2@@json_abi_v3_11_2@nlohmann@@CAPEAV12@AEAY0BC@$$CBD@Z@@0@$$T@Z
	??$?8V?$basic_string@DU?$char_traits@D@std@@V?$allocator@D@2@@std@@V<lambda_1>@?1???$create@V?$basic_string@DU?$char_traits@D@std@@V?$allocator@D@2@@std@@AEAY0BH@$$CBD@?$basic_json@Vmap@std@@Vvector@2@V?$basic_string@DU?$char_traits@D@std@@V?$allocator@D@2@@2@_N_J_KNVallocator@2@Uadl_serializer@json_abi_v3_11_2@nlohmann@@V?$vector@EV?$allocator@E@std@@@2@@json_abi_v3_11_2@nlohmann@@CAPEAV01@AEAY0BH@$$CBD@Z@@std@@YA_NAEBV?$unique_ptr@V?$basic_string@DU?$char_traits@D@std@@V?$allocator@D@2@@std@@V<lambda_1>@?1???$create@V?$basic_string@DU?$char_traits@D@std@@V?$allocator@D@2@@std@@AEAY0BH@$$CBD@?$basic_json@Vmap@std@@Vvector@2@V?$basic_string@DU?$char_traits@D@std@@V?$allocator@D@2@@2@_N_J_KNVallocator@2@Uadl_serializer@json_abi_v3_11_2@nlohmann@@V?$vector@EV?$allocator@E@std@@@2@@json_abi_v3_11_2@nlohmann@@CAPEAV12@AEAY0BH@$$CBD@Z@@0@$$T@Z
	??$?8V?$basic_string@DU?$char_traits@D@std@@V?$allocator@D@2@@std@@V<lambda_1>@?1???$create@V?$basic_string@DU?$char_traits@D@std@@V?$allocator@D@2@@std@@AEAY0BJ@$$CBD@?$basic_json@Vmap@std@@Vvector@2@V?$basic_string@DU?$char_traits@D@std@@V?$allocator@D@2@@2@_N_J_KNVallocator@2@Uadl_serializer@json_abi_v3_11_2@nlohmann@@V?$vector@EV?$allocator@E@std@@@2@@json_abi_v3_11_2@nlohmann@@CAPEAV01@AEAY0BJ@$$CBD@Z@@std@@YA_NAEBV?$unique_ptr@V?$basic_string@DU?$char_traits@D@std@@V?$allocator@D@2@@std@@V<lambda_1>@?1???$create@V?$basic_string@DU?$char_traits@D@std@@V?$allocator@D@2@@std@@AEAY0BJ@$$CBD@?$basic_json@Vmap@std@@Vvector@2@V?$basic_string@DU?$char_traits@D@std@@V?$allocator@D@2@@2@_N_J_KNVallocator@2@Uadl_serializer@json_abi_v3_11_2@nlohmann@@V?$vector@EV?$allocator@E@std@@@2@@json_abi_v3_11_2@nlohmann@@CAPEAV12@AEAY0BJ@$$CBD@Z@@0@$$T@Z
	??$?8V?$basic_string@DU?$char_traits@D@std@@V?$allocator@D@2@@std@@V<lambda_1>@?1???$create@V?$basic_string@DU?$char_traits@D@std@@V?$allocator@D@2@@std@@AEAY0M@$$CBD@?$basic_json@Vmap@std@@Vvector@2@V?$basic_string@DU?$char_traits@D@std@@V?$allocator@D@2@@2@_N_J_KNVallocator@2@Uadl_serializer@json_abi_v3_11_2@nlohmann@@V?$vector@EV?$allocator@E@std@@@2@@json_abi_v3_11_2@nlohmann@@CAPEAV01@AEAY0M@$$CBD@Z@@std@@YA_NAEBV?$unique_ptr@V?$basic_string@DU?$char_traits@D@std@@V?$allocator@D@2@@std@@V<lambda_1>@?1???$create@V?$basic_string@DU?$char_traits@D@std@@V?$allocator@D@2@@std@@AEAY0M@$$CBD@?$basic_json@Vmap@std@@Vvector@2@V?$basic_string@DU?$char_traits@D@std@@V?$allocator@D@2@@2@_N_J_KNVallocator@2@Uadl_serializer@json_abi_v3_11_2@nlohmann@@V?$vector@EV?$allocator@E@std@@@2@@json_abi_v3_11_2@nlohmann@@CAPEAV12@AEAY0M@$$CBD@Z@@0@$$T@Z
	??$?8V?$basic_string@DU?$char_traits@D@std@@V?$allocator@D@2@@std@@V<lambda_1>@?1???$create@V?$basic_string@DU?$char_traits@D@std@@V?$allocator@D@2@@std@@AEBV12@@?$basic_json@Vmap@std@@Vvector@2@V?$basic_string@DU?$char_traits@D@std@@V?$allocator@D@2@@2@_N_J_KNVallocator@2@Uadl_serializer@json_abi_v3_11_2@nlohmann@@V?$vector@EV?$allocator@E@std@@@2@@json_abi_v3_11_2@nlohmann@@CAPEAV01@AEBV01@@Z@@std@@YA_NAEBV?$unique_ptr@V?$basic_string@DU?$char_traits@D@std@@V?$allocator@D@2@@std@@V<lambda_1>@?1???$create@V?$basic_string@DU?$char_traits@D@std@@V?$allocator@D@2@@std@@AEBV12@@?$basic_json@Vmap@std@@Vvector@2@V?$basic_string@DU?$char_traits@D@std@@V?$allocator@D@2@@2@_N_J_KNVallocator@2@Uadl_serializer@json_abi_v3_11_2@nlohmann@@V?$vector@EV?$allocator@E@std@@@2@@json_abi_v3_11_2@nlohmann@@CAPEAV12@AEBV12@@Z@@0@$$T@Z
	??$?8V?$basic_string@DU?$char_traits@D@std@@V?$allocator@D@2@@std@@V<lambda_1>@?1???$create@V?$basic_string@DU?$char_traits@D@std@@V?$allocator@D@2@@std@@V12@@?$basic_json@Vmap@std@@Vvector@2@V?$basic_string@DU?$char_traits@D@std@@V?$allocator@D@2@@2@_N_J_KNVallocator@2@Uadl_serializer@json_abi_v3_11_2@nlohmann@@V?$vector@EV?$allocator@E@std@@@2@@json_abi_v3_11_2@nlohmann@@CAPEAV01@$$QEAV01@@Z@@std@@YA_NAEBV?$unique_ptr@V?$basic_string@DU?$char_traits@D@std@@V?$allocator@D@2@@std@@V<lambda_1>@?1???$create@V?$basic_string@DU?$char_traits@D@std@@V?$allocator@D@2@@std@@V12@@?$basic_json@Vmap@std@@Vvector@2@V?$basic_string@DU?$char_traits@D@std@@V?$allocator@D@2@@2@_N_J_KNVallocator@2@Uadl_serializer@json_abi_v3_11_2@nlohmann@@V?$vector@EV?$allocator@E@std@@@2@@json_abi_v3_11_2@nlohmann@@CAPEAV12@$$QEAV12@@Z@@0@$$T@Z
	??$?8V?$basic_string@DU?$char_traits@D@std@@V?$allocator@D@2@@std@@V?$basic_json@Vmap@std@@Vvector@2@V?$basic_string@DU?$char_traits@D@std@@V?$allocator@D@2@@2@_N_J_KNVallocator@2@Uadl_serializer@json_abi_v3_11_2@nlohmann@@V?$vector@EV?$allocator@E@std@@@2@@json_abi_v3_11_2@nlohmann@@U?$less@X@1@V?$allocator@U?$pair@$$CBV?$basic_string@DU?$char_traits@D@std@@V?$allocator@D@2@@std@@V?$basic_json@Vmap@std@@Vvector@2@V?$basic_string@DU?$char_traits@D@std@@V?$allocator@D@2@@2@_N_J_KNVallocator@2@Uadl_serializer@json_abi_v3_11_2@nlohmann@@V?$vector@EV?$allocator@E@std@@@2@@json_abi_v3_11_2@nlohmann@@@std@@@1@@std@@YA_NAEBV?$map@V?$basic_string@DU?$char_traits@D@std@@V?$allocator@D@2@@std@@V?$basic_json@Vmap@std@@Vvector@2@V?$basic_string@DU?$char_traits@D@std@@V?$allocator@D@2@@2@_N_J_KNVallocator@2@Uadl_serializer@json_abi_v3_11_2@nlohmann@@V?$vector@EV?$allocator@E@std@@@2@@json_abi_v3_11_2@nlohmann@@U?$less@X@2@V?$allocator@U?$pair@$$CBV?$basic_string@DU?$char_traits@D@std@@V?$allocator@D@2@@std@@V?$basic_json@Vmap@std@@Vvector@2@V?$basic_string@DU?$char_traits@D@std@@V?$allocator@D@2@@2@_N_J_KNVallocator@2@Uadl_serializer@json_abi_v3_11_2@nlohmann@@V?$vector@EV?$allocator@E@std@@@2@@json_abi_v3_11_2@nlohmann@@@std@@@2@@0@0@Z
	??$?8V?$byte_container_with_subtype@V?$vector@EV?$allocator@E@std@@@std@@@json_abi_v3_11_2@nlohmann@@V<lambda_1>@?1???$create@V?$byte_container_with_subtype@V?$vector@EV?$allocator@E@std@@@std@@@json_abi_v3_11_2@nlohmann@@$$V@?$basic_json@Vmap@std@@Vvector@2@V?$basic_string@DU?$char_traits@D@std@@V?$allocator@D@2@@2@_N_J_KNVallocator@2@Uadl_serializer@json_abi_v3_11_2@nlohmann@@V?$vector@EV?$allocator@E@std@@@2@@12@CAPEAV012@XZ@@std@@YA_NAEBV?$unique_ptr@V?$byte_container_with_subtype@V?$vector@EV?$allocator@E@std@@@std@@@json_abi_v3_11_2@nlohmann@@V<lambda_1>@?1???$create@V?$byte_container_with_subtype@V?$vector@EV?$allocator@E@std@@@std@@@json_abi_v3_11_2@nlohmann@@$$V@?$basic_json@Vmap@std@@Vvector@2@V?$basic_string@DU?$char_traits@D@std@@V?$allocator@D@2@@2@_N_J_KNVallocator@2@Uadl_serializer@json_abi_v3_11_2@nlohmann@@V?$vector@EV?$allocator@E@std@@@2@@23@CAPEAV123@XZ@@0@$$T@Z
	??$?8V?$byte_container_with_subtype@V?$vector@EV?$allocator@E@std@@@std@@@json_abi_v3_11_2@nlohmann@@V<lambda_1>@?1???$create@V?$byte_container_with_subtype@V?$vector@EV?$allocator@E@std@@@std@@@json_abi_v3_11_2@nlohmann@@AEBV123@@?$basic_json@Vmap@std@@Vvector@2@V?$basic_string@DU?$char_traits@D@std@@V?$allocator@D@2@@2@_N_J_KNVallocator@2@Uadl_serializer@json_abi_v3_11_2@nlohmann@@V?$vector@EV?$allocator@E@std@@@2@@12@CAPEAV012@AEBV012@@Z@@std@@YA_NAEBV?$unique_ptr@V?$byte_container_with_subtype@V?$vector@EV?$allocator@E@std@@@std@@@json_abi_v3_11_2@nlohmann@@V<lambda_1>@?1???$create@V?$byte_container_with_subtype@V?$vector@EV?$allocator@E@std@@@std@@@json_abi_v3_11_2@nlohmann@@AEBV123@@?$basic_json@Vmap@std@@Vvector@2@V?$basic_string@DU?$char_traits@D@std@@V?$allocator@D@2@@2@_N_J_KNVallocator@2@Uadl_serializer@json_abi_v3_11_2@nlohmann@@V?$vector@EV?$allocator@E@std@@@2@@23@CAPEAV123@AEBV123@@Z@@0@$$T@Z
	??$?8V?$iter_impl@$$CBV?$basic_json@Vmap@std@@Vvector@2@V?$basic_string@DU?$char_traits@D@std@@V?$allocator@D@2@@2@_N_J_KNVallocator@2@Uadl_serializer@json_abi_v3_11_2@nlohmann@@V?$vector@EV?$allocator@E@std@@@2@@json_abi_v3_11_2@nlohmann@@@detail@json_abi_v3_11_2@nlohmann@@$0A@@?$iter_impl@$$CBV?$basic_json@Vmap@std@@Vvector@2@V?$basic_string@DU?$char_traits@D@std@@V?$allocator@D@2@@2@_N_J_KNVallocator@2@Uadl_serializer@json_abi_v3_11_2@nlohmann@@V?$vector@EV?$allocator@E@std@@@2@@json_abi_v3_11_2@nlohmann@@@detail@json_abi_v3_11_2@nlohmann@@QEBA_NAEBV0123@@Z
	??$?8V?$iter_impl@V?$basic_json@Vmap@std@@Vvector@2@V?$basic_string@DU?$char_traits@D@std@@V?$allocator@D@2@@2@_N_J_KNVallocator@2@Uadl_serializer@json_abi_v3_11_2@nlohmann@@V?$vector@EV?$allocator@E@std@@@2@@json_abi_v3_11_2@nlohmann@@@detail@json_abi_v3_11_2@nlohmann@@$0A@@?$iter_impl@V?$basic_json@Vmap@std@@Vvector@2@V?$basic_string@DU?$char_traits@D@std@@V?$allocator@D@2@@2@_N_J_KNVallocator@2@Uadl_serializer@json_abi_v3_11_2@nlohmann@@V?$vector@EV?$allocator@E@std@@@2@@json_abi_v3_11_2@nlohmann@@@detail@json_abi_v3_11_2@nlohmann@@QEBA_NAEBV0123@@Z
	??$?8V?$map@V?$basic_string@DU?$char_traits@D@std@@V?$allocator@D@2@@std@@V?$basic_json@Vmap@std@@Vvector@2@V?$basic_string@DU?$char_traits@D@std@@V?$allocator@D@2@@2@_N_J_KNVallocator@2@Uadl_serializer@json_abi_v3_11_2@nlohmann@@V?$vector@EV?$allocator@E@std@@@2@@json_abi_v3_11_2@nlohmann@@U?$less@X@2@V?$allocator@U?$pair@$$CBV?$basic_string@DU?$char_traits@D@std@@V?$allocator@D@2@@std@@V?$basic_json@Vmap@std@@Vvector@2@V?$basic_string@DU?$char_traits@D@std@@V?$allocator@D@2@@2@_N_J_KNVallocator@2@Uadl_serializer@json_abi_v3_11_2@nlohmann@@V?$vector@EV?$allocator@E@std@@@2@@json_abi_v3_11_2@nlohmann@@@std@@@2@@std@@V<lambda_1>@?1???$create@V?$map@V?$basic_string@DU?$char_traits@D@std@@V?$allocator@D@2@@std@@V?$basic_json@Vmap@std@@Vvector@2@V?$basic_string@DU?$char_traits@D@std@@V?$allocator@D@2@@2@_N_J_KNVallocator@2@Uadl_serializer@json_abi_v3_11_2@nlohmann@@V?$vector@EV?$allocator@E@std@@@2@@json_abi_v3_11_2@nlohmann@@U?$less@X@2@V?$allocator@U?$pair@$$CBV?$basic_string@DU?$char_traits@D@std@@V?$allocator@D@2@@std@@V?$basic_json@Vmap@std@@Vvector@2@V?$basic_string@DU?$char_traits@D@std@@V?$allocator@D@2@@2@_N_J_KNVallocator@2@Uadl_serializer@json_abi_v3_11_2@nlohmann@@V?$vector@EV?$allocator@E@std@@@2@@json_abi_v3_11_2@nlohmann@@@std@@@2@@std@@$$V@?$basic_json@Vmap@std@@Vvector@2@V?$basic_string@DU?$char_traits@D@std@@V?$allocator@D@2@@2@_N_J_KNVallocator@2@Uadl_serializer@json_abi_v3_11_2@nlohmann@@V?$vector@EV?$allocator@E@std@@@2@@json_abi_v3_11_2@nlohmann@@CAPEAV01@XZ@@std@@YA_NAEBV?$unique_ptr@V?$map@V?$basic_string@DU?$char_traits@D@std@@V?$allocator@D@2@@std@@V?$basic_json@Vmap@std@@Vvector@2@V?$basic_string@DU?$char_traits@D@std@@V?$allocator@D@2@@2@_N_J_KNVallocator@2@Uadl_serializer@json_abi_v3_11_2@nlohmann@@V?$vector@EV?$allocator@E@std@@@2@@json_abi_v3_11_2@nlohmann@@U?$less@X@2@V?$allocator@U?$pair@$$CBV?$basic_string@DU?$char_traits@D@std@@V?$allocator@D@2@@std@@V?$basic_json@Vmap@std@@Vvector@2@V?$basic_string@DU?$char_traits@D@std@@V?$allocator@D@2@@2@_N_J_KNVallocator@2@Uadl_serializer@json_abi_v3_11_2@nlohmann@@V?$vector@EV?$allocator@E@std@@@2@@json_abi_v3_11_2@nlohmann@@@std@@@2@@std@@V<lambda_1>@?1???$create@V?$map@V?$basic_string@DU?$char_traits@D@std@@V?$allocator@D@2@@std@@V?$basic_json@Vmap@std@@Vvector@2@V?$basic_string@DU?$char_traits@D@std@@V?$allocator@D@2@@2@_N_J_KNVallocator@2@Uadl_serializer@json_abi_v3_11_2@nlohmann@@V?$vector@EV?$allocator@E@std@@@2@@json_abi_v3_11_2@nlohmann@@U?$less@X@2@V?$allocator@U?$pair@$$CBV?$basic_string@DU?$char_traits@D@std@@V?$allocator@D@2@@std@@V?$basic_json@Vmap@std@@Vvector@2@V?$basic_string@DU?$char_traits@D@std@@V?$allocator@D@2@@2@_N_J_KNVallocator@2@Uadl_serializer@json_abi_v3_11_2@nlohmann@@V?$vector@EV?$allocator@E@std@@@2@@json_abi_v3_11_2@nlohmann@@@std@@@2@@std@@$$V@?$basic_json@Vmap@std@@Vvector@2@V?$basic_string@DU?$char_traits@D@std@@V?$allocator@D@2@@2@_N_J_KNVallocator@2@Uadl_serializer@json_abi_v3_11_2@nlohmann@@V?$vector@EV?$allocator@E@std@@@2@@json_abi_v3_11_2@nlohmann@@CAPEAV12@XZ@@0@$$T@Z
	??$?8V?$map@V?$basic_string@DU?$char_traits@D@std@@V?$allocator@D@2@@std@@V?$basic_json@Vmap@std@@Vvector@2@V?$basic_string@DU?$char_traits@D@std@@V?$allocator@D@2@@2@_N_J_KNVallocator@2@Uadl_serializer@json_abi_v3_11_2@nlohmann@@V?$vector@EV?$allocator@E@std@@@2@@json_abi_v3_11_2@nlohmann@@U?$less@X@2@V?$allocator@U?$pair@$$CBV?$basic_string@DU?$char_traits@D@std@@V?$allocator@D@2@@std@@V?$basic_json@Vmap@std@@Vvector@2@V?$basic_string@DU?$char_traits@D@std@@V?$allocator@D@2@@2@_N_J_KNVallocator@2@Uadl_serializer@json_abi_v3_11_2@nlohmann@@V?$vector@EV?$allocator@E@std@@@2@@json_abi_v3_11_2@nlohmann@@@std@@@2@@std@@V<lambda_1>@?1???$create@V?$map@V?$basic_string@DU?$char_traits@D@std@@V?$allocator@D@2@@std@@V?$basic_json@Vmap@std@@Vvector@2@V?$basic_string@DU?$char_traits@D@std@@V?$allocator@D@2@@2@_N_J_KNVallocator@2@Uadl_serializer@json_abi_v3_11_2@nlohmann@@V?$vector@EV?$allocator@E@std@@@2@@json_abi_v3_11_2@nlohmann@@U?$less@X@2@V?$allocator@U?$pair@$$CBV?$basic_string@DU?$char_traits@D@std@@V?$allocator@D@2@@std@@V?$basic_json@Vmap@std@@Vvector@2@V?$basic_string@DU?$char_traits@D@std@@V?$allocator@D@2@@2@_N_J_KNVallocator@2@Uadl_serializer@json_abi_v3_11_2@nlohmann@@V?$vector@EV?$allocator@E@std@@@2@@json_abi_v3_11_2@nlohmann@@@std@@@2@@std@@AEBV12@@?$basic_json@Vmap@std@@Vvector@2@V?$basic_string@DU?$char_traits@D@std@@V?$allocator@D@2@@2@_N_J_KNVallocator@2@Uadl_serializer@json_abi_v3_11_2@nlohmann@@V?$vector@EV?$allocator@E@std@@@2@@json_abi_v3_11_2@nlohmann@@CAPEAV01@AEBV01@@Z@@std@@YA_NAEBV?$unique_ptr@V?$map@V?$basic_string@DU?$char_traits@D@std@@V?$allocator@D@2@@std@@V?$basic_json@Vmap@std@@Vvector@2@V?$basic_string@DU?$char_traits@D@std@@V?$allocator@D@2@@2@_N_J_KNVallocator@2@Uadl_serializer@json_abi_v3_11_2@nlohmann@@V?$vector@EV?$allocator@E@std@@@2@@json_abi_v3_11_2@nlohmann@@U?$less@X@2@V?$allocator@U?$pair@$$CBV?$basic_string@DU?$char_traits@D@std@@V?$allocator@D@2@@std@@V?$basic_json@Vmap@std@@Vvector@2@V?$basic_string@DU?$char_traits@D@std@@V?$allocator@D@2@@2@_N_J_KNVallocator@2@Uadl_serializer@json_abi_v3_11_2@nlohmann@@V?$vector@EV?$allocator@E@std@@@2@@json_abi_v3_11_2@nlohmann@@@std@@@2@@std@@V<lambda_1>@?1???$create@V?$map@V?$basic_string@DU?$char_traits@D@std@@V?$allocator@D@2@@std@@V?$basic_json@Vmap@std@@Vvector@2@V?$basic_string@DU?$char_traits@D@std@@V?$allocator@D@2@@2@_N_J_KNVallocator@2@Uadl_serializer@json_abi_v3_11_2@nlohmann@@V?$vector@EV?$allocator@E@std@@@2@@json_abi_v3_11_2@nlohmann@@U?$less@X@2@V?$allocator@U?$pair@$$CBV?$basic_string@DU?$char_traits@D@std@@V?$allocator@D@2@@std@@V?$basic_json@Vmap@std@@Vvector@2@V?$basic_string@DU?$char_traits@D@std@@V?$allocator@D@2@@2@_N_J_KNVallocator@2@Uadl_serializer@json_abi_v3_11_2@nlohmann@@V?$vector@EV?$allocator@E@std@@@2@@json_abi_v3_11_2@nlohmann@@@std@@@2@@std@@AEBV12@@?$basic_json@Vmap@std@@Vvector@2@V?$basic_string@DU?$char_traits@D@std@@V?$allocator@D@2@@2@_N_J_KNVallocator@2@Uadl_serializer@json_abi_v3_11_2@nlohmann@@V?$vector@EV?$allocator@E@std@@@2@@json_abi_v3_11_2@nlohmann@@CAPEAV12@AEBV12@@Z@@0@$$T@Z
	??$?8V?$vector@V?$basic_json@Vmap@std@@Vvector@2@V?$basic_string@DU?$char_traits@D@std@@V?$allocator@D@2@@2@_N_J_KNVallocator@2@Uadl_serializer@json_abi_v3_11_2@nlohmann@@V?$vector@EV?$allocator@E@std@@@2@@json_abi_v3_11_2@nlohmann@@V?$allocator@V?$basic_json@Vmap@std@@Vvector@2@V?$basic_string@DU?$char_traits@D@std@@V?$allocator@D@2@@2@_N_J_KNVallocator@2@Uadl_serializer@json_abi_v3_11_2@nlohmann@@V?$vector@EV?$allocator@E@std@@@2@@json_abi_v3_11_2@nlohmann@@@std@@@std@@V<lambda_1>@?1???$create@V?$vector@V?$basic_json@Vmap@std@@Vvector@2@V?$basic_string@DU?$char_traits@D@std@@V?$allocator@D@2@@2@_N_J_KNVallocator@2@Uadl_serializer@json_abi_v3_11_2@nlohmann@@V?$vector@EV?$allocator@E@std@@@2@@json_abi_v3_11_2@nlohmann@@V?$allocator@V?$basic_json@Vmap@std@@Vvector@2@V?$basic_string@DU?$char_traits@D@std@@V?$allocator@D@2@@2@_N_J_KNVallocator@2@Uadl_serializer@json_abi_v3_11_2@nlohmann@@V?$vector@EV?$allocator@E@std@@@2@@json_abi_v3_11_2@nlohmann@@@std@@@std@@$$V@?$basic_json@Vmap@std@@Vvector@2@V?$basic_string@DU?$char_traits@D@std@@V?$allocator@D@2@@2@_N_J_KNVallocator@2@Uadl_serializer@json_abi_v3_11_2@nlohmann@@V?$vector@EV?$allocator@E@std@@@2@@json_abi_v3_11_2@nlohmann@@CAPEAV01@XZ@@std@@YA_NAEBV?$unique_ptr@V?$vector@V?$basic_json@Vmap@std@@Vvector@2@V?$basic_string@DU?$char_traits@D@std@@V?$allocator@D@2@@2@_N_J_KNVallocator@2@Uadl_serializer@json_abi_v3_11_2@nlohmann@@V?$vector@EV?$allocator@E@std@@@2@@json_abi_v3_11_2@nlohmann@@V?$allocator@V?$basic_json@Vmap@std@@Vvector@2@V?$basic_string@DU?$char_traits@D@std@@V?$allocator@D@2@@2@_N_J_KNVallocator@2@Uadl_serializer@json_abi_v3_11_2@nlohmann@@V?$vector@EV?$allocator@E@std@@@2@@json_abi_v3_11_2@nlohmann@@@std@@@std@@V<lambda_1>@?1???$create@V?$vector@V?$basic_json@Vmap@std@@Vvector@2@V?$basic_string@DU?$char_traits@D@std@@V?$allocator@D@2@@2@_N_J_KNVallocator@2@Uadl_serializer@json_abi_v3_11_2@nlohmann@@V?$vector@EV?$allocator@E@std@@@2@@json_abi_v3_11_2@nlohmann@@V?$allocator@V?$basic_json@Vmap@std@@Vvector@2@V?$basic_string@DU?$char_traits@D@std@@V?$allocator@D@2@@2@_N_J_KNVallocator@2@Uadl_serializer@json_abi_v3_11_2@nlohmann@@V?$vector@EV?$allocator@E@std@@@2@@json_abi_v3_11_2@nlohmann@@@std@@@std@@$$V@?$basic_json@Vmap@std@@Vvector@2@V?$basic_string@DU?$char_traits@D@std@@V?$allocator@D@2@@2@_N_J_KNVallocator@2@Uadl_serializer@json_abi_v3_11_2@nlohmann@@V?$vector@EV?$allocator@E@std@@@2@@json_abi_v3_11_2@nlohmann@@CAPEAV12@XZ@@0@$$T@Z
	??$?8V?$vector@V?$basic_json@Vmap@std@@Vvector@2@V?$basic_string@DU?$char_traits@D@std@@V?$allocator@D@2@@2@_N_J_KNVallocator@2@Uadl_serializer@json_abi_v3_11_2@nlohmann@@V?$vector@EV?$allocator@E@std@@@2@@json_abi_v3_11_2@nlohmann@@V?$allocator@V?$basic_json@Vmap@std@@Vvector@2@V?$basic_string@DU?$char_traits@D@std@@V?$allocator@D@2@@2@_N_J_KNVallocator@2@Uadl_serializer@json_abi_v3_11_2@nlohmann@@V?$vector@EV?$allocator@E@std@@@2@@json_abi_v3_11_2@nlohmann@@@std@@@std@@V<lambda_1>@?1???$create@V?$vector@V?$basic_json@Vmap@std@@Vvector@2@V?$basic_string@DU?$char_traits@D@std@@V?$allocator@D@2@@2@_N_J_KNVallocator@2@Uadl_serializer@json_abi_v3_11_2@nlohmann@@V?$vector@EV?$allocator@E@std@@@2@@json_abi_v3_11_2@nlohmann@@V?$allocator@V?$basic_json@Vmap@std@@Vvector@2@V?$basic_string@DU?$char_traits@D@std@@V?$allocator@D@2@@2@_N_J_KNVallocator@2@Uadl_serializer@json_abi_v3_11_2@nlohmann@@V?$vector@EV?$allocator@E@std@@@2@@json_abi_v3_11_2@nlohmann@@@std@@@std@@AEBV12@@?$basic_json@Vmap@std@@Vvector@2@V?$basic_string@DU?$char_traits@D@std@@V?$allocator@D@2@@2@_N_J_KNVallocator@2@Uadl_serializer@json_abi_v3_11_2@nlohmann@@V?$vector@EV?$allocator@E@std@@@2@@json_abi_v3_11_2@nlohmann@@CAPEAV01@AEBV01@@Z@@std@@YA_NAEBV?$unique_ptr@V?$vector@V?$basic_json@Vmap@std@@Vvector@2@V?$basic_string@DU?$char_traits@D@std@@V?$allocator@D@2@@2@_N_J_KNVallocator@2@Uadl_serializer@json_abi_v3_11_2@nlohmann@@V?$vector@EV?$allocator@E@std@@@2@@json_abi_v3_11_2@nlohmann@@V?$allocator@V?$basic_json@Vmap@std@@Vvector@2@V?$basic_string@DU?$char_traits@D@std@@V?$allocator@D@2@@2@_N_J_KNVallocator@2@Uadl_serializer@json_abi_v3_11_2@nlohmann@@V?$vector@EV?$allocator@E@std@@@2@@json_abi_v3_11_2@nlohmann@@@std@@@std@@V<lambda_1>@?1???$create@V?$vector@V?$basic_json@Vmap@std@@Vvector@2@V?$basic_string@DU?$char_traits@D@std@@V?$allocator@D@2@@2@_N_J_KNVallocator@2@Uadl_serializer@json_abi_v3_11_2@nlohmann@@V?$vector@EV?$allocator@E@std@@@2@@json_abi_v3_11_2@nlohmann@@V?$allocator@V?$basic_json@Vmap@std@@Vvector@2@V?$basic_string@DU?$char_traits@D@std@@V?$allocator@D@2@@2@_N_J_KNVallocator@2@Uadl_serializer@json_abi_v3_11_2@nlohmann@@V?$vector@EV?$allocator@E@std@@@2@@json_abi_v3_11_2@nlohmann@@@std@@@std@@AEBV12@@?$basic_json@Vmap@std@@Vvector@2@V?$basic_string@DU?$char_traits@D@std@@V?$allocator@D@2@@2@_N_J_KNVallocator@2@Uadl_serializer@json_abi_v3_11_2@nlohmann@@V?$vector@EV?$allocator@E@std@@@2@@json_abi_v3_11_2@nlohmann@@CAPEAV12@AEBV12@@Z@@0@$$T@Z
	??$?8V?$vector@V?$basic_json@Vmap@std@@Vvector@2@V?$basic_string@DU?$char_traits@D@std@@V?$allocator@D@2@@2@_N_J_KNVallocator@2@Uadl_serializer@json_abi_v3_11_2@nlohmann@@V?$vector@EV?$allocator@E@std@@@2@@json_abi_v3_11_2@nlohmann@@V?$allocator@V?$basic_json@Vmap@std@@Vvector@2@V?$basic_string@DU?$char_traits@D@std@@V?$allocator@D@2@@2@_N_J_KNVallocator@2@Uadl_serializer@json_abi_v3_11_2@nlohmann@@V?$vector@EV?$allocator@E@std@@@2@@json_abi_v3_11_2@nlohmann@@@std@@@std@@V<lambda_1>@?1???$create@V?$vector@V?$basic_json@Vmap@std@@Vvector@2@V?$basic_string@DU?$char_traits@D@std@@V?$allocator@D@2@@2@_N_J_KNVallocator@2@Uadl_serializer@json_abi_v3_11_2@nlohmann@@V?$vector@EV?$allocator@E@std@@@2@@json_abi_v3_11_2@nlohmann@@V?$allocator@V?$basic_json@Vmap@std@@Vvector@2@V?$basic_string@DU?$char_traits@D@std@@V?$allocator@D@2@@2@_N_J_KNVallocator@2@Uadl_serializer@json_abi_v3_11_2@nlohmann@@V?$vector@EV?$allocator@E@std@@@2@@json_abi_v3_11_2@nlohmann@@@std@@@std@@PEBV?$json_ref@V?$basic_json@Vmap@std@@Vvector@2@V?$basic_string@DU?$char_traits@D@std@@V?$allocator@D@2@@2@_N_J_KNVallocator@2@Uadl_serializer@json_abi_v3_11_2@nlohmann@@V?$vector@EV?$allocator@E@std@@@2@@json_abi_v3_11_2@nlohmann@@@detail@json_abi_v3_11_2@nlohmann@@PEBV3456@@?$basic_json@Vmap@std@@Vvector@2@V?$basic_string@DU?$char_traits@D@std@@V?$allocator@D@2@@2@_N_J_KNVallocator@2@Uadl_serializer@json_abi_v3_11_2@nlohmann@@V?$vector@EV?$allocator@E@std@@@2@@json_abi_v3_11_2@nlohmann@@CAPEAV01@$$QEAPEBV?$json_ref@V?$basic_json@Vmap@std@@Vvector@2@V?$basic_string@DU?$char_traits@D@std@@V?$allocator@D@2@@2@_N_J_KNVallocator@2@Uadl_serializer@json_abi_v3_11_2@nlohmann@@V?$vector@EV?$allocator@E@std@@@2@@json_abi_v3_11_2@nlohmann@@@detail@45@0@Z@@std@@YA_NAEBV?$unique_ptr@V?$vector@V?$basic_json@Vmap@std@@Vvector@2@V?$basic_string@DU?$char_traits@D@std@@V?$allocator@D@2@@2@_N_J_KNVallocator@2@Uadl_serializer@json_abi_v3_11_2@nlohmann@@V?$vector@EV?$allocator@E@std@@@2@@json_abi_v3_11_2@nlohmann@@V?$allocator@V?$basic_json@Vmap@std@@Vvector@2@V?$basic_string@DU?$char_traits@D@std@@V?$allocator@D@2@@2@_N_J_KNVallocator@2@Uadl_serializer@json_abi_v3_11_2@nlohmann@@V?$vector@EV?$allocator@E@std@@@2@@json_abi_v3_11_2@nlohmann@@@std@@@std@@V<lambda_1>@?1???$create@V?$vector@V?$basic_json@Vmap@std@@Vvector@2@V?$basic_string@DU?$char_traits@D@std@@V?$allocator@D@2@@2@_N_J_KNVallocator@2@Uadl_serializer@json_abi_v3_11_2@nlohmann@@V?$vector@EV?$allocator@E@std@@@2@@json_abi_v3_11_2@nlohmann@@V?$allocator@V?$basic_json@Vmap@std@@Vvector@2@V?$basic_string@DU?$char_traits@D@std@@V?$allocator@D@2@@2@_N_J_KNVallocator@2@Uadl_serializer@json_abi_v3_11_2@nlohmann@@V?$vector@EV?$allocator@E@std@@@2@@json_abi_v3_11_2@nlohmann@@@std@@@std@@PEBV?$json_ref@V?$basic_json@Vmap@std@@Vvector@2@V?$basic_string@DU?$char_traits@D@std@@V?$allocator@D@2@@2@_N_J_KNVallocator@2@Uadl_serializer@json_abi_v3_11_2@nlohmann@@V?$vector@EV?$allocator@E@std@@@2@@json_abi_v3_11_2@nlohmann@@@detail@json_abi_v3_11_2@nlohmann@@PEBV3456@@?$basic_json@Vmap@std@@Vvector@2@V?$basic_string@DU?$char_traits@D@std@@V?$allocator@D@2@@2@_N_J_KNVallocator@2@Uadl_serializer@json_abi_v3_11_2@nlohmann@@V?$vector@EV?$allocator@E@std@@@2@@json_abi_v3_11_2@nlohmann@@CAPEAV12@$$QEAPEBV?$json_ref@V?$basic_json@Vmap@std@@Vvector@2@V?$basic_string@DU?$char_traits@D@std@@V?$allocator@D@2@@2@_N_J_KNVallocator@2@Uadl_serializer@json_abi_v3_11_2@nlohmann@@V?$vector@EV?$allocator@E@std@@@2@@json_abi_v3_11_2@nlohmann@@@detail@56@0@Z@@0@$$T@Z
	??$?9V?$iter_impl@$$CBV?$basic_json@Vmap@std@@Vvector@2@V?$basic_string@DU?$char_traits@D@std@@V?$allocator@D@2@@2@_N_J_KNVallocator@2@Uadl_serializer@json_abi_v3_11_2@nlohmann@@V?$vector@EV?$allocator@E@std@@@2@@json_abi_v3_11_2@nlohmann@@@detail@json_abi_v3_11_2@nlohmann@@$0A@@?$iter_impl@$$CBV?$basic_json@Vmap@std@@Vvector@2@V?$basic_string@DU?$char_traits@D@std@@V?$allocator@D@2@@2@_N_J_KNVallocator@2@Uadl_serializer@json_abi_v3_11_2@nlohmann@@V?$vector@EV?$allocator@E@std@@@2@@json_abi_v3_11_2@nlohmann@@@detail@json_abi_v3_11_2@nlohmann@@QEBA_NAEBV0123@@Z
	??$?9V?$iter_impl@V?$basic_json@Vmap@std@@Vvector@2@V?$basic_string@DU?$char_traits@D@std@@V?$allocator@D@2@@2@_N_J_KNVallocator@2@Uadl_serializer@json_abi_v3_11_2@nlohmann@@V?$vector@EV?$allocator@E@std@@@2@@json_abi_v3_11_2@nlohmann@@@detail@json_abi_v3_11_2@nlohmann@@$0A@@?$iter_impl@V?$basic_json@Vmap@std@@Vvector@2@V?$basic_string@DU?$char_traits@D@std@@V?$allocator@D@2@@2@_N_J_KNVallocator@2@Uadl_serializer@json_abi_v3_11_2@nlohmann@@V?$vector@EV?$allocator@E@std@@@2@@json_abi_v3_11_2@nlohmann@@@detail@json_abi_v3_11_2@nlohmann@@QEBA_NAEBV0123@@Z
	??$?A$$CBD@?$basic_json@Vmap@std@@Vvector@2@V?$basic_string@DU?$char_traits@D@std@@V?$allocator@D@2@@2@_N_J_KNVallocator@2@Uadl_serializer@json_abi_v3_11_2@nlohmann@@V?$vector@EV?$allocator@E@std@@@2@@json_abi_v3_11_2@nlohmann@@QEAAAEAV012@PEBD@Z
	??$?A$$CBD@?$basic_json@Vmap@std@@Vvector@2@V?$basic_string@DU?$char_traits@D@std@@V?$allocator@D@2@@2@_N_J_KNVallocator@2@Uadl_serializer@json_abi_v3_11_2@nlohmann@@V?$vector@EV?$allocator@E@std@@@2@@json_abi_v3_11_2@nlohmann@@QEBAAEBV012@PEBD@Z
	??$?CU?$output_adapter_protocol@D@detail@json_abi_v3_11_2@nlohmann@@$0A@@?$shared_ptr@U?$output_adapter_protocol@D@detail@json_abi_v3_11_2@nlohmann@@@std@@QEBAPEAU?$output_adapter_protocol@D@detail@json_abi_v3_11_2@nlohmann@@XZ
	??$?CVBlock@blockchain@midnight@@$0A@@?$shared_ptr@VBlock@blockchain@midnight@@@std@@QEBAPEAVBlock@blockchain@midnight@@XZ
	??$?CVLogger@midnight@@$0A@@?$shared_ptr@VLogger@midnight@@@std@@QEBAPEAVLogger@midnight@@XZ
	??$?CVNetworkClient@network@midnight@@$0A@@?$shared_ptr@VNetworkClient@network@midnight@@@std@@QEBAPEAVNetworkClient@network@midnight@@XZ
	??$?CVProofServerClient@zk@midnight@@$0A@@?$shared_ptr@VProofServerClient@zk@midnight@@@std@@QEBAPEAVProofServerClient@zk@midnight@@XZ
	??$?DV?$function@$$A6A?AW4SSLVerifierResponse@httplib@@PEAUssl_st@@@Z@std@@$0A@@?$shared_ptr@V?$function@$$A6A?AW4SSLVerifierResponse@httplib@@PEAUssl_st@@@Z@std@@@std@@QEBAAEAV?$function@$$A6A?AW4SSLVerifierResponse@httplib@@PEAUssl_st@@@Z@1@XZ
	??$?DVBlock@blockchain@midnight@@$0A@@?$shared_ptr@VBlock@blockchain@midnight@@@std@@QEBAAEAVBlock@blockchain@midnight@@XZ
	??$?GUsteady_clock@chrono@std@@V?$duration@_JU?$ratio@$00$0DLJKMKAA@@std@@@12@V312@@chrono@std@@YA?AV?$duration@_JU?$ratio@$00$0DLJKMKAA@@std@@@01@AEBV?$time_point@Usteady_clock@chrono@std@@V?$duration@_JU?$ratio@$00$0DLJKMKAA@@std@@@23@@01@0@Z
	??$?GUsteady_clock@chrono@std@@V?$duration@_JU?$ratio@$00$0DLJKMKAA@@std@@@12@_JU?$ratio@$00$00@2@@chrono@std@@YA?AV?$time_point@Usteady_clock@chrono@std@@V?$duration@_JU?$ratio@$00$0DLJKMKAA@@std@@@23@@01@AEBV201@AEBV?$duration@_JU?$ratio@$00$00@std@@@01@@Z
	??$?GUsteady_clock@chrono@std@@V?$duration@_JU?$ratio@$00$0DLJKMKAA@@std@@@12@_JU?$ratio@$00$0DOI@@2@@chrono@std@@YA?AV?$time_point@Usteady_clock@chrono@std@@V?$duration@_JU?$ratio@$00$0DLJKMKAA@@std@@@23@@01@AEBV201@AEBV?$duration@_JU?$ratio@$00$0DOI@@std@@@01@@Z
	??$?GUsteady_clock@chrono@std@@V?$duration@_JU?$ratio@$00$0DLJKMKAA@@std@@@12@_JU?$ratio@$00$0PECEA@@2@@chrono@std@@YA?AV?$time_point@Usteady_clock@chrono@std@@V?$duration@_JU?$ratio@$00$0DLJKMKAA@@std@@@23@@01@AEBV201@AEBV?$duration@_JU?$ratio@$00$0PECEA@@std@@@01@@Z
	??$?GUsystem_clock@chrono@std@@V?$duration@_JU?$ratio@$00$0JIJGIA@@std@@@12@V312@@chrono@std@@YA?AV?$duration@_JU?$ratio@$00$0JIJGIA@@std@@@01@AEBV?$time_point@Usystem_clock@chrono@std@@V?$duration@_JU?$ratio@$00$0JIJGIA@@std@@@23@@01@0@Z
	??$?G_JU?$ratio@$00$0DLJKMKAA@@std@@_JU01@@chrono@std@@YA?AV?$duration@_JU?$ratio@$00$0DLJKMKAA@@std@@@01@AEBV201@0@Z
	??$?G_JU?$ratio@$00$0DLJKMKAA@@std@@_JU?$ratio@$00$00@1@@chrono@std@@YA?AV?$duration@_JU?$ratio@$00$0DLJKMKAA@@std@@@01@AEBV201@AEBV?$duration@_JU?$ratio@$00$00@std@@@01@@Z
	??$?G_JU?$ratio@$00$0DLJKMKAA@@std@@_JU?$ratio@$00$0DOI@@1@@chrono@std@@YA?AV?$duration@_JU?$ratio@$00$0DLJKMKAA@@std@@@01@AEBV201@AEBV?$duration@_JU?$ratio@$00$0DOI@@std@@@01@@Z
	??$?G_JU?$ratio@$00$0DLJKMKAA@@std@@_JU?$ratio@$00$0PECEA@@1@@chrono@std@@YA?AV?$duration@_JU?$ratio@$00$0DLJKMKAA@@std@@@01@AEBV201@AEBV?$duration@_JU?$ratio@$00$0PECEA@@std@@@01@@Z
	??$?G_JU?$ratio@$00$0DOI@@std@@_JU?$ratio@$00$00@1@@chrono@std@@YA?AV?$duration@_JU?$ratio@$00$0DOI@@std@@@01@AEBV201@AEBV?$duration@_JU?$ratio@$00$00@std@@@01@@Z
	??$?G_JU?$ratio@$00$0JIJGIA@@std@@_JU01@@chrono@std@@YA?AV?$duration@_JU?$ratio@$00$0JIJGIA@@std@@@01@AEBV201@0@Z
	??$?HDU?$char_traits@D@std@@V?$allocator@D@1@@std@@YA?AV?$basic_string@DU?$char_traits@D@std@@V?$allocator@D@2@@0@$$QEAV10@0@Z
	??$?HDU?$char_traits@D@std@@V?$allocator@D@1@@std@@YA?AV?$basic_string@DU?$char_traits@D@std@@V?$allocator@D@2@@0@$$QEAV10@AEBV10@@Z
	??$?HDU?$char_traits@D@std@@V?$allocator@D@1@@std@@YA?AV?$basic_string@DU?$char_traits@D@std@@V?$allocator@D@2@@0@$$QEAV10@QEBD@Z
	??$?HDU?$char_traits@D@std@@V?$allocator@D@1@@std@@YA?AV?$basic_string@DU?$char_traits@D@std@@V?$allocator@D@2@@0@AEBV10@0@Z
	??$?HDU?$char_traits@D@std@@V?$allocator@D@1@@std@@YA?AV?$basic_string@DU?$char_traits@D@std@@V?$allocator@D@2@@0@AEBV10@QEBD@Z
	??$?HDU?$char_traits@D@std@@V?$allocator@D@1@@std@@YA?AV?$basic_string@DU?$char_traits@D@std@@V?$allocator@D@2@@0@D$$QEAV10@@Z
	??$?HDU?$char_traits@D@std@@V?$allocator@D@1@@std@@YA?AV?$basic_string@DU?$char_traits@D@std@@V?$allocator@D@2@@0@DAEBV10@@Z
	??$?HDU?$char_traits@D@std@@V?$allocator@D@1@@std@@YA?AV?$basic_string@DU?$char_traits@D@std@@V?$allocator@D@2@@0@QEBD$$QEAV10@@Z
	??$?HDU?$char_traits@D@std@@V?$allocator@D@1@@std@@YA?AV?$basic_string@DU?$char_traits@D@std@@V?$allocator@D@2@@0@QEBDAEBV10@@Z
	??$?L_JU?$ratio@$00$0DOI@@std@@H@chrono@std@@YA?AV?$duration@_JU?$ratio@$00$0DOI@@std@@@01@AEBV201@AEBH@Z
	??$?RAEAY04$$CBDAEBV?$basic_string@DU?$char_traits@D@std@@V?$allocator@D@2@@std@@@?$less@X@std@@QEBA_NAEAY04$$CBDAEBV?$basic_string@DU?$char_traits@D@std@@V?$allocator@D@2@@1@@Z
	??$?RAEAY05$$CBDAEBV?$basic_string@DU?$char_traits@D@std@@V?$allocator@D@2@@std@@@?$less@X@std@@QEBA_NAEAY05$$CBDAEBV?$basic_string@DU?$char_traits@D@std@@V?$allocator@D@2@@1@@Z
	??$?RAEAY06$$CBDAEBV?$basic_string@DU?$char_traits@D@std@@V?$allocator@D@2@@std@@@?$less@X@std@@QEBA_NAEAY06$$CBDAEBV?$basic_string@DU?$char_traits@D@std@@V?$allocator@D@2@@1@@Z
	??$?RAEAY07$$CBDAEBV?$basic_string@DU?$char_traits@D@std@@V?$allocator@D@2@@std@@@?$less@X@std@@QEBA_NAEAY07$$CBDAEBV?$basic_string@DU?$char_traits@D@std@@V?$allocator@D@2@@1@@Z
	??$?RAEAY08$$CBDAEBV?$basic_string@DU?$char_traits@D@std@@V?$allocator@D@2@@std@@@?$less@X@std@@QEBA_NAEAY08$$CBDAEBV?$basic_string@DU?$char_traits@D@std@@V?$allocator@D@2@@1@@Z
	??$?RAEAY09$$CBDAEBV?$basic_string@DU?$char_traits@D@std@@V?$allocator@D@2@@std@@@?$less@X@std@@QEBA_NAEAY09$$CBDAEBV?$basic_string@DU?$char_traits@D@std@@V?$allocator@D@2@@1@@Z
	??$?RAEAY0BA@$$CBDAEBV?$basic_string@DU?$char_traits@D@std@@V?$allocator@D@2@@std@@@?$less@X@std@@QEBA_NAEAY0BA@$$CBDAEBV?$basic_string@DU?$char_traits@D@std@@V?$allocator@D@2@@1@@Z
	??$?RAEAY0BB@$$CBDAEBV?$basic_string@DU?$char_traits@D@std@@V?$allocator@D@2@@std@@@?$less@X@std@@QEBA_NAEAY0BB@$$CBDAEBV?$basic_string@DU?$char_traits@D@std@@V?$allocator@D@2@@1@@Z
	??$?RAEAY0BC@$$CBDAEBV?$basic_string@DU?$char_traits@D@std@@V?$allocator@D@2@@std@@@?$less@X@std@@QEBA_NAEAY0BC@$$CBDAEBV?$basic_string@DU?$char_traits@D@std@@V?$allocator@D@2@@1@@Z
	??$?RAEAY0BD@$$CBDAEBV?$basic_string@DU?$char_traits@D@std@@V?$allocator@D@2@@std@@@?$less@X@std@@QEBA_NAEAY0BD@$$CBDAEBV?$basic_string@DU?$char_traits@D@std@@V?$allocator@D@2@@1@@Z
	??$?RAEAY0BE@$$CBDAEBV?$basic_string@DU?$char_traits@D@std@@V?$allocator@D@2@@std@@@?$less@X@std@@QEBA_NAEAY0BE@$$CBDAEBV?$basic_string@DU?$char_traits@D@std@@V?$allocator@D@2@@1@@Z
	??$?RAEAY0BG@$$CBDAEBV?$basic_string@DU?$char_traits@D@std@@V?$allocator@D@2@@std@@@?$less@X@std@@QEBA_NAEAY0BG@$$CBDAEBV?$basic_string@DU?$char_traits@D@std@@V?$allocator@D@2@@1@@Z
	??$?RAEAY0BH@$$CBDAEBV?$basic_string@DU?$char_traits@D@std@@V?$allocator@D@2@@std@@@?$less@X@std@@QEBA_NAEAY0BH@$$CBDAEBV?$basic_string@DU?$char_traits@D@std@@V?$allocator@D@2@@1@@Z
	??$?RAEAY0L@$$CBDAEBV?$basic_string@DU?$char_traits@D@std@@V?$allocator@D@2@@std@@@?$less@X@std@@QEBA_NAEAY0L@$$CBDAEBV?$basic_string@DU?$char_traits@D@std@@V?$allocator@D@2@@1@@Z
	??$?RAEAY0M@$$CBDAEBV?$basic_string@DU?$char_traits@D@std@@V?$allocator@D@2@@std@@@?$less@X@std@@QEBA_NAEAY0M@$$CBDAEBV?$basic_string@DU?$char_traits@D@std@@V?$allocator@D@2@@1@@Z
	??$?RAEAY0N@$$CBDAEBV?$basic_string@DU?$char_traits@D@std@@V?$allocator@D@2@@std@@@?$less@X@std@@QEBA_NAEAY0N@$$CBDAEBV?$basic_string@DU?$char_traits@D@std@@V?$allocator@D@2@@1@@Z
	??$?RAEAY0O@$$CBDAEBV?$basic_string@DU?$char_traits@D@std@@V?$allocator@D@2@@std@@@?$less@X@std@@QEBA_NAEAY0O@$$CBDAEBV?$basic_string@DU?$char_traits@D@std@@V?$allocator@D@2@@1@@Z
	??$?RAEAY0P@$$CBDAEBV?$basic_string@DU?$char_traits@D@std@@V?$allocator@D@2@@std@@@?$less@X@std@@QEBA_NAEAY0P@$$CBDAEBV?$basic_string@DU?$char_traits@D@std@@V?$allocator@D@2@@1@@Z
	??$?RAEBDAEBD@?$equal_to@X@std@@QEBA_NAEBD0@Z
	??$?RAEBEAEBE@?$equal_to@X@std@@QEBA_NAEBE0@Z
	??$?RAEBU?$pair@$$CBV?$basic_string@DU?$char_traits@D@std@@V?$allocator@D@2@@std@@V?$basic_json@Vmap@std@@Vvector@2@V?$basic_string@DU?$char_traits@D@std@@V?$allocator@D@2@@2@_N_J_KNVallocator@2@Uadl_serializer@json_abi_v3_11_2@nlohmann@@V?$vector@EV?$allocator@E@std@@@2@@json_abi_v3_11_2@nlohmann@@@std@@AEBU01@@?$equal_to@X@std@@QEBA_NAEBU?$pair@$$CBV?$basic_string@DU?$char_traits@D@std@@V?$allocator@D@2@@std@@V?$basic_json@Vmap@std@@Vvector@2@V?$basic_string@DU?$char_traits@D@std@@V?$allocator@D@2@@2@_N_J_KNVallocator@2@Uadl_serializer@json_abi_v3_11_2@nlohmann@@V?$vector@EV?$allocator@E@std@@@2@@json_abi_v3_11_2@nlohmann@@@1@0@Z
	??$?RAEBV?$basic_json@Vmap@std@@Vvector@2@V?$basic_string@DU?$char_traits@D@std@@V?$allocator@D@2@@2@_N_J_KNVallocator@2@Uadl_serializer@json_abi_v3_11_2@nlohmann@@V?$vector@EV?$allocator@E@std@@@2@@json_abi_v3_11_2@nlohmann@@AEBV012@@?$equal_to@X@std@@QEBA_NAEBV?$basic_json@Vmap@std@@Vvector@2@V?$basic_string@DU?$char_traits@D@std@@V?$allocator@D@2@@2@_N_J_KNVallocator@2@Uadl_serializer@json_abi_v3_11_2@nlohmann@@V?$vector@EV?$allocator@E@std@@@2@@json_abi_v3_11_2@nlohmann@@0@Z
	??$?RAEBV?$basic_string@DU?$char_traits@D@std@@V?$allocator@D@2@@std@@AEAY04$$CBD@?$less@X@std@@QEBA_NAEBV?$basic_string@DU?$char_traits@D@std@@V?$allocator@D@2@@1@AEAY04$$CBD@Z
	??$?RAEBV?$basic_string@DU?$char_traits@D@std@@V?$allocator@D@2@@std@@AEAY05$$CBD@?$less@X@std@@QEBA_NAEBV?$basic_string@DU?$char_traits@D@std@@V?$allocator@D@2@@1@AEAY05$$CBD@Z
	??$?RAEBV?$basic_string@DU?$char_traits@D@std@@V?$allocator@D@2@@std@@AEAY06$$CBD@?$less@X@std@@QEBA_NAEBV?$basic_string@DU?$char_traits@D@std@@V?$allocator@D@2@@1@AEAY06$$CBD@Z
	??$?RAEBV?$basic_string@DU?$char_traits@D@std@@V?$allocator@D@2@@std@@AEAY07$$CBD@?$less@X@std@@QEBA_NAEBV?$basic_string@DU?$char_traits@D@std@@V?$allocator@D@2@@1@AEAY07$$CBD@Z
	??$?RAEBV?$basic_string@DU?$char_traits@D@std@@V?$allocator@D@2@@std@@AEAY08$$CBD@?$less@X@std@@QEBA_NAEBV?$basic_string@DU?$char_traits@D@std@@V?$allocator@D@2@@1@AEAY08$$CBD@Z
	??$?RAEBV?$basic_string@DU?$char_traits@D@std@@V?$allocator@D@2@@std@@AEAY09$$CBD@?$less@X@std@@QEBA_NAEBV?$basic_string@DU?$char_traits@D@std@@V?$allocator@D@2@@1@AEAY09$$CBD@Z
	??$?RAEBV?$basic_string@DU?$char_traits@D@std@@V?$allocator@D@2@@std@@AEAY0BA@$$CBD@?$less@X@std@@QEBA_NAEBV?$basic_string@DU?$char_traits@D@std@@V?$allocator@D@2@@1@AEAY0BA@$$CBD@Z
	??$?RAEBV?$basic_string@DU?$char_traits@D@std@@V?$allocator@D@2@@std@@AEAY0BB@$$CBD@?$less@X@std@@QEBA_NAEBV?$basic_string@DU?$char_traits@D@std@@V?$allocator@D@2@@1@AEAY0BB@$$CBD@Z
	??$?RAEBV?$basic_string@DU?$char_traits@D@std@@V?$allocator@D@2@@std@@AEAY0BC@$$CBD@?$less@X@std@@QEBA_NAEBV?$basic_string@DU?$char_traits@D@std@@V?$allocator@D@2@@1@AEAY0BC@$$CBD@Z
	??$?RAEBV?$basic_string@DU?$char_traits@D@std@@V?$allocator@D@2@@std@@AEAY0BD@$$CBD@?$less@X@std@@QEBA_NAEBV?$basic_string@DU?$char_traits@D@std@@V?$allocator@D@2@@1@AEAY0BD@$$CBD@Z
	??$?RAEBV?$basic_string@DU?$char_traits@D@std@@V?$allocator@D@2@@std@@AEAY0BE@$$CBD@?$less@X@std@@QEBA_NAEBV?$basic_string@DU?$char_traits@D@std@@V?$allocator@D@2@@1@AEAY0BE@$$CBD@Z
	??$?RAEBV?$basic_string@DU?$char_traits@D@std@@V?$allocator@D@2@@std@@AEAY0BG@$$CBD@?$less@X@std@@QEBA_NAEBV?$basic_string@DU?$char_traits@D@std@@V?$allocator@D@2@@1@AEAY0BG@$$CBD@Z
	??$?RAEBV?$basic_string@DU?$char_traits@D@std@@V?$allocator@D@2@@std@@AEAY0BH@$$CBD@?$less@X@std@@QEBA_NAEBV?$basic_string@DU?$char_traits@D@std@@V?$allocator@D@2@@1@AEAY0BH@$$CBD@Z
	??$?RAEBV?$basic_string@DU?$char_traits@D@std@@V?$allocator@D@2@@std@@AEAY0L@$$CBD@?$less@X@std@@QEBA_NAEBV?$basic_string@DU?$char_traits@D@std@@V?$allocator@D@2@@1@AEAY0L@$$CBD@Z
	??$?RAEBV?$basic_string@DU?$char_traits@D@std@@V?$allocator@D@2@@std@@AEAY0M@$$CBD@?$less@X@std@@QEBA_NAEBV?$basic_string@DU?$char_traits@D@std@@V?$allocator@D@2@@1@AEAY0M@$$CBD@Z
	??$?RAEBV?$basic_string@DU?$char_traits@D@std@@V?$allocator@D@2@@std@@AEAY0N@$$CBD@?$less@X@std@@QEBA_NAEBV?$basic_string@DU?$char_traits@D@std@@V?$allocator@D@2@@1@AEAY0N@$$CBD@Z
	??$?RAEBV?$basic_string@DU?$char_traits@D@std@@V?$allocator@D@2@@std@@AEAY0O@$$CBD@?$less@X@std@@QEBA_NAEBV?$basic_string@DU?$char_traits@D@std@@V?$allocator@D@2@@1@AEAY0O@$$CBD@Z
	??$?RAEBV?$basic_string@DU?$char_traits@D@std@@V?$allocator@D@2@@std@@AEAY0P@$$CBD@?$less@X@std@@QEBA_NAEBV?$basic_string@DU?$char_traits@D@std@@V?$allocator@D@2@@1@AEAY0P@$$CBD@Z
	??$?RAEBV?$basic_string@DU?$char_traits@D@std@@V?$allocator@D@2@@std@@AEBV01@@?$less@X@std@@QEBA_NAEBV?$basic_string@DU?$char_traits@D@std@@V?$allocator@D@2@@1@0@Z
	??$?RV?$basic_json@Vmap@std@@Vvector@2@V?$basic_string@DU?$char_traits@D@std@@V?$allocator@D@2@@2@_N_J_KNVallocator@2@Uadl_serializer@json_abi_v3_11_2@nlohmann@@V?$vector@EV?$allocator@E@std@@@2@@json_abi_v3_11_2@nlohmann@@AEAH@from_json_fn@detail@json_abi_v3_11_2@nlohmann@@QEBAXAEBV?$basic_json@Vmap@std@@Vvector@2@V?$basic_string@DU?$char_traits@D@std@@V?$allocator@D@2@@2@_N_J_KNVallocator@2@Uadl_serializer@json_abi_v3_11_2@nlohmann@@V?$vector@EV?$allocator@E@std@@@2@@23@AEAH@Z
	??$?RV?$basic_json@Vmap@std@@Vvector@2@V?$basic_string@DU?$char_traits@D@std@@V?$allocator@D@2@@2@_N_J_KNVallocator@2@Uadl_serializer@json_abi_v3_11_2@nlohmann@@V?$vector@EV?$allocator@E@std@@@2@@json_abi_v3_11_2@nlohmann@@AEAI@from_json_fn@detail@json_abi_v3_11_2@nlohmann@@QEBAXAEBV?$basic_json@Vmap@std@@Vvector@2@V?$basic_string@DU?$char_traits@D@std@@V?$allocator@D@2@@2@_N_J_KNVallocator@2@Uadl_serializer@json_abi_v3_11_2@nlohmann@@V?$vector@EV?$allocator@E@std@@@2@@23@AEAI@Z
	??$?RV?$basic_json@Vmap@std@@Vvector@2@V?$basic_string@DU?$char_traits@D@std@@V?$allocator@D@2@@2@_N_J_KNVallocator@2@Uadl_serializer@json_abi_v3_11_2@nlohmann@@V?$vector@EV?$allocator@E@std@@@2@@json_abi_v3_11_2@nlohmann@@AEAK@from_json_fn@detail@json_abi_v3_11_2@nlohmann@@QEBAXAEBV?$basic_json@Vmap@std@@Vvector@2@V?$basic_string@DU?$char_traits@D@std@@V?$allocator@D@2@@2@_N_J_KNVallocator@2@Uadl_serializer@json_abi_v3_11_2@nlohmann@@V?$vector@EV?$allocator@E@std@@@2@@23@AEAK@Z
	??$?RV?$basic_json@Vmap@std@@Vvector@2@V?$basic_string@DU?$char_traits@D@std@@V?$allocator@D@2@@2@_N_J_KNVallocator@2@Uadl_serializer@json_abi_v3_11_2@nlohmann@@V?$vector@EV?$allocator@E@std@@@2@@json_abi_v3_11_2@nlohmann@@AEAN@from_json_fn@detail@json_abi_v3_11_2@nlohmann@@QEBAXAEBV?$basic_json@Vmap@std@@Vvector@2@V?$basic_string@DU?$char_traits@D@std@@V?$allocator@D@2@@2@_N_J_KNVallocator@2@Uadl_serializer@json_abi_v3_11_2@nlohmann@@V?$vector@EV?$allocator@E@std@@@2@@23@AEAN@Z
	??$?RV?$basic_json@Vmap@std@@Vvector@2@V?$basic_string@DU?$char_traits@D@std@@V?$allocator@D@2@@2@_N_J_KNVallocator@2@Uadl_serializer@json_abi_v3_11_2@nlohmann@@V?$vector@EV?$allocator@E@std@@@2@@json_abi_v3_11_2@nlohmann@@AEAN@to_json_fn@detail@json_abi_v3_11_2@nlohmann@@QEBAXAEAV?$basic_json@Vmap@std@@Vvector@2@V?$basic_string@DU?$char_traits@D@std@@V?$allocator@D@2@@2@_N_J_KNVallocator@2@Uadl_serializer@json_abi_v3_11_2@nlohmann@@V?$vector@EV?$allocator@E@std@@@2@@23@AEAN@Z
	??$?RV?$basic_json@Vmap@std@@Vvector@2@V?$basic_string@DU?$char_traits@D@std@@V?$allocator@D@2@@2@_N_J_KNVallocator@2@Uadl_serializer@json_abi_v3_11_2@nlohmann@@V?$vector@EV?$allocator@E@std@@@2@@json_abi_v3_11_2@nlohmann@@AEAV?$basic_string@DU?$char_traits@D@std@@V?$allocator@D@2@@std@@@from_json_fn@detail@json_abi_v3_11_2@nlohmann@@QEBAXAEBV?$basic_json@Vmap@std@@Vvector@2@V?$basic_string@DU?$char_traits@D@std@@V?$allocator@D@2@@2@_N_J_KNVallocator@2@Uadl_serializer@json_abi_v3_11_2@nlohmann@@V?$vector@EV?$allocator@E@std@@@2@@23@AEAV?$basic_string@DU?$char_traits@D@std@@V?$allocator@D@2@@std@@@Z
	??$?RV?$basic_json@Vmap@std@@Vvector@2@V?$basic_string@DU?$char_traits@D@std@@V?$allocator@D@2@@2@_N_J_KNVallocator@2@Uadl_serializer@json_abi_v3_11_2@nlohmann@@V?$vector@EV?$allocator@E@std@@@2@@json_abi_v3_11_2@nlohmann@@AEAV?$basic_string@DU?$char_traits@D@std@@V?$allocator@D@2@@std@@@to_json_fn@detail@json_abi_v3_11_2@nlohmann@@QEBAXAEAV?$basic_json@Vmap@std@@Vvector@2@V?$basic_string@DU?$char_traits@D@std@@V?$allocator@D@2@@2@_N_J_KNVallocator@2@Uadl_serializer@json_abi_v3_11_2@nlohmann@@V?$vector@EV?$allocator@E@std@@@2@@23@AEAV?$basic_string@DU?$char_traits@D@std@@V?$allocator@D@2@@std@@@Z
	??$?RV?$basic_json@Vmap@std@@Vvector@2@V?$basic_string@DU?$char_traits@D@std@@V?$allocator@D@2@@2@_N_J_KNVallocator@2@Uadl_serializer@json_abi_v3_11_2@nlohmann@@V?$vector@EV?$allocator@E@std@@@2@@json_abi_v3_11_2@nlohmann@@AEAY02$$CBD@to_json_fn@detail@json_abi_v3_11_2@nlohmann@@QEBAXAEAV?$basic_json@Vmap@std@@Vvector@2@V?$basic_string@DU?$char_traits@D@std@@V?$allocator@D@2@@2@_N_J_KNVallocator@2@Uadl_serializer@json_abi_v3_11_2@nlohmann@@V?$vector@EV?$allocator@E@std@@@2@@23@AEAY02$$CBD@Z
	??$?RV?$basic_json@Vmap@std@@Vvector@2@V?$basic_string@DU?$char_traits@D@std@@V?$allocator@D@2@@2@_N_J_KNVallocator@2@Uadl_serializer@json_abi_v3_11_2@nlohmann@@V?$vector@EV?$allocator@E@std@@@2@@json_abi_v3_11_2@nlohmann@@AEAY03$$CBD@to_json_fn@detail@json_abi_v3_11_2@nlohmann@@QEBAXAEAV?$basic_json@Vmap@std@@Vvector@2@V?$basic_string@DU?$char_traits@D@std@@V?$allocator@D@2@@2@_N_J_KNVallocator@2@Uadl_serializer@json_abi_v3_11_2@nlohmann@@V?$vector@EV?$allocator@E@std@@@2@@23@AEAY03$$CBD@Z
	??$?RV?$basic_json@Vmap@std@@Vvector@2@V?$basic_string@DU?$char_traits@D@std@@V?$allocator@D@2@@2@_N_J_KNVallocator@2@Uadl_serializer@json_abi_v3_11_2@nlohmann@@V?$vector@EV?$allocator@E@std@@@2@@json_abi_v3_11_2@nlohmann@@AEAY05$$CBD@to_json_fn@detail@json_abi_v3_11_2@nlohmann@@QEBAXAEAV?$basic_json@Vmap@std@@Vvector@2@V?$basic_string@DU?$char_traits@D@std@@V?$allocator@D@2@@2@_N_J_KNVallocator@2@Uadl_serializer@json_abi_v3_11_2@nlohmann@@V?$vector@EV?$allocator@E@std@@@2@@23@AEAY05$$CBD@Z
	??$?RV?$basic_json@Vmap@std@@Vvector@2@V?$basic_string@DU?$char_traits@D@std@@V?$allocator@D@2@@2@_N_J_KNVallocator@2@Uadl_serializer@json_abi_v3_11_2@nlohmann@@V?$vector@EV?$allocator@E@std@@@2@@json_abi_v3_11_2@nlohmann@@AEAY06$$CBD@to_json_fn@detail@json_abi_v3_11_2@nlohmann@@QEBAXAEAV?$basic_json@Vmap@std@@Vvector@2@V?$basic_string@DU?$char_traits@D@std@@V?$allocator@D@2@@2@_N_J_KNVallocator@2@Uadl_serializer@json_abi_v3_11_2@nlohmann@@V?$vector@EV?$allocator@E@std@@@2@@23@AEAY06$$CBD@Z
	??$?RV?$basic_json@Vmap@std@@Vvector@2@V?$basic_string@DU?$char_traits@D@std@@V?$allocator@D@2@@2@_N_J_KNVallocator@2@Uadl_serializer@json_abi_v3_11_2@nlohmann@@V?$vector@EV?$allocator@E@std@@@2@@json_abi_v3_11_2@nlohmann@@AEAY07$$CBD@to_json_fn@detail@json_abi_v3_11_2@nlohmann@@QEBAXAEAV?$basic_json@Vmap@std@@Vvector@2@V?$basic_string@DU?$char_traits@D@std@@V?$allocator@D@2@@2@_N_J_KNVallocator@2@Uadl_serializer@json_abi_v3_11_2@nlohmann@@V?$vector@EV?$allocator@E@std@@@2@@23@AEAY07$$CBD@Z
	??$?RV?$basic_json@Vmap@std@@Vvector@2@V?$basic_string@DU?$char_traits@D@std@@V?$allocator@D@2@@2@_N_J_KNVallocator@2@Uadl_serializer@json_abi_v3_11_2@nlohmann@@V?$vector@EV?$allocator@E@std@@@2@@json_abi_v3_11_2@nlohmann@@AEAY0BA@$$CBD@to_json_fn@detail@json_abi_v3_11_2@nlohmann@@QEBAXAEAV?$basic_json@Vmap@std@@Vvector@2@V?$basic_string@DU?$char_traits@D@std@@V?$allocator@D@2@@2@_N_J_KNVallocator@2@Uadl_serializer@json_abi_v3_11_2@nlohmann@@V?$vector@EV?$allocator@E@std@@@2@@23@AEAY0BA@$$CBD@Z
	??$?RV?$basic_json@Vmap@std@@Vvector@2@V?$basic_string@DU?$char_traits@D@std@@V?$allocator@D@2@@2@_N_J_KNVallocator@2@Uadl_serializer@json_abi_v3_11_2@nlohmann@@V?$vector@EV?$allocator@E@std@@@2@@json_abi_v3_11_2@nlohmann@@AEAY0BC@$$CBD@to_json_fn@detail@json_abi_v3_11_2@nlohmann@@QEBAXAEAV?$basic_json@Vmap@std@@Vvector@2@V?$basic_string@DU?$char_traits@D@std@@V?$allocator@D@2@@2@_N_J_KNVallocator@2@Uadl_serializer@json_abi_v3_11_2@nlohmann@@V?$vector@EV?$allocator@E@std@@@2@@23@AEAY0BC@$$CBD@Z
	??$?RV?$basic_json@Vmap@std@@Vvector@2@V?$basic_string@DU?$char_traits@D@std@@V?$allocator@D@2@@2@_N_J_KNVallocator@2@Uadl_serializer@json_abi_v3_11_2@nlohmann@@V?$vector@EV?$allocator@E@std@@@2@@json_abi_v3_11_2@nlohmann@@AEAY0BH@$$CBD@to_json_fn@detail@json_abi_v3_11_2@nlohmann@@QEBAXAEAV?$basic_json@Vmap@std@@Vvector@2@V?$basic_string@DU?$char_traits@D@std@@V?$allocator@D@2@@2@_N_J_KNVallocator@2@Uadl_serializer@json_abi_v3_11_2@nlohmann@@V?$vector@EV?$allocator@E@std@@@2@@23@AEAY0BH@$$CBD@Z
	??$?RV?$basic_json@Vmap@std@@Vvector@2@V?$basic_string@DU?$char_traits@D@std@@V?$allocator@D@2@@2@_N_J_KNVallocator@2@Uadl_serializer@json_abi_v3_11_2@nlohmann@@V?$vector@EV?$allocator@E@std@@@2@@json_abi_v3_11_2@nlohmann@@AEAY0BJ@$$CBD@to_json_fn@detail@json_abi_v3_11_2@nlohmann@@QEBAXAEAV?$basic_json@Vmap@std@@Vvector@2@V?$basic_string@DU?$char_traits@D@std@@V?$allocator@D@2@@2@_N_J_KNVallocator@2@Uadl_serializer@json_abi_v3_11_2@nlohmann@@V?$vector@EV?$allocator@E@std@@@2@@23@AEAY0BJ@$$CBD@Z
	??$?RV?$basic_json@Vmap@std@@Vvector@2@V?$basic_string@DU?$char_traits@D@std@@V?$allocator@D@2@@2@_N_J_KNVallocator@2@Uadl_serializer@json_abi_v3_11_2@nlohmann@@V?$vector@EV?$allocator@E@std@@@2@@json_abi_v3_11_2@nlohmann@@AEAY0M@$$CBD@to_json_fn@detail@json_abi_v3_11_2@nlohmann@@QEBAXAEAV?$basic_json@Vmap@std@@Vvector@2@V?$basic_string@DU?$char_traits@D@std@@V?$allocator@D@2@@2@_N_J_KNVallocator@2@Uadl_serializer@json_abi_v3_11_2@nlohmann@@V?$vector@EV?$allocator@E@std@@@2@@23@AEAY0M@$$CBD@Z
	??$?RV?$basic_json@Vmap@std@@Vvector@2@V?$basic_string@DU?$char_traits@D@std@@V?$allocator@D@2@@2@_N_J_KNVallocator@2@Uadl_serializer@json_abi_v3_11_2@nlohmann@@V?$vector@EV?$allocator@E@std@@@2@@json_abi_v3_11_2@nlohmann@@AEA_J@to_json_fn@detail@json_abi_v3_11_2@nlohmann@@QEBAXAEAV?$basic_json@Vmap@std@@Vvector@2@V?$basic_string@DU?$char_traits@D@std@@V?$allocator@D@2@@2@_N_J_KNVallocator@2@Uadl_serializer@json_abi_v3_11_2@nlohmann@@V?$vector@EV?$allocator@E@std@@@2@@23@AEA_J@Z
	??$?RV?$basic_json@Vmap@std@@Vvector@2@V?$basic_string@DU?$char_traits@D@std@@V?$allocator@D@2@@2@_N_J_KNVallocator@2@Uadl_serializer@json_abi_v3_11_2@nlohmann@@V?$vector@EV?$allocator@E@std@@@2@@json_abi_v3_11_2@nlohmann@@AEA_K@from_json_fn@detail@json_abi_v3_11_2@nlohmann@@QEBAXAEBV?$basic_json@Vmap@std@@Vvector@2@V?$basic_string@DU?$char_traits@D@std@@V?$allocator@D@2@@2@_N_J_KNVallocator@2@Uadl_serializer@json_abi_v3_11_2@nlohmann@@V?$vector@EV?$allocator@E@std@@@2@@23@AEA_K@Z
	??$?RV?$basic_json@Vmap@std@@Vvector@2@V?$basic_string@DU?$char_traits@D@std@@V?$allocator@D@2@@2@_N_J_KNVallocator@2@Uadl_serializer@json_abi_v3_11_2@nlohmann@@V?$vector@EV?$allocator@E@std@@@2@@json_abi_v3_11_2@nlohmann@@AEA_K@to_json_fn@detail@json_abi_v3_11_2@nlohmann@@QEBAXAEAV?$basic_json@Vmap@std@@Vvector@2@V?$basic_string@DU?$char_traits@D@std@@V?$allocator@D@2@@2@_N_J_KNVallocator@2@Uadl_serializer@json_abi_v3_11_2@nlohmann@@V?$vector@EV?$allocator@E@std@@@2@@23@AEA_K@Z
	??$?RV?$basic_json@Vmap@std@@Vvector@2@V?$basic_string@DU?$char_traits@D@std@@V?$allocator@D@2@@2@_N_J_KNVallocator@2@Uadl_serializer@json_abi_v3_11_2@nlohmann@@V?$vector@EV?$allocator@E@std@@@2@@json_abi_v3_11_2@nlohmann@@AEA_N@from_json_fn@detail@json_abi_v3_11_2@nlohmann@@QEBAXAEBV?$basic_json@Vmap@std@@Vvector@2@V?$basic_string@DU?$char_traits@D@std@@V?$allocator@D@2@@2@_N_J_KNVallocator@2@Uadl_serializer@json_abi_v3_11_2@nlohmann@@V?$vector@EV?$allocator@E@std@@@2@@23@AEA_N@Z
	??$?RV?$basic_json@Vmap@std@@Vvector@2@V?$basic_string@DU?$char_traits@D@std@@V?$allocator@D@2@@2@_N_J_KNVallocator@2@Uadl_serializer@json_abi_v3_11_2@nlohmann@@V?$vector@EV?$allocator@E@std@@@2@@json_abi_v3_11_2@nlohmann@@AEA_N@to_json_fn@detail@json_abi_v3_11_2@nlohmann@@QEBAXAEAV?$basic_json@Vmap@std@@Vvector@2@V?$basic_string@DU?$char_traits@D@std@@V?$allocator@D@2@@2@_N_J_KNVallocator@2@Uadl_serializer@json_abi_v3_11_2@nlohmann@@V?$vector@EV?$allocator@E@std@@@2@@23@AEA_N@Z
	??$?RV?$basic_json@Vmap@std@@Vvector@2@V?$basic_string@DU?$char_traits@D@std@@V?$allocator@D@2@@2@_N_J_KNVallocator@2@Uadl_serializer@json_abi_v3_11_2@nlohmann@@V?$vector@EV?$allocator@E@std@@@2@@json_abi_v3_11_2@nlohmann@@AEBI@to_json_fn@detail@json_abi_v3_11_2@nlohmann@@QEBAXAEAV?$basic_json@Vmap@std@@Vvector@2@V?$basic_string@DU?$char_traits@D@std@@V?$allocator@D@2@@2@_N_J_KNVallocator@2@Uadl_serializer@json_abi_v3_11_2@nlohmann@@V?$vector@EV?$allocator@E@std@@@2@@23@AEBI@Z
	??$?RV?$basic_json@Vmap@std@@Vvector@2@V?$basic_string@DU?$char_traits@D@std@@V?$allocator@D@2@@2@_N_J_KNVallocator@2@Uadl_serializer@json_abi_v3_11_2@nlohmann@@V?$vector@EV?$allocator@E@std@@@2@@json_abi_v3_11_2@nlohmann@@AEBN@to_json_fn@detail@json_abi_v3_11_2@nlohmann@@QEBAXAEAV?$basic_json@Vmap@std@@Vvector@2@V?$basic_string@DU?$char_traits@D@std@@V?$allocator@D@2@@2@_N_J_KNVallocator@2@Uadl_serializer@json_abi_v3_11_2@nlohmann@@V?$vector@EV?$allocator@E@std@@@2@@23@AEBN@Z
	??$?RV?$basic_json@Vmap@std@@Vvector@2@V?$basic_string@DU?$char_traits@D@std@@V?$allocator@D@2@@2@_N_J_KNVallocator@2@Uadl_serializer@json_abi_v3_11_2@nlohmann@@V?$vector@EV?$allocator@E@std@@@2@@json_abi_v3_11_2@nlohmann@@AEBV?$basic_string@DU?$char_traits@D@std@@V?$allocator@D@2@@std@@@to_json_fn@detail@json_abi_v3_11_2@nlohmann@@QEBAXAEAV?$basic_json@Vmap@std@@Vvector@2@V?$basic_string@DU?$char_traits@D@std@@V?$allocator@D@2@@2@_N_J_KNVallocator@2@Uadl_serializer@json_abi_v3_11_2@nlohmann@@V?$vector@EV?$allocator@E@std@@@2@@23@AEBV?$basic_string@DU?$char_traits@D@std@@V?$allocator@D@2@@std@@@Z
	??$?RV?$basic_json@Vmap@std@@Vvector@2@V?$basic_string@DU?$char_traits@D@std@@V?$allocator@D@2@@2@_N_J_KNVallocator@2@Uadl_serializer@json_abi_v3_11_2@nlohmann@@V?$vector@EV?$allocator@E@std@@@2@@json_abi_v3_11_2@nlohmann@@AEB_K@to_json_fn@detail@json_abi_v3_11_2@nlohmann@@QEBAXAEAV?$basic_json@Vmap@std@@Vvector@2@V?$basic_string@DU?$char_traits@D@std@@V?$allocator@D@2@@2@_N_J_KNVallocator@2@Uadl_serializer@json_abi_v3_11_2@nlohmann@@V?$vector@EV?$allocator@E@std@@@2@@23@AEB_K@Z
	??$?RV?$basic_json@Vmap@std@@Vvector@2@V?$basic_string@DU?$char_traits@D@std@@V?$allocator@D@2@@2@_N_J_KNVallocator@2@Uadl_serializer@json_abi_v3_11_2@nlohmann@@V?$vector@EV?$allocator@E@std@@@2@@json_abi_v3_11_2@nlohmann@@AEB_N@to_json_fn@detail@json_abi_v3_11_2@nlohmann@@QEBAXAEAV?$basic_json@Vmap@std@@Vvector@2@V?$basic_string@DU?$char_traits@D@std@@V?$allocator@D@2@@2@_N_J_KNVallocator@2@Uadl_serializer@json_abi_v3_11_2@nlohmann@@V?$vector@EV?$allocator@E@std@@@2@@23@AEB_N@Z
	??$?RV?$basic_json@Vmap@std@@Vvector@2@V?$basic_string@DU?$char_traits@D@std@@V?$allocator@D@2@@2@_N_J_KNVallocator@2@Uadl_serializer@json_abi_v3_11_2@nlohmann@@V?$vector@EV?$allocator@E@std@@@2@@json_abi_v3_11_2@nlohmann@@H@to_json_fn@detail@json_abi_v3_11_2@nlohmann@@QEBAXAEAV?$basic_json@Vmap@std@@Vvector@2@V?$basic_string@DU?$char_traits@D@std@@V?$allocator@D@2@@2@_N_J_KNVallocator@2@Uadl_serializer@json_abi_v3_11_2@nlohmann@@V?$vector@EV?$allocator@E@std@@@2@@23@$$QEAH@Z
	??$?RV?$basic_json@Vmap@std@@Vvector@2@V?$basic_string@DU?$char_traits@D@std@@V?$allocator@D@2@@2@_N_J_KNVallocator@2@Uadl_serializer@json_abi_v3_11_2@nlohmann@@V?$vector@EV?$allocator@E@std@@@2@@json_abi_v3_11_2@nlohmann@@I@to_json_fn@detail@json_abi_v3_11_2@nlohmann@@QEBAXAEAV?$basic_json@Vmap@std@@Vvector@2@V?$basic_string@DU?$char_traits@D@std@@V?$allocator@D@2@@2@_N_J_KNVallocator@2@Uadl_serializer@json_abi_v3_11_2@nlohmann@@V?$vector@EV?$allocator@E@std@@@2@@23@$$QEAI@Z
	??$?RV?$basic_json@Vmap@std@@Vvector@2@V?$basic_string@DU?$char_traits@D@std@@V?$allocator@D@2@@2@_N_J_KNVallocator@2@Uadl_serializer@json_abi_v3_11_2@nlohmann@@V?$vector@EV?$allocator@E@std@@@2@@json_abi_v3_11_2@nlohmann@@N@to_json_fn@detail@json_abi_v3_11_2@nlohmann@@QEBAXAEAV?$basic_json@Vmap@std@@Vvector@2@V?$basic_string@DU?$char_traits@D@std@@V?$allocator@D@2@@2@_N_J_KNVallocator@2@Uadl_serializer@json_abi_v3_11_2@nlohmann@@V?$vector@EV?$allocator@E@std@@@2@@23@$$QEAN@Z
	??$?RV?$basic_json@Vmap@std@@Vvector@2@V?$basic_string@DU?$char_traits@D@std@@V?$allocator@D@2@@2@_N_J_KNVallocator@2@Uadl_serializer@json_abi_v3_11_2@nlohmann@@V?$vector@EV?$allocator@E@std@@@2@@json_abi_v3_11_2@nlohmann@@V?$basic_string@DU?$char_traits@D@std@@V?$allocator@D@2@@std@@@to_json_fn@detail@json_abi_v3_11_2@nlohmann@@QEBAXAEAV?$basic_json@Vmap@std@@Vvector@2@V?$basic_string@DU?$char_traits@D@std@@V?$allocator@D@2@@2@_N_J_KNVallocator@2@Uadl_serializer@json_abi_v3_11_2@nlohmann@@V?$vector@EV?$allocator@E@std@@@2@@23@$$QEAV?$basic_string@DU?$char_traits@D@std@@V?$allocator@D@2@@std@@@Z
	??$?RV?$basic_json@Vmap@std@@Vvector@2@V?$basic_string@DU?$char_traits@D@std@@V?$allocator@D@2@@2@_N_J_KNVallocator@2@Uadl_serializer@json_abi_v3_11_2@nlohmann@@V?$vector@EV?$allocator@E@std@@@2@@json_abi_v3_11_2@nlohmann@@_K@to_json_fn@detail@json_abi_v3_11_2@nlohmann@@QEBAXAEAV?$basic_json@Vmap@std@@Vvector@2@V?$basic_string@DU?$char_traits@D@std@@V?$allocator@D@2@@2@_N_J_KNVallocator@2@Uadl_serializer@json_abi_v3_11_2@nlohmann@@V?$vector@EV?$allocator@E@std@@@2@@23@$$QEA_K@Z
	??$?RV?$basic_json@Vmap@std@@Vvector@2@V?$basic_string@DU?$char_traits@D@std@@V?$allocator@D@2@@2@_N_J_KNVallocator@2@Uadl_serializer@json_abi_v3_11_2@nlohmann@@V?$vector@EV?$allocator@E@std@@@2@@json_abi_v3_11_2@nlohmann@@_N@to_json_fn@detail@json_abi_v3_11_2@nlohmann@@QEBAXAEAV?$basic_json@Vmap@std@@Vvector@2@V?$basic_string@DU?$char_traits@D@std@@V?$allocator@D@2@@2@_N_J_KNVallocator@2@Uadl_serializer@json_abi_v3_11_2@nlohmann@@V?$vector@EV?$allocator@E@std@@@2@@23@$$QEA_N@Z
	??$?RV?$basic_string@DU?$char_traits@D@std@@V?$allocator@D@2@@std@@@?$_Uhash_compare@V?$basic_string@DU?$char_traits@D@std@@V?$allocator@D@2@@std@@U?$hash@V?$basic_string@DU?$char_traits@D@std@@V?$allocator@D@2@@std@@@2@U?$equal_to@V?$basic_string@DU?$char_traits@D@std@@V?$allocator@D@2@@std@@@2@@std@@QEBA_KAEBV?$basic_string@DU?$char_traits@D@std@@V?$allocator@D@2@@1@@Z
	??$?RV?$basic_string@DU?$char_traits@D@std@@V?$allocator@D@2@@std@@@?$_Uhash_compare@V?$basic_string@DU?$char_traits@D@std@@V?$allocator@D@2@@std@@Uhash@case_ignore@detail@httplib@@Uequal_to@456@@std@@QEBA_KAEBV?$basic_string@DU?$char_traits@D@std@@V?$allocator@D@2@@1@@Z
	??$?RV?$basic_string@DU?$char_traits@D@std@@V?$allocator@D@2@@std@@V01@@?$_Uhash_compare@V?$basic_string@DU?$char_traits@D@std@@V?$allocator@D@2@@std@@U?$hash@V?$basic_string@DU?$char_traits@D@std@@V?$allocator@D@2@@std@@@2@U?$equal_to@V?$basic_string@DU?$char_traits@D@std@@V?$allocator@D@2@@std@@@2@@std@@QEBA_NAEBV?$basic_string@DU?$char_traits@D@std@@V?$allocator@D@2@@1@0@Z
	??$?RV?$basic_string@DU?$char_traits@D@std@@V?$allocator@D@2@@std@@V01@@?$_Uhash_compare@V?$basic_string@DU?$char_traits@D@std@@V?$allocator@D@2@@std@@Uhash@case_ignore@detail@httplib@@Uequal_to@456@@std@@QEBA_NAEBV?$basic_string@DU?$char_traits@D@std@@V?$allocator@D@2@@1@0@Z
	??$?__MDU?$char_traits@D@std@@V?$allocator@D@1@@std@@YA?AUstrong_ordering@0@AEBV?$basic_string@DU?$char_traits@D@std@@V?$allocator@D@2@@0@0@Z
	??$?__MDU?$char_traits@D@std@@V?$allocator@D@1@@std@@YA?AUstrong_ordering@0@AEBV?$basic_string@DU?$char_traits@D@std@@V?$allocator@D@2@@0@QEBD@Z
	??$?__MUsteady_clock@chrono@std@@V?$duration@_JU?$ratio@$00$0DLJKMKAA@@std@@@12@V312@@chrono@std@@YA?A_PAEBV?$time_point@Usteady_clock@chrono@std@@V?$duration@_JU?$ratio@$00$0DLJKMKAA@@std@@@23@@01@0@Z
	??$?__MUsystem_clock@chrono@std@@V?$duration@_JU?$ratio@$00$0JIJGIA@@std@@@12@V312@@chrono@std@@YA?A_PAEBV?$time_point@Usystem_clock@chrono@std@@V?$duration@_JU?$ratio@$00$0JIJGIA@@std@@@23@@01@0@Z
	??$?__M_JU?$ratio@$00$00@std@@_JU01@@chrono@std@@YA?A_PAEBV?$duration@_JU?$ratio@$00$00@std@@@01@0@Z
	??$?__M_JU?$ratio@$00$0DLJKMKAA@@std@@_JU01@@chrono@std@@YA?A_PAEBV?$duration@_JU?$ratio@$00$0DLJKMKAA@@std@@@01@0@Z
	??$?__M_JU?$ratio@$00$0DLJKMKAA@@std@@_JU?$ratio@$00$0DOI@@1@@chrono@std@@YA?A_PAEBV?$duration@_JU?$ratio@$00$0DLJKMKAA@@std@@@01@AEBV?$duration@_JU?$ratio@$00$0DOI@@std@@@01@@Z
	??$?__M_JU?$ratio@$00$0DOI@@std@@_JU01@@chrono@std@@YA?A_PAEBV?$duration@_JU?$ratio@$00$0DOI@@std@@@01@0@Z
	??$?__M_JU?$ratio@$00$0DOI@@std@@_JU?$ratio@$00$0DLJKMKAA@@1@@chrono@std@@YA?A_PAEBV?$duration@_JU?$ratio@$00$0DOI@@std@@@01@AEBV?$duration@_JU?$ratio@$00$0DLJKMKAA@@std@@@01@@Z
	??$?__M_JU?$ratio@$00$0JIJGIA@@std@@_JU01@@chrono@std@@YA?A_PAEBV?$duration@_JU?$ratio@$00$0JIJGIA@@std@@@01@0@Z
	??$?__M_JU?$ratio@$00$0PECEA@@std@@_JU01@@chrono@std@@YA?A_PAEBV?$duration@_JU?$ratio@$00$0PECEA@@std@@@01@0@Z
	??$_Adl_verify_range@PEADPEAD@std@@YAXAEBQEAD0@Z
	??$_Adl_verify_range@PEAEPEAE@std@@YAXAEBQEAE0@Z
	??$_Adl_verify_range@PEAKPEAK@std@@YAXAEBQEAK0@Z
	??$_Adl_verify_range@PEAV?$_List_unchecked_const_iterator@V?$_List_val@U?$_List_simple_types@V?$basic_string@DU?$char_traits@D@std@@V?$allocator@D@2@@std@@@std@@@std@@U_Iterator_base0@2@@std@@PEAV12@@std@@YAXAEBQEAV?$_List_unchecked_const_iterator@V?$_List_val@U?$_List_simple_types@V?$basic_string@DU?$char_traits@D@std@@V?$allocator@D@2@@std@@@std@@@std@@U_Iterator_base0@2@@0@0@Z
	??$_Adl_verify_range@PEAV?$_List_unchecked_iterator@V?$_List_val@U?$_List_simple_types@U?$pair@$$CBV?$basic_string@DU?$char_traits@D@std@@V?$allocator@D@2@@std@@V12@@std@@@std@@@std@@@std@@PEAV12@@std@@YAXAEBQEAV?$_List_unchecked_iterator@V?$_List_val@U?$_List_simple_types@U?$pair@$$CBV?$basic_string@DU?$char_traits@D@std@@V?$allocator@D@2@@std@@V12@@std@@@std@@@std@@@0@0@Z
	??$_Adl_verify_range@PEAV?$_List_unchecked_iterator@V?$_List_val@U?$_List_simple_types@U?$pair@$$CBV?$basic_string@DU?$char_traits@D@std@@V?$allocator@D@2@@std@@V?$unique_ptr@Uany_storage@detail@httplib@@U?$default_delete@Uany_storage@detail@httplib@@@std@@@2@@std@@@std@@@std@@@std@@PEAV12@@std@@YAXAEBQEAV?$_List_unchecked_iterator@V?$_List_val@U?$_List_simple_types@U?$pair@$$CBV?$basic_string@DU?$char_traits@D@std@@V?$allocator@D@2@@std@@V?$unique_ptr@Uany_storage@detail@httplib@@U?$default_delete@Uany_storage@detail@httplib@@@std@@@2@@std@@@std@@@std@@@0@0@Z
	??$_Adl_verify_range@PEBDPEBD@std@@YAXAEBQEBD0@Z
	??$_Adl_verify_range@PEBEPEBE@std@@YAXAEBQEBE0@Z
	??$_Adl_verify_range@PEBV?$basic_json@Vmap@std@@Vvector@2@V?$basic_string@DU?$char_traits@D@std@@V?$allocator@D@2@@2@_N_J_KNVallocator@2@Uadl_serializer@json_abi_v3_11_2@nlohmann@@V?$vector@EV?$allocator@E@std@@@2@@json_abi_v3_11_2@nlohmann@@PEBV123@@std@@YAXAEBQEBV?$basic_json@Vmap@std@@Vvector@2@V?$basic_string@DU?$char_traits@D@std@@V?$allocator@D@2@@2@_N_J_KNVallocator@2@Uadl_serializer@json_abi_v3_11_2@nlohmann@@V?$vector@EV?$allocator@E@std@@@2@@json_abi_v3_11_2@nlohmann@@0@Z
	??$_Adl_verify_range@PEBV?$json_ref@V?$basic_json@Vmap@std@@Vvector@2@V?$basic_string@DU?$char_traits@D@std@@V?$allocator@D@2@@2@_N_J_KNVallocator@2@Uadl_serializer@json_abi_v3_11_2@nlohmann@@V?$vector@EV?$allocator@E@std@@@2@@json_abi_v3_11_2@nlohmann@@@detail@json_abi_v3_11_2@nlohmann@@PEBV1234@@std@@YAXAEBQEBV?$json_ref@V?$basic_json@Vmap@std@@Vvector@2@V?$basic_string@DU?$char_traits@D@std@@V?$allocator@D@2@@2@_N_J_KNVallocator@2@Uadl_serializer@json_abi_v3_11_2@nlohmann@@V?$vector@EV?$allocator@E@std@@@2@@json_abi_v3_11_2@nlohmann@@@detail@json_abi_v3_11_2@nlohmann@@0@Z
	??$_Adl_verify_range@V?$_Array_const_iterator@E$0CA@@std@@V12@@std@@YAXAEBV?$_Array_const_iterator@E$0CA@@0@0@Z
	??$_Adl_verify_range@V?$_Array_const_iterator@E$0EA@@std@@V12@@std@@YAXAEBV?$_Array_const_iterator@E$0EA@@0@0@Z
	??$_Adl_verify_range@V?$_Array_iterator@E$0EA@@std@@V12@@std@@YAXAEBV?$_Array_iterator@E$0EA@@0@0@Z
	??$_Adl_verify_range@V?$_String_const_iterator@V?$_String_val@U?$_Simple_types@D@std@@@std@@@std@@V12@@std@@YAXAEBV?$_String_const_iterator@V?$_String_val@U?$_Simple_types@D@std@@@std@@@0@0@Z
	??$_Adl_verify_range@V?$_String_iterator@V?$_String_val@U?$_Simple_types@D@std@@@std@@@std@@V12@@std@@YAXAEBV?$_String_iterator@V?$_String_val@U?$_Simple_types@D@std@@@std@@@0@0@Z
	??$_Adl_verify_range@V?$_Tree_unchecked_const_iterator@V?$_Tree_val@U?$_Tree_simple_types@U?$pair@$$CBV?$basic_string@DU?$char_traits@D@std@@V?$allocator@D@2@@std@@UContractState@zk@midnight@@@std@@@std@@@std@@U_Iterator_base0@2@@std@@V12@@std@@YAXAEBV?$_Tree_unchecked_const_iterator@V?$_Tree_val@U?$_Tree_simple_types@U?$pair@$$CBV?$basic_string@DU?$char_traits@D@std@@V?$allocator@D@2@@std@@UContractState@zk@midnight@@@std@@@std@@@std@@U_Iterator_base0@2@@0@0@Z
	??$_Adl_verify_range@V?$_Tree_unchecked_const_iterator@V?$_Tree_val@U?$_Tree_simple_types@U?$pair@$$CBV?$basic_string@DU?$char_traits@D@std@@V?$allocator@D@2@@std@@V?$basic_json@Vmap@std@@Vvector@2@V?$basic_string@DU?$char_traits@D@std@@V?$allocator@D@2@@2@_N_J_KNVallocator@2@Uadl_serializer@json_abi_v3_11_2@nlohmann@@V?$vector@EV?$allocator@E@std@@@2@@json_abi_v3_11_2@nlohmann@@@std@@@std@@@std@@U_Iterator_base0@2@@std@@V12@@std@@YAXAEBV?$_Tree_unchecked_const_iterator@V?$_Tree_val@U?$_Tree_simple_types@U?$pair@$$CBV?$basic_string@DU?$char_traits@D@std@@V?$allocator@D@2@@std@@V?$basic_json@Vmap@std@@Vvector@2@V?$basic_string@DU?$char_traits@D@std@@V?$allocator@D@2@@2@_N_J_KNVallocator@2@Uadl_serializer@json_abi_v3_11_2@nlohmann@@V?$vector@EV?$allocator@E@std@@@2@@json_abi_v3_11_2@nlohmann@@@std@@@std@@@std@@U_Iterator_base0@2@@0@0@Z
	??$_Adl_verify_range@V?$_Tree_unchecked_const_iterator@V?$_Tree_val@U?$_Tree_simple_types@U?$pair@$$CBV?$basic_string@DU?$char_traits@D@std@@V?$allocator@D@2@@std@@V?$function@$$A6AXAEBV?$basic_string@DU?$char_traits@D@std@@V?$allocator@D@2@@std@@@Z@2@@std@@@std@@@std@@U_Iterator_base0@2@@std@@V12@@std@@YAXAEBV?$_Tree_unchecked_const_iterator@V?$_Tree_val@U?$_Tree_simple_types@U?$pair@$$CBV?$basic_string@DU?$char_traits@D@std@@V?$allocator@D@2@@std@@V?$function@$$A6AXAEBV?$basic_string@DU?$char_traits@D@std@@V?$allocator@D@2@@std@@@Z@2@@std@@@std@@@std@@U_Iterator_base0@2@@0@0@Z
	??$_Adl_verify_range@V?$_Tree_unchecked_const_iterator@V?$_Tree_val@U?$_Tree_simple_types@V?$basic_string@DU?$char_traits@D@std@@V?$allocator@D@2@@std@@@std@@@std@@U_Iterator_base0@2@@std@@V12@@std@@YAXAEBV?$_Tree_unchecked_const_iterator@V?$_Tree_val@U?$_Tree_simple_types@V?$basic_string@DU?$char_traits@D@std@@V?$allocator@D@2@@std@@@std@@@std@@U_Iterator_base0@2@@0@0@Z
	??$_Adl_verify_range@V?$_Vb_iterator@U?$_Wrap_alloc@V?$allocator@I@std@@@std@@@std@@V12@@std@@YAXAEBV?$_Vb_iterator@U?$_Wrap_alloc@V?$allocator@I@std@@@std@@@0@0@Z
	??$_Adl_verify_range@V?$_Vector_const_iterator@V?$_Vector_val@U?$_Simple_types@UBlockEvent@zk@midnight@@@std@@@std@@@std@@V12@@std@@YAXAEBV?$_Vector_const_iterator@V?$_Vector_val@U?$_Simple_types@UBlockEvent@zk@midnight@@@std@@@std@@@0@0@Z
	??$_Adl_verify_range@V?$_Vector_const_iterator@V?$_Vector_val@U?$_Simple_types@UContractState@zk@midnight@@@std@@@std@@@std@@V12@@std@@YAXAEBV?$_Vector_const_iterator@V?$_Vector_val@U?$_Simple_types@UContractState@zk@midnight@@@std@@@std@@@0@0@Z
	??$_Adl_verify_range@V?$_Vector_const_iterator@V?$_Vector_val@U?$_Simple_types@UOutput@Transaction@blockchain@midnight@@@std@@@std@@@std@@V12@@std@@YAXAEBV?$_Vector_const_iterator@V?$_Vector_val@U?$_Simple_types@UOutput@Transaction@blockchain@midnight@@@std@@@std@@@0@0@Z
	??$_Adl_verify_range@V?$_Vector_iterator@V?$_Vector_val@U?$_Simple_types@E@std@@@std@@@std@@V12@@std@@YAXAEBV?$_Vector_iterator@V?$_Vector_val@U?$_Simple_types@E@std@@@std@@@0@0@Z
	??$_Adl_verify_range@V?$_Vector_iterator@V?$_Vector_val@U?$_Simple_types@V?$basic_json@Vmap@std@@Vvector@2@V?$basic_string@DU?$char_traits@D@std@@V?$allocator@D@2@@2@_N_J_KNVallocator@2@Uadl_serializer@json_abi_v3_11_2@nlohmann@@V?$vector@EV?$allocator@E@std@@@2@@json_abi_v3_11_2@nlohmann@@@std@@@std@@@std@@V12@@std@@YAXAEBV?$_Vector_iterator@V?$_Vector_val@U?$_Simple_types@V?$basic_json@Vmap@std@@Vvector@2@V?$basic_string@DU?$char_traits@D@std@@V?$allocator@D@2@@2@_N_J_KNVallocator@2@Uadl_serializer@json_abi_v3_11_2@nlohmann@@V?$vector@EV?$allocator@E@std@@@2@@json_abi_v3_11_2@nlohmann@@@std@@@std@@@0@0@Z
	??$_Adl_verify_range@V?$_Vector_iterator@V?$_Vector_val@U?$_Simple_types@V?$basic_string@DU?$char_traits@D@std@@V?$allocator@D@2@@std@@@std@@@std@@@std@@V12@@std@@YAXAEBV?$_Vector_iterator@V?$_Vector_val@U?$_Simple_types@V?$basic_string@DU?$char_traits@D@std@@V?$allocator@D@2@@std@@@std@@@std@@@0@0@Z
	??$_Adl_verify_range@V?$istreambuf_iterator@DU?$char_traits@D@std@@@std@@V12@@std@@YAXAEBV?$istreambuf_iterator@DU?$char_traits@D@std@@@0@0@Z
	??$_Alloc_proxy@V?$allocator@U_Container_proxy@std@@@std@@@_Container_base12@std@@QEAAX$$QEAV?$allocator@U_Container_proxy@std@@@1@@Z
	??$_Allocate@$0BA@U_Default_allocate_traits@std@@@std@@YAPEAX_K@Z
	??$_Allocate_at_least_helper@V?$allocator@D@std@@@std@@YAPEADAEAV?$allocator@D@0@AEA_K@Z
	??$_Allocate_at_least_helper@V?$allocator@E@std@@@std@@YAPEAEAEAV?$allocator@E@0@AEA_K@Z
	??$_Allocate_at_least_helper@V?$allocator@I@std@@@std@@YAPEAIAEAV?$allocator@I@0@AEA_K@Z
	??$_Allocate_at_least_helper@V?$allocator@PEAV?$basic_json@Vmap@std@@Vvector@2@V?$basic_string@DU?$char_traits@D@std@@V?$allocator@D@2@@2@_N_J_KNVallocator@2@Uadl_serializer@json_abi_v3_11_2@nlohmann@@V?$vector@EV?$allocator@E@std@@@2@@json_abi_v3_11_2@nlohmann@@@std@@@std@@YAPEAPEAV?$basic_json@Vmap@std@@Vvector@2@V?$basic_string@DU?$char_traits@D@std@@V?$allocator@D@2@@2@_N_J_KNVallocator@2@Uadl_serializer@json_abi_v3_11_2@nlohmann@@V?$vector@EV?$allocator@E@std@@@2@@json_abi_v3_11_2@nlohmann@@AEAV?$allocator@PEAV?$basic_json@Vmap@std@@Vvector@2@V?$basic_string@DU?$char_traits@D@std@@V?$allocator@D@2@@2@_N_J_KNVallocator@2@Uadl_serializer@json_abi_v3_11_2@nlohmann@@V?$vector@EV?$allocator@E@std@@@2@@json_abi_v3_11_2@nlohmann@@@0@AEA_K@Z
	??$_Allocate_at_least_helper@V?$allocator@U?$pair@_J_J@std@@@std@@@std@@YAPEAU?$pair@_J_J@0@AEAV?$allocator@U?$pair@_J_J@std@@@0@AEA_K@Z
	??$_Allocate_at_least_helper@V?$allocator@UAbiFunction@phase2@midnight@@@std@@@std@@YAPEAUAbiFunction@phase2@midnight@@AEAV?$allocator@UAbiFunction@phase2@midnight@@@0@AEA_K@Z
	??$_Allocate_at_least_helper@V?$allocator@UAbiParam@phase2@midnight@@@std@@@std@@YAPEAUAbiParam@phase2@midnight@@AEAV?$allocator@UAbiParam@phase2@midnight@@@0@AEA_K@Z
	??$_Allocate_at_least_helper@V?$allocator@UBlockEvent@zk@midnight@@@std@@@std@@YAPEAUBlockEvent@zk@midnight@@AEAV?$allocator@UBlockEvent@zk@midnight@@@0@AEA_K@Z
	??$_Allocate_at_least_helper@V?$allocator@UCertificate@Transaction@blockchain@midnight@@@std@@@std@@YAPEAUCertificate@Transaction@blockchain@midnight@@AEAV?$allocator@UCertificate@Transaction@blockchain@midnight@@@0@AEA_K@Z
	??$_Allocate_at_least_helper@V?$allocator@UContractState@zk@midnight@@@std@@@std@@YAPEAUContractState@zk@midnight@@AEAV?$allocator@UContractState@zk@midnight@@@0@AEA_K@Z
	??$_Allocate_at_least_helper@V?$allocator@UInput@Transaction@blockchain@midnight@@@std@@@std@@YAPEAUInput@Transaction@blockchain@midnight@@AEAV?$allocator@UInput@Transaction@blockchain@midnight@@@0@AEA_K@Z
	??$_Allocate_at_least_helper@V?$allocator@UOutput@Transaction@blockchain@midnight@@@std@@@std@@YAPEAUOutput@Transaction@blockchain@midnight@@AEAV?$allocator@UOutput@Transaction@blockchain@midnight@@@0@AEA_K@Z
	??$_Allocate_at_least_helper@V?$allocator@USubmissionResult@phase5@midnight@@@std@@@std@@YAPEAUSubmissionResult@phase5@midnight@@AEAV?$allocator@USubmissionResult@phase5@midnight@@@0@AEA_K@Z
	??$_Allocate_at_least_helper@V?$allocator@USyncResult@zk@midnight@@@std@@@std@@YAPEAUSyncResult@zk@midnight@@AEAV?$allocator@USyncResult@zk@midnight@@@0@AEA_K@Z
	??$_Allocate_at_least_helper@V?$allocator@UUTXO@blockchain@midnight@@@std@@@std@@YAPEAUUTXO@blockchain@midnight@@AEAV?$allocator@UUTXO@blockchain@midnight@@@0@AEA_K@Z
	??$_Allocate_at_least_helper@V?$allocator@UUtxo@phase3@midnight@@@std@@@std@@YAPEAUUtxo@phase3@midnight@@AEAV?$allocator@UUtxo@phase3@midnight@@@0@AEA_K@Z
	??$_Allocate_at_least_helper@V?$allocator@UUtxoInput@phase3@midnight@@@std@@@std@@YAPEAUUtxoInput@phase3@midnight@@AEAV?$allocator@UUtxoInput@phase3@midnight@@@0@AEA_K@Z
	??$_Allocate_at_least_helper@V?$allocator@UUtxoOutput@phase3@midnight@@@std@@@std@@YAPEAUUtxoOutput@phase3@midnight@@AEAV?$allocator@UUtxoOutput@phase3@midnight@@@0@AEA_K@Z
	??$_Allocate_at_least_helper@V?$allocator@U_Grp_t@?$_Tgt_state_t@PEBD@std@@@std@@@std@@YAPEAU_Grp_t@?$_Tgt_state_t@PEBD@0@AEAV?$allocator@U_Grp_t@?$_Tgt_state_t@PEBD@std@@@0@AEA_K@Z
	??$_Allocate_at_least_helper@V?$allocator@U_Grp_t@?$_Tgt_state_t@V?$_String_const_iterator@V?$_String_val@U?$_Simple_types@D@std@@@std@@@std@@@std@@@std@@@std@@YAPEAU_Grp_t@?$_Tgt_state_t@V?$_String_const_iterator@V?$_String_val@U?$_Simple_types@D@std@@@std@@@std@@@0@AEAV?$allocator@U_Grp_t@?$_Tgt_state_t@V?$_String_const_iterator@V?$_String_val@U?$_Simple_types@D@std@@@std@@@std@@@std@@@0@AEA_K@Z
	??$_Allocate_at_least_helper@V?$allocator@U_Loop_vals_v2_t@std@@@std@@@std@@YAPEAU_Loop_vals_v2_t@0@AEAV?$allocator@U_Loop_vals_v2_t@std@@@0@AEA_K@Z
	??$_Allocate_at_least_helper@V?$allocator@V?$_Tgt_state_t@PEBD@std@@@std@@@std@@YAPEAV?$_Tgt_state_t@PEBD@0@AEAV?$allocator@V?$_Tgt_state_t@PEBD@std@@@0@AEA_K@Z
	??$_Allocate_at_least_helper@V?$allocator@V?$_Tgt_state_t@V?$_String_const_iterator@V?$_String_val@U?$_Simple_types@D@std@@@std@@@std@@@std@@@std@@@std@@YAPEAV?$_Tgt_state_t@V?$_String_const_iterator@V?$_String_val@U?$_Simple_types@D@std@@@std@@@std@@@0@AEAV?$allocator@V?$_Tgt_state_t@V?$_String_const_iterator@V?$_String_val@U?$_Simple_types@D@std@@@std@@@std@@@std@@@0@AEA_K@Z
	??$_Allocate_at_least_helper@V?$allocator@V?$basic_json@Vmap@std@@Vvector@2@V?$basic_string@DU?$char_traits@D@std@@V?$allocator@D@2@@2@_N_J_KNVallocator@2@Uadl_serializer@json_abi_v3_11_2@nlohmann@@V?$vector@EV?$allocator@E@std@@@2@@json_abi_v3_11_2@nlohmann@@@std@@@std@@YAPEAV?$basic_json@Vmap@std@@Vvector@2@V?$basic_string@DU?$char_traits@D@std@@V?$allocator@D@2@@2@_N_J_KNVallocator@2@Uadl_serializer@json_abi_v3_11_2@nlohmann@@V?$vector@EV?$allocator@E@std@@@2@@json_abi_v3_11_2@nlohmann@@AEAV?$allocator@V?$basic_json@Vmap@std@@Vvector@2@V?$basic_string@DU?$char_traits@D@std@@V?$allocator@D@2@@2@_N_J_KNVallocator@2@Uadl_serializer@json_abi_v3_11_2@nlohmann@@V?$vector@EV?$allocator@E@std@@@2@@json_abi_v3_11_2@nlohmann@@@0@AEA_K@Z
	??$_Allocate_at_least_helper@V?$allocator@V?$basic_string@DU?$char_traits@D@std@@V?$allocator@D@2@@std@@@std@@@std@@YAPEAV?$basic_string@DU?$char_traits@D@std@@V?$allocator@D@2@@0@AEAV?$allocator@V?$basic_string@DU?$char_traits@D@std@@V?$allocator@D@2@@std@@@0@AEA_K@Z
	??$_Allocate_at_least_helper@V?$allocator@V?$shared_ptr@VBlock@blockchain@midnight@@@std@@@std@@@std@@YAPEAV?$shared_ptr@VBlock@blockchain@midnight@@@0@AEAV?$allocator@V?$shared_ptr@VBlock@blockchain@midnight@@@std@@@0@AEA_K@Z
	??$_Allocate_at_least_helper@V?$allocator@V?$sub_match@PEBD@std@@@std@@@std@@YAPEAV?$sub_match@PEBD@0@AEAV?$allocator@V?$sub_match@PEBD@std@@@0@AEA_K@Z
	??$_Allocate_at_least_helper@V?$allocator@V?$sub_match@V?$_String_const_iterator@V?$_String_val@U?$_Simple_types@D@std@@@std@@@std@@@std@@@std@@@std@@YAPEAV?$sub_match@V?$_String_const_iterator@V?$_String_val@U?$_Simple_types@D@std@@@std@@@std@@@0@AEAV?$allocator@V?$sub_match@V?$_String_const_iterator@V?$_String_val@U?$_Simple_types@D@std@@@std@@@std@@@std@@@0@AEA_K@Z
	??$_Allocate_at_least_helper@V?$allocator@V?$vector@EV?$allocator@E@std@@@std@@@std@@@std@@YAPEAV?$vector@EV?$allocator@E@std@@@0@AEAV?$allocator@V?$vector@EV?$allocator@E@std@@@std@@@0@AEA_K@Z
	??$_Allocate_at_least_helper@V?$allocator@_K@std@@@std@@YAPEA_KAEAV?$allocator@_K@0@AEA_K@Z
	??$_Allocate_at_least_helper@V?$allocator@_W@std@@@std@@YAPEA_WAEAV?$allocator@_W@0@AEA_K@Z
	??$_Allocate_for_capacity@$0A@@?$basic_string@DU?$char_traits@D@std@@V?$allocator@D@2@@std@@CAPEADAEAV?$allocator@D@1@AEA_K@Z
	??$_Allocate_for_capacity@$0A@@?$basic_string@_WU?$char_traits@_W@std@@V?$allocator@_W@2@@std@@CAPEA_WAEAV?$allocator@_W@1@AEA_K@Z
	??$_Allocate_manually_vector_aligned@U_Default_allocate_traits@std@@@std@@YAPEAX_K@Z
	??$_Allocators_equal@V?$allocator@D@std@@@std@@YA_NAEBV?$allocator@D@0@0@Z
	??$_Append@D@?$basic_string@DU?$char_traits@D@std@@V?$allocator@D@2@@std@@AEAAAEAV01@QEBD_K@Z
	??$_Append_range_unchecked@V?$_List_unchecked_const_iterator@V?$_List_val@U?$_List_simple_types@U?$pair@$$CBV?$basic_string@DU?$char_traits@D@std@@V?$allocator@D@2@@std@@V12@@std@@@std@@@std@@U_Iterator_base0@2@@std@@V12@@?$_List_node_insert_op2@V?$allocator@U?$_List_node@U?$pair@$$CBV?$basic_string@DU?$char_traits@D@std@@V?$allocator@D@2@@std@@V12@@std@@PEAX@std@@@std@@@std@@QEAAXV?$_List_unchecked_const_iterator@V?$_List_val@U?$_List_simple_types@U?$pair@$$CBV?$basic_string@DU?$char_traits@D@std@@V?$allocator@D@2@@std@@V12@@std@@@std@@@std@@U_Iterator_base0@2@@1@V21@@Z
	??$_Assign@D@?$basic_string@DU?$char_traits@D@std@@V?$allocator@D@2@@std@@AEAAAEAV01@QEBD_K@Z
	??$_Assign_cast@AEAU?$pair@V?$basic_string@DU?$char_traits@D@std@@V?$allocator@D@2@@std@@V12@@std@@V?$_List_unchecked_const_iterator@V?$_List_val@U?$_List_simple_types@U?$pair@$$CBV?$basic_string@DU?$char_traits@D@std@@V?$allocator@D@2@@std@@V12@@std@@@std@@@std@@U_Iterator_base0@2@@2@@?$list@U?$pair@$$CBV?$basic_string@DU?$char_traits@D@std@@V?$allocator@D@2@@std@@V12@@std@@V?$allocator@U?$pair@$$CBV?$basic_string@DU?$char_traits@D@std@@V?$allocator@D@2@@std@@V12@@std@@@2@@std@@AEAAXV?$_List_unchecked_const_iterator@V?$_List_val@U?$_List_simple_types@U?$pair@$$CBV?$basic_string@DU?$char_traits@D@std@@V?$allocator@D@2@@std@@V12@@std@@@std@@@std@@U_Iterator_base0@2@@1@V21@@Z
	??$_Assign_counted_range@PEAE@?$vector@EV?$allocator@E@std@@@std@@AEAAXPEAE_K@Z
	??$_Assign_counted_range@PEAI@?$vector@IV?$allocator@I@std@@@std@@AEAAXPEAI_K@Z
	??$_Assign_counted_range@PEAUAbiFunction@phase2@midnight@@@?$vector@UAbiFunction@phase2@midnight@@V?$allocator@UAbiFunction@phase2@midnight@@@std@@@std@@AEAAXPEAUAbiFunction@phase2@midnight@@_K@Z
	??$_Assign_counted_range@PEAUAbiParam@phase2@midnight@@@?$vector@UAbiParam@phase2@midnight@@V?$allocator@UAbiParam@phase2@midnight@@@std@@@std@@AEAAXPEAUAbiParam@phase2@midnight@@_K@Z
	??$_Assign_counted_range@PEAUContractState@zk@midnight@@@?$vector@UContractState@zk@midnight@@V?$allocator@UContractState@zk@midnight@@@std@@@std@@AEAAXPEAUContractState@zk@midnight@@_K@Z
	??$_Assign_counted_range@PEAUUtxo@phase3@midnight@@@?$vector@UUtxo@phase3@midnight@@V?$allocator@UUtxo@phase3@midnight@@@std@@@std@@AEAAXPEAUUtxo@phase3@midnight@@_K@Z
	??$_Assign_counted_range@PEAU_Grp_t@?$_Tgt_state_t@PEBD@std@@@?$vector@U_Grp_t@?$_Tgt_state_t@PEBD@std@@V?$allocator@U_Grp_t@?$_Tgt_state_t@PEBD@std@@@3@@std@@AEAAXPEAU_Grp_t@?$_Tgt_state_t@PEBD@1@_K@Z
	??$_Assign_counted_range@PEAU_Grp_t@?$_Tgt_state_t@V?$_String_const_iterator@V?$_String_val@U?$_Simple_types@D@std@@@std@@@std@@@std@@@?$vector@U_Grp_t@?$_Tgt_state_t@V?$_String_const_iterator@V?$_String_val@U?$_Simple_types@D@std@@@std@@@std@@@std@@V?$allocator@U_Grp_t@?$_Tgt_state_t@V?$_String_const_iterator@V?$_String_val@U?$_Simple_types@D@std@@@std@@@std@@@std@@@3@@std@@AEAAXPEAU_Grp_t@?$_Tgt_state_t@V?$_String_const_iterator@V?$_String_val@U?$_Simple_types@D@std@@@std@@@std@@@1@_K@Z
	??$_Assign_counted_range@PEAV?$basic_string@DU?$char_traits@D@std@@V?$allocator@D@2@@std@@@?$vector@V?$basic_string@DU?$char_traits@D@std@@V?$allocator@D@2@@std@@V?$allocator@V?$basic_string@DU?$char_traits@D@std@@V?$allocator@D@2@@std@@@2@@std@@AEAAXPEAV?$basic_string@DU?$char_traits@D@std@@V?$allocator@D@2@@1@_K@Z
	??$_Attach_at_end@U?$_List_simple_types@U?$pair@$$CBV?$basic_string@DU?$char_traits@D@std@@V?$allocator@D@2@@std@@V12@@std@@@std@@@?$_List_node_insert_op2@V?$allocator@U?$_List_node@U?$pair@$$CBV?$basic_string@DU?$char_traits@D@std@@V?$allocator@D@2@@std@@V12@@std@@PEAX@std@@@std@@@std@@QEAAXAEAV?$_List_val@U?$_List_simple_types@U?$pair@$$CBV?$basic_string@DU?$char_traits@D@std@@V?$allocator@D@2@@std@@V12@@std@@@std@@@1@@Z
	??$_Attach_before@U?$_List_simple_types@U?$pair@$$CBV?$basic_string@DU?$char_traits@D@std@@V?$allocator@D@2@@std@@V12@@std@@@std@@@?$_List_node_insert_op2@V?$allocator@U?$_List_node@U?$pair@$$CBV?$basic_string@DU?$char_traits@D@std@@V?$allocator@D@2@@std@@V12@@std@@PEAX@std@@@std@@@std@@QEAAPEAU?$_List_node@U?$pair@$$CBV?$basic_string@DU?$char_traits@D@std@@V?$allocator@D@2@@std@@V12@@std@@PEAX@1@AEAV?$_List_val@U?$_List_simple_types@U?$pair@$$CBV?$basic_string@DU?$char_traits@D@std@@V?$allocator@D@2@@std@@V12@@std@@@std@@@1@QEAU21@@Z
	??$_Buyheadnode@V?$allocator@U?$_Tree_node@U?$pair@$$CBV?$basic_string@DU?$char_traits@D@std@@V?$allocator@D@2@@std@@U?$pair@UZkProof@phase4@midnight@@_K@2@@std@@PEAX@std@@@std@@@?$_Tree_node@U?$pair@$$CBV?$basic_string@DU?$char_traits@D@std@@V?$allocator@D@2@@std@@U?$pair@UZkProof@phase4@midnight@@_K@2@@std@@PEAX@std@@SAPEAU01@AEAV?$allocator@U?$_Tree_node@U?$pair@$$CBV?$basic_string@DU?$char_traits@D@std@@V?$allocator@D@2@@std@@U?$pair@UZkProof@phase4@midnight@@_K@2@@std@@PEAX@std@@@1@@Z
	??$_Buyheadnode@V?$allocator@U?$_Tree_node@U?$pair@$$CBV?$basic_string@DU?$char_traits@D@std@@V?$allocator@D@2@@std@@UContractState@zk@midnight@@@std@@PEAX@std@@@std@@@?$_Tree_node@U?$pair@$$CBV?$basic_string@DU?$char_traits@D@std@@V?$allocator@D@2@@std@@UContractState@zk@midnight@@@std@@PEAX@std@@SAPEAU01@AEAV?$allocator@U?$_Tree_node@U?$pair@$$CBV?$basic_string@DU?$char_traits@D@std@@V?$allocator@D@2@@std@@UContractState@zk@midnight@@@std@@PEAX@std@@@1@@Z
	??$_Buyheadnode@V?$allocator@U?$_Tree_node@U?$pair@$$CBV?$basic_string@DU?$char_traits@D@std@@V?$allocator@D@2@@std@@UFormData@httplib@@@std@@PEAX@std@@@std@@@?$_Tree_node@U?$pair@$$CBV?$basic_string@DU?$char_traits@D@std@@V?$allocator@D@2@@std@@UFormData@httplib@@@std@@PEAX@std@@SAPEAU01@AEAV?$allocator@U?$_Tree_node@U?$pair@$$CBV?$basic_string@DU?$char_traits@D@std@@V?$allocator@D@2@@std@@UFormData@httplib@@@std@@PEAX@std@@@1@@Z
	??$_Buyheadnode@V?$allocator@U?$_Tree_node@U?$pair@$$CBV?$basic_string@DU?$char_traits@D@std@@V?$allocator@D@2@@std@@UFormField@httplib@@@std@@PEAX@std@@@std@@@?$_Tree_node@U?$pair@$$CBV?$basic_string@DU?$char_traits@D@std@@V?$allocator@D@2@@std@@UFormField@httplib@@@std@@PEAX@std@@SAPEAU01@AEAV?$allocator@U?$_Tree_node@U?$pair@$$CBV?$basic_string@DU?$char_traits@D@std@@V?$allocator@D@2@@std@@UFormField@httplib@@@std@@PEAX@std@@@1@@Z
	??$_Buyheadnode@V?$allocator@U?$_Tree_node@U?$pair@$$CBV?$basic_string@DU?$char_traits@D@std@@V?$allocator@D@2@@std@@USubmissionResult@phase5@midnight@@@std@@PEAX@std@@@std@@@?$_Tree_node@U?$pair@$$CBV?$basic_string@DU?$char_traits@D@std@@V?$allocator@D@2@@std@@USubmissionResult@phase5@midnight@@@std@@PEAX@std@@SAPEAU01@AEAV?$allocator@U?$_Tree_node@U?$pair@$$CBV?$basic_string@DU?$char_traits@D@std@@V?$allocator@D@2@@std@@USubmissionResult@phase5@midnight@@@std@@PEAX@std@@@1@@Z
	??$_Buyheadnode@V?$allocator@U?$_Tree_node@U?$pair@$$CBV?$basic_string@DU?$char_traits@D@std@@V?$allocator@D@2@@std@@UTransactionStatusUpdate@phase6@midnight@@@std@@PEAX@std@@@std@@@?$_Tree_node@U?$pair@$$CBV?$basic_string@DU?$char_traits@D@std@@V?$allocator@D@2@@std@@UTransactionStatusUpdate@phase6@midnight@@@std@@PEAX@std@@SAPEAU01@AEAV?$allocator@U?$_Tree_node@U?$pair@$$CBV?$basic_string@DU?$char_traits@D@std@@V?$allocator@D@2@@std@@UTransactionStatusUpdate@phase6@midnight@@@std@@PEAX@std@@@1@@Z
	??$_Buyheadnode@V?$allocator@U?$_Tree_node@U?$pair@$$CBV?$basic_string@DU?$char_traits@D@std@@V?$allocator@D@2@@std@@UWitnessOutput@zk@midnight@@@std@@PEAX@std@@@std@@@?$_Tree_node@U?$pair@$$CBV?$basic_string@DU?$char_traits@D@std@@V?$allocator@D@2@@std@@UWitnessOutput@zk@midnight@@@std@@PEAX@std@@SAPEAU01@AEAV?$allocator@U?$_Tree_node@U?$pair@$$CBV?$basic_string@DU?$char_traits@D@std@@V?$allocator@D@2@@std@@UWitnessOutput@zk@midnight@@@std@@PEAX@std@@@1@@Z
	??$_Buyheadnode@V?$allocator@U?$_Tree_node@U?$pair@$$CBV?$basic_string@DU?$char_traits@D@std@@V?$allocator@D@2@@std@@V12@@std@@PEAX@std@@@std@@@?$_Tree_node@U?$pair@$$CBV?$basic_string@DU?$char_traits@D@std@@V?$allocator@D@2@@std@@V12@@std@@PEAX@std@@SAPEAU01@AEAV?$allocator@U?$_Tree_node@U?$pair@$$CBV?$basic_string@DU?$char_traits@D@std@@V?$allocator@D@2@@std@@V12@@std@@PEAX@std@@@1@@Z
	??$_Buyheadnode@V?$allocator@U?$_Tree_node@U?$pair@$$CBV?$basic_string@DU?$char_traits@D@std@@V?$allocator@D@2@@std@@V?$basic_json@Vmap@std@@Vvector@2@V?$basic_string@DU?$char_traits@D@std@@V?$allocator@D@2@@2@_N_J_KNVallocator@2@Uadl_serializer@json_abi_v3_11_2@nlohmann@@V?$vector@EV?$allocator@E@std@@@2@@json_abi_v3_11_2@nlohmann@@@std@@PEAX@std@@@std@@@?$_Tree_node@U?$pair@$$CBV?$basic_string@DU?$char_traits@D@std@@V?$allocator@D@2@@std@@V?$basic_json@Vmap@std@@Vvector@2@V?$basic_string@DU?$char_traits@D@std@@V?$allocator@D@2@@2@_N_J_KNVallocator@2@Uadl_serializer@json_abi_v3_11_2@nlohmann@@V?$vector@EV?$allocator@E@std@@@2@@json_abi_v3_11_2@nlohmann@@@std@@PEAX@std@@SAPEAU01@AEAV?$allocator@U?$_Tree_node@U?$pair@$$CBV?$basic_string@DU?$char_traits@D@std@@V?$allocator@D@2@@std@@V?$basic_json@Vmap@std@@Vvector@2@V?$basic_string@DU?$char_traits@D@std@@V?$allocator@D@2@@2@_N_J_KNVallocator@2@Uadl_serializer@json_abi_v3_11_2@nlohmann@@V?$vector@EV?$allocator@E@std@@@2@@json_abi_v3_11_2@nlohmann@@@std@@PEAX@std@@@1@@Z
	??$_Buyheadnode@V?$allocator@U?$_Tree_node@U?$pair@$$CBV?$basic_string@DU?$char_traits@D@std@@V?$allocator@D@2@@std@@V?$map@V?$basic_string@DU?$char_traits@D@std@@V?$allocator@D@2@@std@@_KU?$less@V?$basic_string@DU?$char_traits@D@std@@V?$allocator@D@2@@std@@@2@V?$allocator@U?$pair@$$CBV?$basic_string@DU?$char_traits@D@std@@V?$allocator@D@2@@std@@_K@std@@@2@@2@@std@@PEAX@std@@@std@@@?$_Tree_node@U?$pair@$$CBV?$basic_string@DU?$char_traits@D@std@@V?$allocator@D@2@@std@@V?$map@V?$basic_string@DU?$char_traits@D@std@@V?$allocator@D@2@@std@@_KU?$less@V?$basic_string@DU?$char_traits@D@std@@V?$allocator@D@2@@std@@@2@V?$allocator@U?$pair@$$CBV?$basic_string@DU?$char_traits@D@std@@V?$allocator@D@2@@std@@_K@std@@@2@@2@@std@@PEAX@std@@SAPEAU01@AEAV?$allocator@U?$_Tree_node@U?$pair@$$CBV?$basic_string@DU?$char_traits@D@std@@V?$allocator@D@2@@std@@V?$map@V?$basic_string@DU?$char_traits@D@std@@V?$allocator@D@2@@std@@_KU?$less@V?$basic_string@DU?$char_traits@D@std@@V?$allocator@D@2@@std@@@2@V?$allocator@U?$pair@$$CBV?$basic_string@DU?$char_traits@D@std@@V?$allocator@D@2@@std@@_K@std@@@2@@2@@std@@PEAX@std@@@1@@Z
	??$_Buyheadnode@V?$allocator@U?$_Tree_node@U?$pair@$$CBV?$basic_string@DU?$char_traits@D@std@@V?$allocator@D@2@@std@@V?$vector@EV?$allocator@E@std@@@2@@std@@PEAX@std@@@std@@@?$_Tree_node@U?$pair@$$CBV?$basic_string@DU?$char_traits@D@std@@V?$allocator@D@2@@std@@V?$vector@EV?$allocator@E@std@@@2@@std@@PEAX@std@@SAPEAU01@AEAV?$allocator@U?$_Tree_node@U?$pair@$$CBV?$basic_string@DU?$char_traits@D@std@@V?$allocator@D@2@@std@@V?$vector@EV?$allocator@E@std@@@2@@std@@PEAX@std@@@1@@Z
	??$_Buyheadnode@V?$allocator@U?$_Tree_node@U?$pair@$$CBV?$basic_string@DU?$char_traits@D@std@@V?$allocator@D@2@@std@@V?$vector@UContractState@zk@midnight@@V?$allocator@UContractState@zk@midnight@@@std@@@2@@std@@PEAX@std@@@std@@@?$_Tree_node@U?$pair@$$CBV?$basic_string@DU?$char_traits@D@std@@V?$allocator@D@2@@std@@V?$vector@UContractState@zk@midnight@@V?$allocator@UContractState@zk@midnight@@@std@@@2@@std@@PEAX@std@@SAPEAU01@AEAV?$allocator@U?$_Tree_node@U?$pair@$$CBV?$basic_string@DU?$char_traits@D@std@@V?$allocator@D@2@@std@@V?$vector@UContractState@zk@midnight@@V?$allocator@UContractState@zk@midnight@@@std@@@2@@std@@PEAX@std@@@1@@Z
	??$_Buyheadnode@V?$allocator@U?$_Tree_node@U?$pair@$$CBV?$basic_string@DU?$char_traits@D@std@@V?$allocator@D@2@@std@@_K@std@@PEAX@std@@@std@@@?$_Tree_node@U?$pair@$$CBV?$basic_string@DU?$char_traits@D@std@@V?$allocator@D@2@@std@@_K@std@@PEAX@std@@SAPEAU01@AEAV?$allocator@U?$_Tree_node@U?$pair@$$CBV?$basic_string@DU?$char_traits@D@std@@V?$allocator@D@2@@std@@_K@std@@PEAX@std@@@1@@Z
	??$_Buyheadnode@V?$allocator@U?$_Tree_node@V?$basic_string@DU?$char_traits@D@std@@V?$allocator@D@2@@std@@PEAX@std@@@std@@@?$_Tree_node@V?$basic_string@DU?$char_traits@D@std@@V?$allocator@D@2@@std@@PEAX@std@@SAPEAU01@AEAV?$allocator@U?$_Tree_node@V?$basic_string@DU?$char_traits@D@std@@V?$allocator@D@2@@std@@PEAX@std@@@1@@Z
	??$_Buynode@AEAU?$pair@$$CBV?$basic_string@DU?$char_traits@D@std@@V?$allocator@D@2@@std@@UContractState@zk@midnight@@@std@@@?$_Tree@V?$_Tmap_traits@V?$basic_string@DU?$char_traits@D@std@@V?$allocator@D@2@@std@@UContractState@zk@midnight@@U?$less@V?$basic_string@DU?$char_traits@D@std@@V?$allocator@D@2@@std@@@2@V?$allocator@U?$pair@$$CBV?$basic_string@DU?$char_traits@D@std@@V?$allocator@D@2@@std@@UContractState@zk@midnight@@@std@@@2@$0A@@std@@@std@@IEAAPEAU?$_Tree_node@U?$pair@$$CBV?$basic_string@DU?$char_traits@D@std@@V?$allocator@D@2@@std@@UContractState@zk@midnight@@@std@@PEAX@1@AEAU?$pair@$$CBV?$basic_string@DU?$char_traits@D@std@@V?$allocator@D@2@@std@@UContractState@zk@midnight@@@1@@Z
	??$_Buynode@AEAU?$pair@$$CBV?$basic_string@DU?$char_traits@D@std@@V?$allocator@D@2@@std@@UFormData@httplib@@@std@@@?$_Tree@V?$_Tmap_traits@V?$basic_string@DU?$char_traits@D@std@@V?$allocator@D@2@@std@@UFormData@httplib@@U?$less@V?$basic_string@DU?$char_traits@D@std@@V?$allocator@D@2@@std@@@2@V?$allocator@U?$pair@$$CBV?$basic_string@DU?$char_traits@D@std@@V?$allocator@D@2@@std@@UFormData@httplib@@@std@@@2@$00@std@@@std@@IEAAPEAU?$_Tree_node@U?$pair@$$CBV?$basic_string@DU?$char_traits@D@std@@V?$allocator@D@2@@std@@UFormData@httplib@@@std@@PEAX@1@AEAU?$pair@$$CBV?$basic_string@DU?$char_traits@D@std@@V?$allocator@D@2@@std@@UFormData@httplib@@@1@@Z
	??$_Buynode@AEAU?$pair@$$CBV?$basic_string@DU?$char_traits@D@std@@V?$allocator@D@2@@std@@UFormField@httplib@@@std@@@?$_Tree@V?$_Tmap_traits@V?$basic_string@DU?$char_traits@D@std@@V?$allocator@D@2@@std@@UFormField@httplib@@U?$less@V?$basic_string@DU?$char_traits@D@std@@V?$allocator@D@2@@std@@@2@V?$allocator@U?$pair@$$CBV?$basic_string@DU?$char_traits@D@std@@V?$allocator@D@2@@std@@UFormField@httplib@@@std@@@2@$00@std@@@std@@IEAAPEAU?$_Tree_node@U?$pair@$$CBV?$basic_string@DU?$char_traits@D@std@@V?$allocator@D@2@@std@@UFormField@httplib@@@std@@PEAX@1@AEAU?$pair@$$CBV?$basic_string@DU?$char_traits@D@std@@V?$allocator@D@2@@std@@UFormField@httplib@@@1@@Z
	??$_Buynode@AEAU?$pair@$$CBV?$basic_string@DU?$char_traits@D@std@@V?$allocator@D@2@@std@@UWitnessOutput@zk@midnight@@@std@@@?$_Tree@V?$_Tmap_traits@V?$basic_string@DU?$char_traits@D@std@@V?$allocator@D@2@@std@@UWitnessOutput@zk@midnight@@U?$less@V?$basic_string@DU?$char_traits@D@std@@V?$allocator@D@2@@std@@@2@V?$allocator@U?$pair@$$CBV?$basic_string@DU?$char_traits@D@std@@V?$allocator@D@2@@std@@UWitnessOutput@zk@midnight@@@std@@@2@$0A@@std@@@std@@IEAAPEAU?$_Tree_node@U?$pair@$$CBV?$basic_string@DU?$char_traits@D@std@@V?$allocator@D@2@@std@@UWitnessOutput@zk@midnight@@@std@@PEAX@1@AEAU?$pair@$$CBV?$basic_string@DU?$char_traits@D@std@@V?$allocator@D@2@@std@@UWitnessOutput@zk@midnight@@@1@@Z
	??$_Buynode@AEAU?$pair@$$CBV?$basic_string@DU?$char_traits@D@std@@V?$allocator@D@2@@std@@V12@@std@@@?$_Tree@V?$_Tmap_traits@V?$basic_string@DU?$char_traits@D@std@@V?$allocator@D@2@@std@@V12@U?$less@V?$basic_string@DU?$char_traits@D@std@@V?$allocator@D@2@@std@@@2@V?$allocator@U?$pair@$$CBV?$basic_string@DU?$char_traits@D@std@@V?$allocator@D@2@@std@@V12@@std@@@2@$00@std@@@std@@IEAAPEAU?$_Tree_node@U?$pair@$$CBV?$basic_string@DU?$char_traits@D@std@@V?$allocator@D@2@@std@@V12@@std@@PEAX@1@AEAU?$pair@$$CBV?$basic_string@DU?$char_traits@D@std@@V?$allocator@D@2@@std@@V12@@1@@Z
	??$_Buynode@AEAU?$pair@$$CBV?$basic_string@DU?$char_traits@D@std@@V?$allocator@D@2@@std@@V12@@std@@@?$_Tree@V?$_Tmap_traits@V?$basic_string@DU?$char_traits@D@std@@V?$allocator@D@2@@std@@V12@U?$less@V?$basic_string@DU?$char_traits@D@std@@V?$allocator@D@2@@std@@@2@V?$allocator@U?$pair@$$CBV?$basic_string@DU?$char_traits@D@std@@V?$allocator@D@2@@std@@V12@@std@@@2@$0A@@std@@@std@@IEAAPEAU?$_Tree_node@U?$pair@$$CBV?$basic_string@DU?$char_traits@D@std@@V?$allocator@D@2@@std@@V12@@std@@PEAX@1@AEAU?$pair@$$CBV?$basic_string@DU?$char_traits@D@std@@V?$allocator@D@2@@std@@V12@@1@@Z
	??$_Buynode@AEAU?$pair@$$CBV?$basic_string@DU?$char_traits@D@std@@V?$allocator@D@2@@std@@V?$basic_json@Vmap@std@@Vvector@2@V?$basic_string@DU?$char_traits@D@std@@V?$allocator@D@2@@2@_N_J_KNVallocator@2@Uadl_serializer@json_abi_v3_11_2@nlohmann@@V?$vector@EV?$allocator@E@std@@@2@@json_abi_v3_11_2@nlohmann@@@std@@@?$_Tree@V?$_Tmap_traits@V?$basic_string@DU?$char_traits@D@std@@V?$allocator@D@2@@std@@V?$basic_json@Vmap@std@@Vvector@2@V?$basic_string@DU?$char_traits@D@std@@V?$allocator@D@2@@2@_N_J_KNVallocator@2@Uadl_serializer@json_abi_v3_11_2@nlohmann@@V?$vector@EV?$allocator@E@std@@@2@@json_abi_v3_11_2@nlohmann@@U?$less@X@2@V?$allocator@U?$pair@$$CBV?$basic_string@DU?$char_traits@D@std@@V?$allocator@D@2@@std@@V?$basic_json@Vmap@std@@Vvector@2@V?$basic_string@DU?$char_traits@D@std@@V?$allocator@D@2@@2@_N_J_KNVallocator@2@Uadl_serializer@json_abi_v3_11_2@nlohmann@@V?$vector@EV?$allocator@E@std@@@2@@json_abi_v3_11_2@nlohmann@@@std@@@2@$0A@@std@@@std@@IEAAPEAU?$_Tree_node@U?$pair@$$CBV?$basic_string@DU?$char_traits@D@std@@V?$allocator@D@2@@std@@V?$basic_json@Vmap@std@@Vvector@2@V?$basic_string@DU?$char_traits@D@std@@V?$allocator@D@2@@2@_N_J_KNVallocator@2@Uadl_serializer@json_abi_v3_11_2@nlohmann@@V?$vector@EV?$allocator@E@std@@@2@@json_abi_v3_11_2@nlohmann@@@std@@PEAX@1@AEAU?$pair@$$CBV?$basic_string@DU?$char_traits@D@std@@V?$allocator@D@2@@std@@V?$basic_json@Vmap@std@@Vvector@2@V?$basic_string@DU?$char_traits@D@std@@V?$allocator@D@2@@2@_N_J_KNVallocator@2@Uadl_serializer@json_abi_v3_11_2@nlohmann@@V?$vector@EV?$allocator@E@std@@@2@@json_abi_v3_11_2@nlohmann@@@1@@Z
	??$_Buynode@AEAU?$pair@$$CBV?$basic_string@DU?$char_traits@D@std@@V?$allocator@D@2@@std@@V?$map@V?$basic_string@DU?$char_traits@D@std@@V?$allocator@D@2@@std@@_KU?$less@V?$basic_string@DU?$char_traits@D@std@@V?$allocator@D@2@@std@@@2@V?$allocator@U?$pair@$$CBV?$basic_string@DU?$char_traits@D@std@@V?$allocator@D@2@@std@@_K@std@@@2@@2@@std@@@?$_Tree@V?$_Tmap_traits@V?$basic_string@DU?$char_traits@D@std@@V?$allocator@D@2@@std@@V?$map@V?$basic_string@DU?$char_traits@D@std@@V?$allocator@D@2@@std@@_KU?$less@V?$basic_string@DU?$char_traits@D@std@@V?$allocator@D@2@@std@@@2@V?$allocator@U?$pair@$$CBV?$basic_string@DU?$char_traits@D@std@@V?$allocator@D@2@@std@@_K@std@@@2@@2@U?$less@V?$basic_string@DU?$char_traits@D@std@@V?$allocator@D@2@@std@@@2@V?$allocator@U?$pair@$$CBV?$basic_string@DU?$char_traits@D@std@@V?$allocator@D@2@@std@@V?$map@V?$basic_string@DU?$char_traits@D@std@@V?$allocator@D@2@@std@@_KU?$less@V?$basic_string@DU?$char_traits@D@std@@V?$allocator@D@2@@std@@@2@V?$allocator@U?$pair@$$CBV?$basic_string@DU?$char_traits@D@std@@V?$allocator@D@2@@std@@_K@std@@@2@@2@@std@@@2@$0A@@std@@@std@@IEAAPEAU?$_Tree_node@U?$pair@$$CBV?$basic_string@DU?$char_traits@D@std@@V?$allocator@D@2@@std@@V?$map@V?$basic_string@DU?$char_traits@D@std@@V?$allocator@D@2@@std@@_KU?$less@V?$basic_string@DU?$char_traits@D@std@@V?$allocator@D@2@@std@@@2@V?$allocator@U?$pair@$$CBV?$basic_string@DU?$char_traits@D@std@@V?$allocator@D@2@@std@@_K@std@@@2@@2@@std@@PEAX@1@AEAU?$pair@$$CBV?$basic_string@DU?$char_traits@D@std@@V?$allocator@D@2@@std@@V?$map@V?$basic_string@DU?$char_traits@D@std@@V?$allocator@D@2@@std@@_KU?$less@V?$basic_string@DU?$char_traits@D@std@@V?$allocator@D@2@@std@@@2@V?$allocator@U?$pair@$$CBV?$basic_string@DU?$char_traits@D@std@@V?$allocator@D@2@@std@@_K@std@@@2@@2@@1@@Z
	??$_Buynode@AEAU?$pair@$$CBV?$basic_string@DU?$char_traits@D@std@@V?$allocator@D@2@@std@@V?$vector@EV?$allocator@E@std@@@2@@std@@@?$_Tree@V?$_Tmap_traits@V?$basic_string@DU?$char_traits@D@std@@V?$allocator@D@2@@std@@V?$vector@EV?$allocator@E@std@@@2@U?$less@V?$basic_string@DU?$char_traits@D@std@@V?$allocator@D@2@@std@@@2@V?$allocator@U?$pair@$$CBV?$basic_string@DU?$char_traits@D@std@@V?$allocator@D@2@@std@@V?$vector@EV?$allocator@E@std@@@2@@std@@@2@$0A@@std@@@std@@IEAAPEAU?$_Tree_node@U?$pair@$$CBV?$basic_string@DU?$char_traits@D@std@@V?$allocator@D@2@@std@@V?$vector@EV?$allocator@E@std@@@2@@std@@PEAX@1@AEAU?$pair@$$CBV?$basic_string@DU?$char_traits@D@std@@V?$allocator@D@2@@std@@V?$vector@EV?$allocator@E@std@@@2@@1@@Z
	??$_Buynode@AEAU?$pair@$$CBV?$basic_string@DU?$char_traits@D@std@@V?$allocator@D@2@@std@@_K@std@@@?$_Tree@V?$_Tmap_traits@V?$basic_string@DU?$char_traits@D@std@@V?$allocator@D@2@@std@@_KU?$less@V?$basic_string@DU?$char_traits@D@std@@V?$allocator@D@2@@std@@@2@V?$allocator@U?$pair@$$CBV?$basic_string@DU?$char_traits@D@std@@V?$allocator@D@2@@std@@_K@std@@@2@$0A@@std@@@std@@IEAAPEAU?$_Tree_node@U?$pair@$$CBV?$basic_string@DU?$char_traits@D@std@@V?$allocator@D@2@@std@@_K@std@@PEAX@1@AEAU?$pair@$$CBV?$basic_string@DU?$char_traits@D@std@@V?$allocator@D@2@@std@@_K@1@@Z
	??$_Buynode@AEAV?$basic_string@DU?$char_traits@D@std@@V?$allocator@D@2@@std@@@?$_Tree@V?$_Tset_traits@V?$basic_string@DU?$char_traits@D@std@@V?$allocator@D@2@@std@@U?$less@V?$basic_string@DU?$char_traits@D@std@@V?$allocator@D@2@@std@@@2@V?$allocator@V?$basic_string@DU?$char_traits@D@std@@V?$allocator@D@2@@std@@@2@$0A@@std@@@std@@IEAAPEAU?$_Tree_node@V?$basic_string@DU?$char_traits@D@std@@V?$allocator@D@2@@std@@PEAX@1@AEAV?$basic_string@DU?$char_traits@D@std@@V?$allocator@D@2@@1@@Z
	??$_Buynode@V?$allocator@U?$_Tree_node@U?$pair@$$CBV?$basic_string@DU?$char_traits@D@std@@V?$allocator@D@2@@std@@UContractState@zk@midnight@@@std@@PEAX@std@@@std@@AEAU?$pair@$$CBV?$basic_string@DU?$char_traits@D@std@@V?$allocator@D@2@@std@@UContractState@zk@midnight@@@2@@?$_Tree_node@U?$pair@$$CBV?$basic_string@DU?$char_traits@D@std@@V?$allocator@D@2@@std@@UContractState@zk@midnight@@@std@@PEAX@std@@SAPEAU01@AEAV?$allocator@U?$_Tree_node@U?$pair@$$CBV?$basic_string@DU?$char_traits@D@std@@V?$allocator@D@2@@std@@UContractState@zk@midnight@@@std@@PEAX@std@@@1@PEAU01@AEAU?$pair@$$CBV?$basic_string@DU?$char_traits@D@std@@V?$allocator@D@2@@std@@UContractState@zk@midnight@@@1@@Z
	??$_Buynode@V?$allocator@U?$_Tree_node@U?$pair@$$CBV?$basic_string@DU?$char_traits@D@std@@V?$allocator@D@2@@std@@UFormData@httplib@@@std@@PEAX@std@@@std@@AEAU?$pair@$$CBV?$basic_string@DU?$char_traits@D@std@@V?$allocator@D@2@@std@@UFormData@httplib@@@2@@?$_Tree_node@U?$pair@$$CBV?$basic_string@DU?$char_traits@D@std@@V?$allocator@D@2@@std@@UFormData@httplib@@@std@@PEAX@std@@SAPEAU01@AEAV?$allocator@U?$_Tree_node@U?$pair@$$CBV?$basic_string@DU?$char_traits@D@std@@V?$allocator@D@2@@std@@UFormData@httplib@@@std@@PEAX@std@@@1@PEAU01@AEAU?$pair@$$CBV?$basic_string@DU?$char_traits@D@std@@V?$allocator@D@2@@std@@UFormData@httplib@@@1@@Z
	??$_Buynode@V?$allocator@U?$_Tree_node@U?$pair@$$CBV?$basic_string@DU?$char_traits@D@std@@V?$allocator@D@2@@std@@UFormField@httplib@@@std@@PEAX@std@@@std@@AEAU?$pair@$$CBV?$basic_string@DU?$char_traits@D@std@@V?$allocator@D@2@@std@@UFormField@httplib@@@2@@?$_Tree_node@U?$pair@$$CBV?$basic_string@DU?$char_traits@D@std@@V?$allocator@D@2@@std@@UFormField@httplib@@@std@@PEAX@std@@SAPEAU01@AEAV?$allocator@U?$_Tree_node@U?$pair@$$CBV?$basic_string@DU?$char_traits@D@std@@V?$allocator@D@2@@std@@UFormField@httplib@@@std@@PEAX@std@@@1@PEAU01@AEAU?$pair@$$CBV?$basic_string@DU?$char_traits@D@std@@V?$allocator@D@2@@std@@UFormField@httplib@@@1@@Z
	??$_Buynode@V?$allocator@U?$_Tree_node@U?$pair@$$CBV?$basic_string@DU?$char_traits@D@std@@V?$allocator@D@2@@std@@UWitnessOutput@zk@midnight@@@std@@PEAX@std@@@std@@AEAU?$pair@$$CBV?$basic_string@DU?$char_traits@D@std@@V?$allocator@D@2@@std@@UWitnessOutput@zk@midnight@@@2@@?$_Tree_node@U?$pair@$$CBV?$basic_string@DU?$char_traits@D@std@@V?$allocator@D@2@@std@@UWitnessOutput@zk@midnight@@@std@@PEAX@std@@SAPEAU01@AEAV?$allocator@U?$_Tree_node@U?$pair@$$CBV?$basic_string@DU?$char_traits@D@std@@V?$allocator@D@2@@std@@UWitnessOutput@zk@midnight@@@std@@PEAX@std@@@1@PEAU01@AEAU?$pair@$$CBV?$basic_string@DU?$char_traits@D@std@@V?$allocator@D@2@@std@@UWitnessOutput@zk@midnight@@@1@@Z
	??$_Buynode@V?$allocator@U?$_Tree_node@U?$pair@$$CBV?$basic_string@DU?$char_traits@D@std@@V?$allocator@D@2@@std@@V12@@std@@PEAX@std@@@std@@AEAU?$pair@$$CBV?$basic_string@DU?$char_traits@D@std@@V?$allocator@D@2@@std@@V12@@2@@?$_Tree_node@U?$pair@$$CBV?$basic_string@DU?$char_traits@D@std@@V?$allocator@D@2@@std@@V12@@std@@PEAX@std@@SAPEAU01@AEAV?$allocator@U?$_Tree_node@U?$pair@$$CBV?$basic_string@DU?$char_traits@D@std@@V?$allocator@D@2@@std@@V12@@std@@PEAX@std@@@1@PEAU01@AEAU?$pair@$$CBV?$basic_string@DU?$char_traits@D@std@@V?$allocator@D@2@@std@@V12@@1@@Z
	??$_Buynode@V?$allocator@U?$_Tree_node@U?$pair@$$CBV?$basic_string@DU?$char_traits@D@std@@V?$allocator@D@2@@std@@V?$basic_json@Vmap@std@@Vvector@2@V?$basic_string@DU?$char_traits@D@std@@V?$allocator@D@2@@2@_N_J_KNVallocator@2@Uadl_serializer@json_abi_v3_11_2@nlohmann@@V?$vector@EV?$allocator@E@std@@@2@@json_abi_v3_11_2@nlohmann@@@std@@PEAX@std@@@std@@AEAU?$pair@$$CBV?$basic_string@DU?$char_traits@D@std@@V?$allocator@D@2@@std@@V?$basic_json@Vmap@std@@Vvector@2@V?$basic_string@DU?$char_traits@D@std@@V?$allocator@D@2@@2@_N_J_KNVallocator@2@Uadl_serializer@json_abi_v3_11_2@nlohmann@@V?$vector@EV?$allocator@E@std@@@2@@json_abi_v3_11_2@nlohmann@@@2@@?$_Tree_node@U?$pair@$$CBV?$basic_string@DU?$char_traits@D@std@@V?$allocator@D@2@@std@@V?$basic_json@Vmap@std@@Vvector@2@V?$basic_string@DU?$char_traits@D@std@@V?$allocator@D@2@@2@_N_J_KNVallocator@2@Uadl_serializer@json_abi_v3_11_2@nlohmann@@V?$vector@EV?$allocator@E@std@@@2@@json_abi_v3_11_2@nlohmann@@@std@@PEAX@std@@SAPEAU01@AEAV?$allocator@U?$_Tree_node@U?$pair@$$CBV?$basic_string@DU?$char_traits@D@std@@V?$allocator@D@2@@std@@V?$basic_json@Vmap@std@@Vvector@2@V?$basic_string@DU?$char_traits@D@std@@V?$allocator@D@2@@2@_N_J_KNVallocator@2@Uadl_serializer@json_abi_v3_11_2@nlohmann@@V?$vector@EV?$allocator@E@std@@@2@@json_abi_v3_11_2@nlohmann@@@std@@PEAX@std@@@1@PEAU01@AEAU?$pair@$$CBV?$basic_string@DU?$char_traits@D@std@@V?$allocator@D@2@@std@@V?$basic_json@Vmap@std@@Vvector@2@V?$basic_string@DU?$char_traits@D@std@@V?$allocator@D@2@@2@_N_J_KNVallocator@2@Uadl_serializer@json_abi_v3_11_2@nlohmann@@V?$vector@EV?$allocator@E@std@@@2@@json_abi_v3_11_2@nlohmann@@@1@@Z
	??$_Buynode@V?$allocator@U?$_Tree_node@U?$pair@$$CBV?$basic_string@DU?$char_traits@D@std@@V?$allocator@D@2@@std@@V?$map@V?$basic_string@DU?$char_traits@D@std@@V?$allocator@D@2@@std@@_KU?$less@V?$basic_string@DU?$char_traits@D@std@@V?$allocator@D@2@@std@@@2@V?$allocator@U?$pair@$$CBV?$basic_string@DU?$char_traits@D@std@@V?$allocator@D@2@@std@@_K@std@@@2@@2@@std@@PEAX@std@@@std@@AEAU?$pair@$$CBV?$basic_string@DU?$char_traits@D@std@@V?$allocator@D@2@@std@@V?$map@V?$basic_string@DU?$char_traits@D@std@@V?$allocator@D@2@@std@@_KU?$less@V?$basic_string@DU?$char_traits@D@std@@V?$allocator@D@2@@std@@@2@V?$allocator@U?$pair@$$CBV?$basic_string@DU?$char_traits@D@std@@V?$allocator@D@2@@std@@_K@std@@@2@@2@@2@@?$_Tree_node@U?$pair@$$CBV?$basic_string@DU?$char_traits@D@std@@V?$allocator@D@2@@std@@V?$map@V?$basic_string@DU?$char_traits@D@std@@V?$allocator@D@2@@std@@_KU?$less@V?$basic_string@DU?$char_traits@D@std@@V?$allocator@D@2@@std@@@2@V?$allocator@U?$pair@$$CBV?$basic_string@DU?$char_traits@D@std@@V?$allocator@D@2@@std@@_K@std@@@2@@2@@std@@PEAX@std@@SAPEAU01@AEAV?$allocator@U?$_Tree_node@U?$pair@$$CBV?$basic_string@DU?$char_traits@D@std@@V?$allocator@D@2@@std@@V?$map@V?$basic_string@DU?$char_traits@D@std@@V?$allocator@D@2@@std@@_KU?$less@V?$basic_string@DU?$char_traits@D@std@@V?$allocator@D@2@@std@@@2@V?$allocator@U?$pair@$$CBV?$basic_string@DU?$char_traits@D@std@@V?$allocator@D@2@@std@@_K@std@@@2@@2@@std@@PEAX@std@@@1@PEAU01@AEAU?$pair@$$CBV?$basic_string@DU?$char_traits@D@std@@V?$allocator@D@2@@std@@V?$map@V?$basic_string@DU?$char_traits@D@std@@V?$allocator@D@2@@std@@_KU?$less@V?$basic_string@DU?$char_traits@D@std@@V?$allocator@D@2@@std@@@2@V?$allocator@U?$pair@$$CBV?$basic_string@DU?$char_traits@D@std@@V?$allocator@D@2@@std@@_K@std@@@2@@2@@1@@Z
	??$_Buynode@V?$allocator@U?$_Tree_node@U?$pair@$$CBV?$basic_string@DU?$char_traits@D@std@@V?$allocator@D@2@@std@@V?$vector@EV?$allocator@E@std@@@2@@std@@PEAX@std@@@std@@AEAU?$pair@$$CBV?$basic_string@DU?$char_traits@D@std@@V?$allocator@D@2@@std@@V?$vector@EV?$allocator@E@std@@@2@@2@@?$_Tree_node@U?$pair@$$CBV?$basic_string@DU?$char_traits@D@std@@V?$allocator@D@2@@std@@V?$vector@EV?$allocator@E@std@@@2@@std@@PEAX@std@@SAPEAU01@AEAV?$allocator@U?$_Tree_node@U?$pair@$$CBV?$basic_string@DU?$char_traits@D@std@@V?$allocator@D@2@@std@@V?$vector@EV?$allocator@E@std@@@2@@std@@PEAX@std@@@1@PEAU01@AEAU?$pair@$$CBV?$basic_string@DU?$char_traits@D@std@@V?$allocator@D@2@@std@@V?$vector@EV?$allocator@E@std@@@2@@1@@Z
	??$_Buynode@V?$allocator@U?$_Tree_node@U?$pair@$$CBV?$basic_string@DU?$char_traits@D@std@@V?$allocator@D@2@@std@@_K@std@@PEAX@std@@@std@@AEAU?$pair@$$CBV?$basic_string@DU?$char_traits@D@std@@V?$allocator@D@2@@std@@_K@2@@?$_Tree_node@U?$pair@$$CBV?$basic_string@DU?$char_traits@D@std@@V?$allocator@D@2@@std@@_K@std@@PEAX@std@@SAPEAU01@AEAV?$allocator@U?$_Tree_node@U?$pair@$$CBV?$basic_string@DU?$char_traits@D@std@@V?$allocator@D@2@@std@@_K@std@@PEAX@std@@@1@PEAU01@AEAU?$pair@$$CBV?$basic_string@DU?$char_traits@D@std@@V?$allocator@D@2@@std@@_K@1@@Z
	??$_Buynode@V?$allocator@U?$_Tree_node@V?$basic_string@DU?$char_traits@D@std@@V?$allocator@D@2@@std@@PEAX@std@@@std@@AEAV?$basic_string@DU?$char_traits@D@std@@V?$allocator@D@2@@2@@?$_Tree_node@V?$basic_string@DU?$char_traits@D@std@@V?$allocator@D@2@@std@@PEAX@std@@SAPEAU01@AEAV?$allocator@U?$_Tree_node@V?$basic_string@DU?$char_traits@D@std@@V?$allocator@D@2@@std@@PEAX@std@@@1@PEAU01@AEAV?$basic_string@DU?$char_traits@D@std@@V?$allocator@D@2@@1@@Z
	??$_Clamped_rel_time_ms_count@V?$duration@_JU?$ratio@$00$0DLJKMKAA@@std@@@chrono@std@@@std@@YA?AU_Clamped_rel_time_ms_count_result@0@AEBV?$duration@_JU?$ratio@$00$0DLJKMKAA@@std@@@chrono@0@@Z
	??$_Cmp_chrange@PEBDPEBDU?$_Cmp_icase@V?$regex_traits@D@std@@@std@@@std@@YAPEBDPEBD000U?$_Cmp_icase@V?$regex_traits@D@std@@@0@@Z
	??$_Cmp_chrange@PEBDPEBDU?$_Cmp_icase_translateleft@V?$regex_traits@D@std@@@std@@@std@@YAPEBDPEBD000U?$_Cmp_icase_translateleft@V?$regex_traits@D@std@@@0@@Z
	??$_Cmp_chrange@PEBDPEBDU?$equal_to@D@std@@@std@@YAPEBDPEBD000U?$equal_to@D@0@@Z
	??$_Cmp_chrange@V?$_String_const_iterator@V?$_String_val@U?$_Simple_types@D@std@@@std@@@std@@PEBDU?$_Cmp_icase_translateleft@V?$regex_traits@D@std@@@2@@std@@YA?AV?$_String_const_iterator@V?$_String_val@U?$_Simple_types@D@std@@@std@@@0@V10@0PEBD1U?$_Cmp_icase_translateleft@V?$regex_traits@D@std@@@0@@Z
	??$_Cmp_chrange@V?$_String_const_iterator@V?$_String_val@U?$_Simple_types@D@std@@@std@@@std@@PEBDU?$equal_to@D@2@@std@@YA?AV?$_String_const_iterator@V?$_String_val@U?$_Simple_types@D@std@@@std@@@0@V10@0PEBD1U?$equal_to@D@0@@Z
	??$_Cmp_chrange@V?$_String_const_iterator@V?$_String_val@U?$_Simple_types@D@std@@@std@@@std@@V12@U?$_Cmp_icase@V?$regex_traits@D@std@@@2@@std@@YA?AV?$_String_const_iterator@V?$_String_val@U?$_Simple_types@D@std@@@std@@@0@V10@000U?$_Cmp_icase@V?$regex_traits@D@std@@@0@@Z
	??$_Cmp_chrange@V?$_String_const_iterator@V?$_String_val@U?$_Simple_types@D@std@@@std@@@std@@V12@U?$equal_to@D@2@@std@@YA?AV?$_String_const_iterator@V?$_String_val@U?$_Simple_types@D@std@@@std@@@0@V10@000U?$equal_to@D@0@@Z
	??$_Compare_translate_both@PEBDPEBDV?$regex_traits@D@std@@@std@@YAPEBDPEBD000AEBV?$regex_traits@D@0@W4syntax_option_type@regex_constants@0@@Z
	??$_Compare_translate_both@V?$_String_const_iterator@V?$_String_val@U?$_Simple_types@D@std@@@std@@@std@@V12@V?$regex_traits@D@2@@std@@YA?AV?$_String_const_iterator@V?$_String_val@U?$_Simple_types@D@std@@@std@@@0@V10@000AEBV?$regex_traits@D@0@W4syntax_option_type@regex_constants@0@@Z
	??$_Compare_translate_left@PEBDPEBDV?$regex_traits@D@std@@@std@@YAPEBDPEBD000AEBV?$regex_traits@D@0@W4syntax_option_type@regex_constants@0@@Z
	??$_Compare_translate_left@V?$_String_const_iterator@V?$_String_val@U?$_Simple_types@D@std@@@std@@@std@@PEBDV?$regex_traits@D@2@@std@@YA?AV?$_String_const_iterator@V?$_String_val@U?$_Simple_types@D@std@@@std@@@0@V10@0PEBD1AEBV?$regex_traits@D@0@W4syntax_option_type@regex_constants@0@@Z
	??$_Construct@$00PEAD@?$basic_string@DU?$char_traits@D@std@@V?$allocator@D@2@@std@@AEAAXQEAD_K@Z
	??$_Construct@$00PEBD@?$basic_string@DU?$char_traits@D@std@@V?$allocator@D@2@@std@@AEAAXQEBD_K@Z
	??$_Construct@$01PEBD@?$basic_string@DU?$char_traits@D@std@@V?$allocator@D@2@@std@@AEAAXQEBD_K@Z
